Certificate:
    Data:
        Version: 3 (0x2)
        Serial Number:
            09:83:1f:f9:9d:4c:71:ee:b3:f3:26:65:04:4e:06:24
        Signature Algorithm: sha256WithRSAEncryption
        Issuer: CN=team5-net
        Validity
            Not Before: Apr 20 00:10:01 2023 GMT
            Not After : Apr  4 00:10:01 2026 GMT
        Subject: CN=team5-server
        Subject Public Key Info:
            Public Key Algorithm: rsaEncryption
                Public-Key: (2048 bit)
                Modulus:
                    00:b9:f7:fa:bd:f1:7f:2a:e2:f3:69:f0:09:1c:2e:
                    96:a3:89:ef:4c:f7:5b:4c:8f:10:ca:9a:b1:fb:a1:
                    d3:e8:84:e9:6f:c4:d7:59:d6:57:49:1c:91:40:19:
                    a7:ab:3d:fa:7f:4a:7b:ef:ad:45:94:ad:6c:31:8c:
                    86:b3:14:4b:d4:9d:29:a0:45:a4:d4:b4:17:78:d3:
                    2e:46:ce:fe:38:85:7e:e2:c4:00:f8:a4:41:e4:63:
                    4d:57:51:43:9e:1d:d5:03:f3:ba:c7:51:c6:e5:79:
                    4d:1e:31:28:cf:a5:c6:df:20:f2:b7:4e:07:a6:68:
                    7a:f5:64:03:90:fc:10:dd:45:ec:c2:4a:eb:a8:15:
                    70:d0:a7:00:5f:82:74:c4:b7:d6:53:3b:77:a1:00:
                    30:a9:75:e3:38:fb:40:16:3b:f1:be:7a:6a:18:fa:
                    46:65:1b:a9:4f:c5:10:1f:ef:d9:82:2d:f8:f4:3d:
                    7f:72:4e:32:39:c1:49:77:04:09:b1:5b:cf:80:c5:
                    ed:72:5a:20:d7:a6:b7:fa:9e:b7:7c:bf:17:5d:46:
                    1e:8a:bd:23:ee:41:b7:5d:c8:d3:ff:d2:7d:a6:f6:
                    73:39:26:aa:c2:c5:1a:a9:7e:2b:2f:85:a1:44:34:
                    f4:a5:81:30:49:cf:03:9c:a1:17:c8:26:c1:e1:40:
                    4f:8f
                Exponent: 65537 (0x10001)
        X509v3 extensions:
            X509v3 Basic Constraints: 
                CA:FALSE
            X509v3 Subject Key Identifier: 
                6C:7F:65:67:89:43:14:D0:60:89:12:60:84:7F:50:19:5E:BD:D7:D7
            X509v3 Authority Key Identifier: 
                keyid:CD:16:E4:82:06:84:60:6D:A3:50:5C:E7:63:5A:0E:C7:E5:6E:AC:E1
                DirName:/CN=team5-net
                serial:0D:EA:21:DE:4C:20:F4:7F:A9:EE:62:B7:FE:A8:D9:D0:49:73:B9:BA
            X509v3 Extended Key Usage: 
                TLS Web Server Authentication
            X509v3 Key Usage: 
                Digital Signature, Key Encipherment
            X509v3 Subject Alternative Name: 
                DNS:team5-server
    Signature Algorithm: sha256WithRSAEncryption
    Signature Value:
        bc:eb:8e:00:82:59:b4:ac:31:65:21:49:44:c2:c9:b5:07:3e:
        dc:c1:49:a4:3a:7d:39:2d:cc:83:6b:18:07:c7:64:db:48:f9:
        6a:b2:3e:82:d5:eb:5c:30:d6:94:49:ba:37:4e:fe:a0:e1:ef:
        ac:6f:e8:5d:da:a6:15:46:09:97:91:a4:38:e1:89:e1:b4:3d:
        d0:27:99:14:22:84:31:68:76:7e:82:ef:f9:52:d8:b7:17:bd:
        f2:09:7a:ad:60:6b:02:66:ad:d1:73:99:25:f1:8f:3d:d1:4c:
        47:ee:03:22:85:ef:f0:69:f6:8d:5e:44:77:f7:26:e0:f4:b0:
        59:9e:00:06:89:9e:ef:ca:aa:e8:26:e9:3f:2f:9e:1e:54:a3:
        7a:d5:58:df:8f:81:a8:1a:da:36:15:37:85:00:0e:c7:43:2d:
        b9:6a:cf:01:17:d9:15:ff:7b:69:6d:70:de:0b:28:33:81:22:
        35:30:2e:e5:8a:b2:d5:68:1b:ef:54:bd:2d:99:ce:06:b3:c2:
        79:dc:ea:43:b3:f9:ec:08:15:f3:d0:76:f7:66:2e:15:75:cc:
        68:2a:f7:91:5e:9a:b8:12:de:3f:27:a9:6f:45:3c:8b:7a:73:
        5f:cc:9d:40:88:04:2d:ff:07:f3:6f:9b:f0:79:11:a8:c2:aa:
        d6:ba:45:31
-----BEGIN CERTIFICATE-----
MIIDbzCCAlegAwIBAgIQCYMf+Z1Mce6z8yZlBE4GJDANBgkqhkiG9w0BAQsFADAU
MRIwEAYDVQQDDAl0ZWFtNS1uZXQwHhcNMjMwNDIwMDAxMDAxWhcNMjYwNDA0MDAx
MDAxWjAXMRUwEwYDVQQDDAx0ZWFtNS1zZXJ2ZXIwggEiMA0GCSqGSIb3DQEBAQUA
A4IBDwAwggEKAoIBAQC59/q98X8q4vNp8AkcLpajie9M91tMjxDKmrH7odPohOlv
xNdZ1ldJHJFAGaerPfp/SnvvrUWUrWwxjIazFEvUnSmgRaTUtBd40y5Gzv44hX7i
xAD4pEHkY01XUUOeHdUD87rHUcbleU0eMSjPpcbfIPK3TgemaHr1ZAOQ/BDdRezC
SuuoFXDQpwBfgnTEt9ZTO3ehADCpdeM4+0AWO/G+emoY+kZlG6lPxRAf79mCLfj0
PX9yTjI5wUl3BAmxW8+Axe1yWiDXprf6nrd8vxddRh6KvSPuQbddyNP/0n2m9nM5
JqrCxRqpfisvhaFENPSlgTBJzwOcoRfIJsHhQE+PAgMBAAGjgbkwgbYwCQYDVR0T
BAIwADAdBgNVHQ4EFgQUbH9lZ4lDFNBgiRJghH9QGV6919cwTwYDVR0jBEgwRoAU
zRbkggaEYG2jUFznY1oOx+VurOGhGKQWMBQxEjAQBgNVBAMMCXRlYW01LW5ldIIU
Deoh3kwg9H+p7mK3/qjZ0ElzubowEwYDVR0lBAwwCgYIKwYBBQUHAwEwCwYDVR0P
BAQDAgWgMBcGA1UdEQQQMA6CDHRlYW01LXNlcnZlcjANBgkqhkiG9w0BAQsFAAOC
AQEAvOuOAIJZtKwxZSFJRMLJtQc+3MFJpDp9OS3Mg2sYB8dk20j5arI+gtXrXDDW
lEm6N07+oOHvrG/oXdqmFUYJl5GkOOGJ4bQ90CeZFCKEMWh2foLv+VLYtxe98gl6
rWBrAmat0XOZJfGPPdFMR+4DIoXv8Gn2jV5Ed/cm4PSwWZ4ABome78qq6CbpPy+e
HlSjetVY34+BqBraNhU3hQAOx0MtuWrPARfZFf97aW1w3gsoM4EiNTAu5Yqy1Wgb
71S9LZnOBrPCedzqQ7P57AgV89B292YuFXXMaCr3kV6auBLePyepb0U8i3pzX8yd
QIgELf8H82+b8HkRqMKq1rpFMQ==
-----END CERTIFICATE-----
