Certificate:
    Data:
        Version: 3 (0x2)
        Serial Number:
            25:2b:1e:0c:d8:30:d7:e3:84:98:20:58:70:00:c0:1c
        Signature Algorithm: sha256WithRSAEncryption
        Issuer: CN=team5-net
        Validity
            Not Before: Apr 20 00:10:00 2023 GMT
            Not After : Apr  4 00:10:00 2026 GMT
        Subject: CN=team5-client
        Subject Public Key Info:
            Public Key Algorithm: rsaEncryption
                Public-Key: (2048 bit)
                Modulus:
                    00:c6:11:51:10:75:7d:12:7e:32:fc:1b:21:d2:7c:
                    2a:da:16:9d:ed:ec:99:59:a8:dd:91:fb:a2:fc:20:
                    39:7c:c1:bc:91:82:7e:78:25:df:24:0d:c6:7d:39:
                    a0:93:04:7d:2c:4a:2c:d6:06:bd:66:63:4f:54:e7:
                    65:4d:b7:e6:47:85:0f:13:c9:84:4a:03:04:95:de:
                    dc:63:40:34:e4:37:22:8e:df:98:dd:51:ea:76:8d:
                    9d:59:a4:7f:93:83:11:34:62:c1:d3:2d:cc:c2:b3:
                    7c:83:dd:a5:49:bc:7a:5f:b4:d2:22:fc:8a:f2:f3:
                    de:90:89:c3:4c:fb:6b:44:68:b1:00:e5:de:bb:b7:
                    6f:7d:72:37:f8:48:0f:54:7b:ee:b6:0b:f5:c7:ae:
                    ff:f8:1c:18:86:f2:65:70:4a:94:e1:95:65:ea:b3:
                    5e:c2:a6:e5:e6:13:93:91:e5:6c:0a:73:2e:a3:7e:
                    01:65:a8:41:6f:db:1a:08:3a:67:73:e5:36:a7:81:
                    83:80:21:2a:dc:c4:2a:87:3f:6b:e1:2b:cc:da:9a:
                    67:34:5a:fd:e5:fc:c3:77:00:b5:cb:52:f3:6f:ee:
                    d8:3c:eb:aa:e1:e7:f5:3d:85:2c:bc:8d:f1:ed:6d:
                    31:4f:a6:35:9d:e6:01:99:88:28:7a:3f:79:68:4f:
                    39:29
                Exponent: 65537 (0x10001)
        X509v3 extensions:
            X509v3 Basic Constraints: 
                CA:FALSE
            X509v3 Subject Key Identifier: 
                93:36:B2:82:0C:23:ED:73:99:2A:5B:BC:21:AF:BD:76:2B:5F:C2:9E
            X509v3 Authority Key Identifier: 
                keyid:CD:16:E4:82:06:84:60:6D:A3:50:5C:E7:63:5A:0E:C7:E5:6E:AC:E1
                DirName:/CN=team5-net
                serial:0D:EA:21:DE:4C:20:F4:7F:A9:EE:62:B7:FE:A8:D9:D0:49:73:B9:BA
            X509v3 Extended Key Usage: 
                TLS Web Client Authentication
            X509v3 Key Usage: 
                Digital Signature
    Signature Algorithm: sha256WithRSAEncryption
    Signature Value:
        42:7a:07:3b:ff:3a:e5:f4:ca:47:e6:9c:37:7d:c1:e5:1d:12:
        cd:01:79:62:66:59:3b:b2:0a:85:a6:39:e4:73:e8:2b:04:8c:
        1f:ab:1b:01:35:7b:27:41:29:46:10:9c:70:fc:84:14:05:9d:
        8c:0f:92:ce:4c:d4:c6:5b:53:be:7b:7b:77:3d:cd:8f:b2:94:
        0c:86:65:cd:cd:fa:75:27:ef:72:a3:2f:ed:95:97:db:72:57:
        eb:fd:48:06:06:b1:5b:fc:81:84:ad:d8:b4:a0:0e:ec:01:de:
        21:e9:79:f0:24:cc:94:10:e6:17:f7:3e:f7:92:03:87:24:ba:
        8f:4c:2a:c3:4d:d3:37:92:7a:4f:03:79:5e:37:d5:e6:fa:d1:
        60:47:c0:54:c1:c6:d6:df:72:76:d9:96:28:d9:42:02:81:2d:
        bc:7f:aa:e4:fd:85:bd:de:fe:64:5f:87:77:df:8c:96:2b:53:
        a3:d9:57:f9:f9:78:4f:ac:7b:70:79:dc:bf:82:62:ec:8a:0f:
        23:16:07:83:ce:e1:df:17:9e:43:09:5b:2f:8a:18:6e:dd:0b:
        34:8c:59:69:a9:a1:b4:b4:cf:77:0b:52:c5:41:19:e2:85:72:
        0b:fd:f1:94:f2:77:6f:c6:d2:d9:90:6d:77:75:c0:a6:5b:c5:
        ab:bc:83:bd
-----BEGIN CERTIFICATE-----
MIIDVjCCAj6gAwIBAgIQJSseDNgw1+OEmCBYcADAHDANBgkqhkiG9w0BAQsFADAU
MRIwEAYDVQQDDAl0ZWFtNS1uZXQwHhcNMjMwNDIwMDAxMDAwWhcNMjYwNDA0MDAx
MDAwWjAXMRUwEwYDVQQDDAx0ZWFtNS1jbGllbnQwggEiMA0GCSqGSIb3DQEBAQUA
A4IBDwAwggEKAoIBAQDGEVEQdX0SfjL8GyHSfCraFp3t7JlZqN2R+6L8IDl8wbyR
gn54Jd8kDcZ9OaCTBH0sSizWBr1mY09U52VNt+ZHhQ8TyYRKAwSV3txjQDTkNyKO
35jdUep2jZ1ZpH+TgxE0YsHTLczCs3yD3aVJvHpftNIi/Iry896QicNM+2tEaLEA
5d67t299cjf4SA9Ue+62C/XHrv/4HBiG8mVwSpThlWXqs17CpuXmE5OR5WwKcy6j
fgFlqEFv2xoIOmdz5TangYOAISrcxCqHP2vhK8zammc0Wv3l/MN3ALXLUvNv7tg8
66rh5/U9hSy8jfHtbTFPpjWd5gGZiCh6P3loTzkpAgMBAAGjgaAwgZ0wCQYDVR0T
BAIwADAdBgNVHQ4EFgQUkzayggwj7XOZKlu8Ia+9ditfwp4wTwYDVR0jBEgwRoAU
zRbkggaEYG2jUFznY1oOx+VurOGhGKQWMBQxEjAQBgNVBAMMCXRlYW01LW5ldIIU
Deoh3kwg9H+p7mK3/qjZ0ElzubowEwYDVR0lBAwwCgYIKwYBBQUHAwIwCwYDVR0P
BAQDAgeAMA0GCSqGSIb3DQEBCwUAA4IBAQBCegc7/zrl9MpH5pw3fcHlHRLNAXli
Zlk7sgqFpjnkc+grBIwfqxsBNXsnQSlGEJxw/IQUBZ2MD5LOTNTGW1O+e3t3Pc2P
spQMhmXNzfp1J+9yoy/tlZfbclfr/UgGBrFb/IGErdi0oA7sAd4h6XnwJMyUEOYX
9z73kgOHJLqPTCrDTdM3knpPA3leN9Xm+tFgR8BUwcbW33J22ZYo2UICgS28f6rk
/YW93v5kX4d334yWK1Oj2Vf5+XhPrHtwedy/gmLsig8jFgeDzuHfF55DCVsvihhu
3Qs0jFlpqaG0tM93C1LFQRnihXIL/fGU8ndvxtLZkG13dcCmW8WrvIO9
-----END CERTIFICATE-----
