Certificate:
    Data:
        Version: 3 (0x2)
        Serial Number:
            a7:3d:de:f1:c4:1e:7f:4d:ce:25:c5:db:32:78:1c:f7
        Signature Algorithm: sha256WithRSAEncryption
        Issuer: CN=team5-net
        Validity
            Not Before: Apr 20 22:53:29 2023 GMT
            Not After : Apr  4 22:53:29 2026 GMT
        Subject: CN=team5-server
        Subject Public Key Info:
            Public Key Algorithm: rsaEncryption
                Public-Key: (2048 bit)
                Modulus:
                    00:c3:e5:03:6e:b4:3a:66:59:23:7e:9a:6f:86:ed:
                    1e:07:ac:03:05:59:b7:7e:6f:a3:44:af:58:f5:d7:
                    06:93:71:f6:c4:99:0c:43:09:22:43:e1:96:73:d7:
                    4f:1b:59:db:99:db:d4:bd:e9:d0:d9:c7:af:44:39:
                    38:8e:79:87:cd:e2:85:6a:82:aa:13:26:b0:8a:c4:
                    5d:e0:d5:f6:42:c1:bb:fb:7f:41:f4:08:d8:af:9a:
                    c5:08:df:48:fe:ba:ff:db:3d:1b:67:da:37:6e:f8:
                    cc:92:1c:91:21:3e:a3:46:d2:75:8c:44:53:9b:be:
                    89:79:f0:72:db:c3:6a:f6:87:94:a5:ec:16:b3:be:
                    f2:88:ad:6f:73:e9:63:14:43:51:1d:55:05:42:20:
                    06:48:e5:2e:3e:ca:e1:1b:31:b0:dd:0f:91:99:6c:
                    f5:cd:d2:3c:aa:7f:61:47:73:b7:9b:26:9e:9b:1f:
                    1c:43:e5:9d:b3:fa:8a:30:1d:a3:f3:5c:a0:0f:8e:
                    e8:1d:0f:c2:bc:31:12:7a:1e:df:ef:02:13:58:92:
                    34:43:e3:ec:a0:83:4a:0f:a6:a4:67:25:8f:55:6e:
                    89:ed:65:37:fc:7e:7e:c7:38:83:39:df:f6:3c:16:
                    30:fa:a9:5f:6d:35:70:2f:09:d9:71:46:26:9c:7c:
                    ff:b1
                Exponent: 65537 (0x10001)
        X509v3 extensions:
            X509v3 Basic Constraints: 
                CA:FALSE
            X509v3 Subject Key Identifier: 
                54:AF:2E:BA:24:DD:F0:A9:32:E7:82:58:F6:3D:FB:CA:BC:45:68:9C
            X509v3 Authority Key Identifier: 
                keyid:AC:53:45:DC:7B:74:B4:BF:66:0B:1D:45:BA:2F:DA:91:42:EC:7B:58
                DirName:/CN=team5-net
                serial:04:E5:5A:A3:EE:28:C1:19:A5:F9:29:E4:B4:BB:6E:DA:39:8B:AC:AE
            X509v3 Extended Key Usage: 
                TLS Web Server Authentication
            X509v3 Key Usage: 
                Digital Signature, Key Encipherment
            X509v3 Subject Alternative Name: 
                DNS:team5-server
    Signature Algorithm: sha256WithRSAEncryption
    Signature Value:
        b2:19:2f:ef:13:19:6e:ff:7c:56:b9:a3:93:be:d9:73:aa:8a:
        c7:74:66:cb:9b:1e:f7:0f:28:6d:e6:95:8e:29:b1:4d:3e:94:
        8a:df:8c:bf:47:b7:bd:59:02:7a:b1:17:36:80:c8:f8:a0:bf:
        6b:da:b4:7c:74:ba:07:32:74:83:af:1d:60:f0:cb:4b:55:af:
        27:eb:f1:69:da:fa:94:22:e1:1c:27:8d:52:e0:d1:43:e7:09:
        f5:d5:0f:88:76:e1:18:84:55:45:08:9f:a0:41:f8:84:6b:e0:
        13:b7:37:4f:9f:78:db:d0:da:ad:74:7e:0e:7a:ac:86:b0:af:
        34:fb:29:e0:84:3f:69:fb:f6:8a:03:c3:7c:42:71:03:5f:52:
        61:e7:4d:37:86:f0:cb:22:9c:ac:a9:bb:21:7b:e3:43:b9:16:
        aa:92:16:0c:62:30:b5:ec:5c:da:3c:bc:0e:ca:a3:91:7f:df:
        42:f1:20:a1:16:a1:bc:b7:93:35:6d:b7:1f:44:86:c8:41:29:
        97:1c:bf:18:48:f0:36:14:ba:fe:91:50:67:6c:e2:e7:c9:1f:
        33:46:6d:0f:3a:07:d0:5d:34:03:f5:d9:b8:66:3e:ec:45:3b:
        db:1a:0c:e8:4b:5d:6b:e3:9f:c9:94:0f:52:e7:78:b8:fc:eb:
        c2:82:24:47
-----BEGIN CERTIFICATE-----
MIIDcDCCAligAwIBAgIRAKc93vHEHn9NziXF2zJ4HPcwDQYJKoZIhvcNAQELBQAw
FDESMBAGA1UEAwwJdGVhbTUtbmV0MB4XDTIzMDQyMDIyNTMyOVoXDTI2MDQwNDIy
NTMyOVowFzEVMBMGA1UEAwwMdGVhbTUtc2VydmVyMIIBIjANBgkqhkiG9w0BAQEF
AAOCAQ8AMIIBCgKCAQEAw+UDbrQ6Zlkjfppvhu0eB6wDBVm3fm+jRK9Y9dcGk3H2
xJkMQwkiQ+GWc9dPG1nbmdvUvenQ2cevRDk4jnmHzeKFaoKqEyawisRd4NX2QsG7
+39B9AjYr5rFCN9I/rr/2z0bZ9o3bvjMkhyRIT6jRtJ1jERTm76JefBy28Nq9oeU
pewWs77yiK1vc+ljFENRHVUFQiAGSOUuPsrhGzGw3Q+RmWz1zdI8qn9hR3O3myae
mx8cQ+Wds/qKMB2j81ygD47oHQ/CvDESeh7f7wITWJI0Q+PsoINKD6akZyWPVW6J
7WU3/H5+xziDOd/2PBYw+qlfbTVwLwnZcUYmnHz/sQIDAQABo4G5MIG2MAkGA1Ud
EwQCMAAwHQYDVR0OBBYEFFSvLrok3fCpMueCWPY9+8q8RWicME8GA1UdIwRIMEaA
FKxTRdx7dLS/ZgsdRbov2pFC7HtYoRikFjAUMRIwEAYDVQQDDAl0ZWFtNS1uZXSC
FATlWqPuKMEZpfkp5LS7bto5i6yuMBMGA1UdJQQMMAoGCCsGAQUFBwMBMAsGA1Ud
DwQEAwIFoDAXBgNVHREEEDAOggx0ZWFtNS1zZXJ2ZXIwDQYJKoZIhvcNAQELBQAD
ggEBALIZL+8TGW7/fFa5o5O+2XOqisd0ZsubHvcPKG3mlY4psU0+lIrfjL9Ht71Z
AnqxFzaAyPigv2vatHx0ugcydIOvHWDwy0tVryfr8Wna+pQi4RwnjVLg0UPnCfXV
D4h24RiEVUUIn6BB+IRr4BO3N0+feNvQ2q10fg56rIawrzT7KeCEP2n79ooDw3xC
cQNfUmHnTTeG8MsinKypuyF740O5FqqSFgxiMLXsXNo8vA7Ko5F/30LxIKEWoby3
kzVttx9EhshBKZccvxhI8DYUuv6RUGds4ufJHzNGbQ86B9BdNAP12bhmPuxFO9sa
DOhLXWvjn8mUD1LneLj868KCJEc=
-----END CERTIFICATE-----
