Certificate:
    Data:
        Version: 3 (0x2)
        Serial Number:
            d3:f6:d6:b6:17:8f:ea:df:40:74:22:91:cd:25:eb:4a
        Signature Algorithm: sha256WithRSAEncryption
        Issuer: CN=team5-net
        Validity
            Not Before: Apr 20 22:53:29 2023 GMT
            Not After : Apr  4 22:53:29 2026 GMT
        Subject: CN=team5-client
        Subject Public Key Info:
            Public Key Algorithm: rsaEncryption
                Public-Key: (2048 bit)
                Modulus:
                    00:ac:cb:17:6b:95:df:8e:c9:9d:83:48:8b:49:a1:
                    74:08:c5:28:e1:ce:48:97:4a:14:09:38:a7:de:65:
                    ee:c8:28:96:ca:c7:e0:7f:51:8e:00:4f:69:2f:d8:
                    e5:a8:4e:29:f5:b4:d4:53:e2:ee:b4:26:47:53:92:
                    ea:1a:6e:d3:0c:f1:dc:c0:31:16:14:ae:80:f5:15:
                    0d:68:20:8d:2c:b1:5e:e0:3b:92:aa:68:82:70:b4:
                    aa:49:56:cb:6a:28:97:0c:71:10:6a:74:70:68:f9:
                    57:6c:f2:73:9a:d0:59:8e:2f:0b:40:7f:1e:88:7a:
                    27:7f:58:76:7d:6c:7e:6d:62:31:ce:e2:68:6c:74:
                    00:af:83:bb:df:a9:15:6f:75:cb:18:20:39:a4:04:
                    a2:fc:b2:69:c3:74:93:20:07:d1:d3:c0:70:8d:46:
                    44:46:6f:fb:35:be:09:e4:2f:61:f6:f1:4c:12:c8:
                    6c:8d:73:88:79:70:80:95:82:e7:35:5b:66:72:f5:
                    0a:94:94:ba:19:b9:a9:42:de:21:67:68:31:53:c8:
                    0a:76:33:f7:40:a1:93:f5:33:f7:35:c8:19:53:96:
                    03:39:7b:9f:ad:70:e8:0a:07:e9:c2:34:b2:84:4b:
                    2e:20:77:8d:dd:09:1c:e0:da:e2:f2:85:5b:59:20:
                    a9:ff
                Exponent: 65537 (0x10001)
        X509v3 extensions:
            X509v3 Basic Constraints: 
                CA:FALSE
            X509v3 Subject Key Identifier: 
                E2:DC:38:2D:AD:C0:7D:D7:72:1B:17:2C:CE:71:76:21:E0:79:40:26
            X509v3 Authority Key Identifier: 
                keyid:AC:53:45:DC:7B:74:B4:BF:66:0B:1D:45:BA:2F:DA:91:42:EC:7B:58
                DirName:/CN=team5-net
                serial:04:E5:5A:A3:EE:28:C1:19:A5:F9:29:E4:B4:BB:6E:DA:39:8B:AC:AE
            X509v3 Extended Key Usage: 
                TLS Web Client Authentication
            X509v3 Key Usage: 
                Digital Signature
    Signature Algorithm: sha256WithRSAEncryption
    Signature Value:
        36:02:0c:1f:85:0a:5e:39:44:8e:06:8d:96:6d:8b:cb:0f:d8:
        7c:1a:3b:46:73:0a:27:ec:ba:ae:4b:64:0b:d7:8e:87:f6:68:
        e0:d1:55:93:88:16:e2:97:74:d0:18:dd:fd:95:bb:58:05:bb:
        ff:80:e1:ea:e5:ec:8e:ba:54:de:16:33:b8:f9:9c:11:2f:df:
        7f:f9:78:9b:48:9e:f1:40:b3:af:1f:57:5b:53:3e:1f:38:c6:
        98:ea:c0:4c:67:c7:58:21:7e:72:66:ec:57:aa:02:29:c0:71:
        62:29:4e:65:78:07:7e:21:e2:ad:ad:58:35:fc:af:3a:2d:b5:
        04:9a:64:af:e9:20:9e:16:fc:6e:64:65:7e:bd:82:9d:b2:cf:
        d7:a0:9b:db:f4:b0:99:8e:23:e3:4d:07:f9:a8:df:9e:b1:b3:
        8d:59:bc:10:90:58:a6:99:4b:a7:d2:26:84:b9:b2:2b:9b:a0:
        52:8e:de:ca:1d:5c:a4:56:6d:0a:9b:9a:6f:e2:08:28:b9:0a:
        9b:6e:89:9f:dc:5f:9d:c6:a8:6d:6a:d3:14:90:f9:b1:e2:5c:
        ce:8a:e8:7f:73:11:23:bb:65:d9:27:a8:22:b4:2e:4e:96:0d:
        a7:b8:d1:75:f9:69:ab:63:13:04:4c:f3:8d:5f:68:22:da:4d:
        30:e3:4b:a9
-----BEGIN CERTIFICATE-----
MIIDVzCCAj+gAwIBAgIRANP21rYXj+rfQHQikc0l60owDQYJKoZIhvcNAQELBQAw
FDESMBAGA1UEAwwJdGVhbTUtbmV0MB4XDTIzMDQyMDIyNTMyOVoXDTI2MDQwNDIy
NTMyOVowFzEVMBMGA1UEAwwMdGVhbTUtY2xpZW50MIIBIjANBgkqhkiG9w0BAQEF
AAOCAQ8AMIIBCgKCAQEArMsXa5Xfjsmdg0iLSaF0CMUo4c5Il0oUCTin3mXuyCiW
ysfgf1GOAE9pL9jlqE4p9bTUU+LutCZHU5LqGm7TDPHcwDEWFK6A9RUNaCCNLLFe
4DuSqmiCcLSqSVbLaiiXDHEQanRwaPlXbPJzmtBZji8LQH8eiHonf1h2fWx+bWIx
zuJobHQAr4O736kVb3XLGCA5pASi/LJpw3STIAfR08BwjUZERm/7Nb4J5C9h9vFM
EshsjXOIeXCAlYLnNVtmcvUKlJS6GbmpQt4hZ2gxU8gKdjP3QKGT9TP3NcgZU5YD
OXufrXDoCgfpwjSyhEsuIHeN3Qkc4Nri8oVbWSCp/wIDAQABo4GgMIGdMAkGA1Ud
EwQCMAAwHQYDVR0OBBYEFOLcOC2twH3XchsXLM5xdiHgeUAmME8GA1UdIwRIMEaA
FKxTRdx7dLS/ZgsdRbov2pFC7HtYoRikFjAUMRIwEAYDVQQDDAl0ZWFtNS1uZXSC
FATlWqPuKMEZpfkp5LS7bto5i6yuMBMGA1UdJQQMMAoGCCsGAQUFBwMCMAsGA1Ud
DwQEAwIHgDANBgkqhkiG9w0BAQsFAAOCAQEANgIMH4UKXjlEjgaNlm2Lyw/YfBo7
RnMKJ+y6rktkC9eOh/Zo4NFVk4gW4pd00Bjd/ZW7WAW7/4Dh6uXsjrpU3hYzuPmc
ES/ff/l4m0ie8UCzrx9XW1M+HzjGmOrATGfHWCF+cmbsV6oCKcBxYilOZXgHfiHi
ra1YNfyvOi21BJpkr+kgnhb8bmRlfr2CnbLP16Cb2/SwmY4j400H+ajfnrGzjVm8
EJBYpplLp9ImhLmyK5ugUo7eyh1cpFZtCpuab+IIKLkKm26Jn9xfncaobWrTFJD5
seJczorof3MRI7tl2SeoIrQuTpYNp7jRdflpq2MTBEzzjV9oItpNMONLqQ==
-----END CERTIFICATE-----
