Certificate:
    Data:
        Version: 3 (0x2)
        Serial Number:
            28:78:af:8b:7f:29:59:e2:3f:3d:01:cc:b0:c0:ad:63
        Signature Algorithm: sha256WithRSAEncryption
        Issuer: CN=team57-net
        Validity
            Not Before: Apr 20 00:11:16 2023 GMT
            Not After : Apr  4 00:11:16 2026 GMT
        Subject: CN=team57-client
        Subject Public Key Info:
            Public Key Algorithm: rsaEncryption
                Public-Key: (2048 bit)
                Modulus:
                    00:b5:9d:d0:20:0c:c8:82:10:6b:0a:3f:da:b4:56:
                    ed:81:65:c5:dd:6f:02:96:97:f9:90:ee:66:32:56:
                    fa:ae:15:77:41:e6:ab:d3:fc:27:00:93:13:fc:87:
                    94:83:69:ce:22:22:2d:e1:43:9d:b5:bc:a6:6b:f6:
                    88:02:eb:4e:7d:15:50:2c:71:45:30:cf:12:c8:67:
                    27:46:aa:17:8d:78:48:50:46:c0:6f:fe:db:a9:fc:
                    21:71:2f:8c:dd:18:09:5d:d5:ef:e8:5c:74:b2:36:
                    3a:b7:d2:a7:02:15:5f:c1:12:7e:69:a4:38:8e:f3:
                    68:56:f4:01:bd:af:4d:58:ae:8e:80:79:be:00:b7:
                    ce:95:13:1a:3c:77:53:bd:47:ca:a5:fc:15:d5:f8:
                    f1:c9:ad:37:9a:e4:90:f8:ff:b9:02:e8:d3:05:2f:
                    73:35:84:98:53:06:73:c6:57:6c:f8:e3:6c:1a:72:
                    ee:4f:f9:85:44:de:88:20:d1:9b:64:5f:94:54:99:
                    19:e4:4b:65:36:3a:d5:dc:29:b7:6c:90:fe:60:d6:
                    23:7a:24:0c:53:26:3d:9c:36:9a:dd:40:f1:6c:57:
                    d4:f9:64:fb:67:c5:47:50:31:48:f6:bf:59:bf:46:
                    2f:a4:c7:5b:e4:e9:fc:d5:0d:00:2b:79:c5:51:5f:
                    28:7f
                Exponent: 65537 (0x10001)
        X509v3 extensions:
            X509v3 Basic Constraints: 
                CA:FALSE
            X509v3 Subject Key Identifier: 
                74:97:CF:14:3E:A3:5C:4A:94:D8:71:EC:58:94:0F:09:DC:4F:4A:91
            X509v3 Authority Key Identifier: 
                keyid:47:B8:5D:BB:DE:2C:15:07:10:B0:1E:BB:5E:BB:A4:BB:5E:42:68:63
                DirName:/CN=team57-net
                serial:60:7E:FF:3D:57:B7:5A:09:64:DE:99:C4:3C:EA:24:DD:79:4D:05:22
            X509v3 Extended Key Usage: 
                TLS Web Client Authentication
            X509v3 Key Usage: 
                Digital Signature
    Signature Algorithm: sha256WithRSAEncryption
    Signature Value:
        86:76:0a:5c:ac:f4:6e:00:e2:5e:e2:9c:8c:bf:4f:ba:db:96:
        cf:d9:14:55:82:a4:02:bb:23:12:59:74:ed:e5:fa:86:d1:bc:
        c7:27:9a:69:72:0f:49:f0:74:f0:0a:87:fc:20:62:72:a1:e9:
        0b:0f:9c:ed:f1:e1:ca:77:93:7c:b5:c7:72:b0:dc:41:9a:4d:
        4b:20:40:76:ab:9d:f9:d3:c4:93:2a:cc:21:24:30:f3:2f:79:
        ca:cb:dc:0a:a6:dd:d7:07:f7:a6:e4:7e:e5:ee:cd:bd:fc:f5:
        d9:c5:4d:6e:e5:dc:75:22:52:9c:b0:d5:03:35:3c:ea:d5:f9:
        ac:14:64:53:70:5a:69:c5:9c:7e:d7:36:2e:ef:a6:33:53:03:
        84:3c:c0:bc:f3:1f:d6:1c:5f:b1:e8:f4:73:4b:32:a0:6f:9e:
        88:a1:26:1c:85:b6:b5:69:a8:56:1c:c5:da:cc:45:bf:90:83:
        7e:4a:46:39:fb:98:b2:ed:6a:fb:15:7f:13:27:61:f9:0f:69:
        4a:30:1f:1e:95:bf:b2:d1:0d:5e:f1:60:ad:8f:4f:2e:85:5a:
        1f:0c:18:42:7c:d2:5e:f4:0b:08:db:96:30:e5:11:e0:b2:87:
        d5:95:36:2a:4a:0c:58:7f:6a:d0:f5:22:3b:e9:eb:9d:e3:cc:
        62:da:2a:13
-----BEGIN CERTIFICATE-----
MIIDWTCCAkGgAwIBAgIQKHivi38pWeI/PQHMsMCtYzANBgkqhkiG9w0BAQsFADAV
MRMwEQYDVQQDDAp0ZWFtNTctbmV0MB4XDTIzMDQyMDAwMTExNloXDTI2MDQwNDAw
MTExNlowGDEWMBQGA1UEAwwNdGVhbTU3LWNsaWVudDCCASIwDQYJKoZIhvcNAQEB
BQADggEPADCCAQoCggEBALWd0CAMyIIQawo/2rRW7YFlxd1vApaX+ZDuZjJW+q4V
d0Hmq9P8JwCTE/yHlINpziIiLeFDnbW8pmv2iALrTn0VUCxxRTDPEshnJ0aqF414
SFBGwG/+26n8IXEvjN0YCV3V7+hcdLI2OrfSpwIVX8ESfmmkOI7zaFb0Ab2vTViu
joB5vgC3zpUTGjx3U71HyqX8FdX48cmtN5rkkPj/uQLo0wUvczWEmFMGc8ZXbPjj
bBpy7k/5hUTeiCDRm2RflFSZGeRLZTY61dwpt2yQ/mDWI3okDFMmPZw2mt1A8WxX
1Plk+2fFR1AxSPa/Wb9GL6THW+Tp/NUNACt5xVFfKH8CAwEAAaOBoTCBnjAJBgNV
HRMEAjAAMB0GA1UdDgQWBBR0l88UPqNcSpTYcexYlA8J3E9KkTBQBgNVHSMESTBH
gBRHuF273iwVBxCwHrteu6S7XkJoY6EZpBcwFTETMBEGA1UEAwwKdGVhbTU3LW5l
dIIUYH7/PVe3Wglk3pnEPOok3XlNBSIwEwYDVR0lBAwwCgYIKwYBBQUHAwIwCwYD
VR0PBAQDAgeAMA0GCSqGSIb3DQEBCwUAA4IBAQCGdgpcrPRuAOJe4pyMv0+625bP
2RRVgqQCuyMSWXTt5fqG0bzHJ5ppcg9J8HTwCof8IGJyoekLD5zt8eHKd5N8tcdy
sNxBmk1LIEB2q53508STKswhJDDzL3nKy9wKpt3XB/em5H7l7s29/PXZxU1u5dx1
IlKcsNUDNTzq1fmsFGRTcFppxZx+1zYu76YzUwOEPMC88x/WHF+x6PRzSzKgb56I
oSYchba1aahWHMXazEW/kIN+SkY5+5iy7Wr7FX8TJ2H5D2lKMB8elb+y0Q1e8WCt
j08uhVofDBhCfNJe9AsI25Yw5RHgsofVlTYqSgxYf2rQ9SI76eud48xi2ioT
-----END CERTIFICATE-----
