Certificate:
    Data:
        Version: 3 (0x2)
        Serial Number:
            e9:2b:4d:1a:09:15:95:8f:ca:25:e6:a8:61:5d:44:a8
        Signature Algorithm: sha256WithRSAEncryption
        Issuer: CN=team57-net
        Validity
            Not Before: Apr 20 00:11:16 2023 GMT
            Not After : Apr  4 00:11:16 2026 GMT
        Subject: CN=team57-server
        Subject Public Key Info:
            Public Key Algorithm: rsaEncryption
                Public-Key: (2048 bit)
                Modulus:
                    00:d1:4e:59:cf:d0:99:e9:72:83:d6:da:da:56:04:
                    3b:b3:b7:7e:20:47:1b:d6:60:22:11:97:7e:a7:d8:
                    57:ef:5e:14:90:a4:46:b5:9b:c6:f2:67:2c:7a:cc:
                    60:55:72:42:ae:45:58:e1:b1:8e:50:c9:e0:b9:d1:
                    c0:5e:aa:25:30:4b:6f:93:12:0b:2a:5d:08:2d:48:
                    05:62:09:0b:d6:25:03:ee:c6:5e:41:18:99:56:99:
                    fd:76:f3:b3:0f:aa:af:7d:de:f9:3d:65:89:3b:fa:
                    d2:ac:ab:e8:fb:4c:f4:dc:f0:1f:86:e2:4d:6b:82:
                    ef:af:1e:d6:f0:02:34:39:8f:c2:de:1e:3f:9a:b0:
                    f9:6d:1f:3d:a5:ad:2e:a5:b1:84:40:7e:71:c9:fc:
                    b0:aa:0c:14:79:d3:7f:7e:b4:5a:cc:c8:b2:6d:a7:
                    43:ec:ac:d6:38:cd:89:3d:7d:da:39:88:db:97:1f:
                    68:d6:b2:18:02:65:a9:76:21:ae:9a:21:4d:f6:af:
                    cb:f5:1b:c5:ca:79:bd:82:cb:b4:19:8e:2a:f5:8f:
                    3b:5d:e8:26:63:87:17:82:e6:9c:09:19:af:54:fa:
                    0d:b0:78:4c:b4:c1:f6:9f:d8:2c:db:df:94:3d:46:
                    a3:db:c0:6f:7f:bb:90:a8:4d:ec:13:a5:a4:29:6d:
                    5b:37
                Exponent: 65537 (0x10001)
        X509v3 extensions:
            X509v3 Basic Constraints: 
                CA:FALSE
            X509v3 Subject Key Identifier: 
                90:94:22:D2:D6:EF:00:30:A1:BF:C9:8E:CE:A4:4D:BD:D3:63:D0:DF
            X509v3 Authority Key Identifier: 
                keyid:47:B8:5D:BB:DE:2C:15:07:10:B0:1E:BB:5E:BB:A4:BB:5E:42:68:63
                DirName:/CN=team57-net
                serial:60:7E:FF:3D:57:B7:5A:09:64:DE:99:C4:3C:EA:24:DD:79:4D:05:22
            X509v3 Extended Key Usage: 
                TLS Web Server Authentication
            X509v3 Key Usage: 
                Digital Signature, Key Encipherment
            X509v3 Subject Alternative Name: 
                DNS:team57-server
    Signature Algorithm: sha256WithRSAEncryption
    Signature Value:
        8a:8e:05:9a:84:be:a5:4d:93:59:49:8c:1e:1e:52:52:13:d9:
        af:7c:51:da:85:c5:16:a6:9e:18:fd:a3:b8:5e:a9:59:9c:41:
        50:46:ba:b3:f8:bb:06:94:e7:ca:3d:13:ee:46:40:10:6a:d0:
        28:ef:e3:9d:20:07:5d:1c:80:74:47:44:d3:ca:c9:92:8d:ac:
        7e:ab:46:11:8d:bf:ca:df:72:7d:24:1a:54:d6:50:40:d1:ff:
        60:17:d8:43:f2:a6:5b:50:80:00:bb:c0:d9:12:94:bb:c3:8c:
        20:26:00:da:3a:2d:af:31:bc:66:dc:e6:85:99:92:ca:d5:4b:
        04:8a:72:53:0a:22:36:69:9b:40:f0:7a:62:55:61:0c:83:9c:
        ca:08:d9:d3:e0:d4:ee:58:03:be:8e:86:53:7e:b5:5e:35:a1:
        8c:80:c1:fa:34:f0:3d:63:5d:af:7b:98:06:af:66:41:a0:4e:
        f1:8e:42:04:33:99:fd:fd:d2:cd:76:cd:51:7a:2d:d2:e3:53:
        f8:14:21:36:7d:fb:ac:d1:f7:ef:e1:87:47:05:a9:5b:61:68:
        9b:ef:3d:3f:29:4d:93:a9:4a:c4:db:34:47:54:29:fa:4a:e2:
        88:81:4c:bd:c3:b6:63:c1:07:7a:88:3b:11:5e:32:e7:f4:d5:
        ef:fc:cc:c7
-----BEGIN CERTIFICATE-----
MIIDdDCCAlygAwIBAgIRAOkrTRoJFZWPyiXmqGFdRKgwDQYJKoZIhvcNAQELBQAw
FTETMBEGA1UEAwwKdGVhbTU3LW5ldDAeFw0yMzA0MjAwMDExMTZaFw0yNjA0MDQw
MDExMTZaMBgxFjAUBgNVBAMMDXRlYW01Ny1zZXJ2ZXIwggEiMA0GCSqGSIb3DQEB
AQUAA4IBDwAwggEKAoIBAQDRTlnP0JnpcoPW2tpWBDuzt34gRxvWYCIRl36n2Ffv
XhSQpEa1m8byZyx6zGBVckKuRVjhsY5QyeC50cBeqiUwS2+TEgsqXQgtSAViCQvW
JQPuxl5BGJlWmf1287MPqq993vk9ZYk7+tKsq+j7TPTc8B+G4k1rgu+vHtbwAjQ5
j8LeHj+asPltHz2lrS6lsYRAfnHJ/LCqDBR5039+tFrMyLJtp0PsrNY4zYk9fdo5
iNuXH2jWshgCZal2Ia6aIU32r8v1G8XKeb2Cy7QZjir1jztd6CZjhxeC5pwJGa9U
+g2weEy0wfaf2Czb35Q9RqPbwG9/u5CoTewTpaQpbVs3AgMBAAGjgbswgbgwCQYD
VR0TBAIwADAdBgNVHQ4EFgQUkJQi0tbvADChv8mOzqRNvdNj0N8wUAYDVR0jBEkw
R4AUR7hdu94sFQcQsB67Xruku15CaGOhGaQXMBUxEzARBgNVBAMMCnRlYW01Ny1u
ZXSCFGB+/z1Xt1oJZN6ZxDzqJN15TQUiMBMGA1UdJQQMMAoGCCsGAQUFBwMBMAsG
A1UdDwQEAwIFoDAYBgNVHREEETAPgg10ZWFtNTctc2VydmVyMA0GCSqGSIb3DQEB
CwUAA4IBAQCKjgWahL6lTZNZSYweHlJSE9mvfFHahcUWpp4Y/aO4XqlZnEFQRrqz
+LsGlOfKPRPuRkAQatAo7+OdIAddHIB0R0TTysmSjax+q0YRjb/K33J9JBpU1lBA
0f9gF9hD8qZbUIAAu8DZEpS7w4wgJgDaOi2vMbxm3OaFmZLK1UsEinJTCiI2aZtA
8HpiVWEMg5zKCNnT4NTuWAO+joZTfrVeNaGMgMH6NPA9Y12ve5gGr2ZBoE7xjkIE
M5n9/dLNds1Rei3S41P4FCE2ffus0ffv4YdHBalbYWib7z0/KU2TqUrE2zRHVCn6
SuKIgUy9w7ZjwQd6iDsRXjLn9NXv/MzH
-----END CERTIFICATE-----
