Certificate:
    Data:
        Version: 3 (0x2)
        Serial Number:
            06:bb:bf:06:76:03:cc:43:5c:7f:00:9b:ab:f3:1e:22
        Signature Algorithm: sha256WithRSAEncryption
        Issuer: CN=team27-net
        Validity
            Not Before: Apr 20 22:54:05 2023 GMT
            Not After : Apr  4 22:54:05 2026 GMT
        Subject: CN=team27-client
        Subject Public Key Info:
            Public Key Algorithm: rsaEncryption
                Public-Key: (2048 bit)
                Modulus:
                    00:ad:17:74:4b:01:7c:e7:3c:00:3a:9e:80:eb:27:
                    76:e5:f1:73:9c:45:24:7d:d6:8f:50:ff:93:98:b4:
                    43:12:48:cb:3e:bb:c7:72:61:bd:00:df:f9:55:10:
                    63:db:18:e1:a8:8a:43:5c:26:27:42:ba:d3:f6:86:
                    b5:68:75:fb:3c:e9:4e:49:e4:e0:54:11:6b:80:60:
                    15:cd:ff:aa:b1:97:0c:d7:9a:63:17:92:be:67:2d:
                    a3:71:80:b4:b7:ab:59:7f:9a:cb:ec:e8:8c:d9:c9:
                    39:40:90:1c:28:ac:aa:15:65:25:ef:ac:08:f2:2e:
                    94:cd:68:0d:8d:33:75:07:54:e4:d8:cc:22:a5:86:
                    96:01:fa:31:30:0f:c0:4d:81:7a:f4:12:9d:10:97:
                    89:8f:be:43:5b:f6:1a:31:cf:c4:8e:dc:80:7c:36:
                    40:ec:25:29:0f:8f:a1:75:fb:47:78:00:17:45:57:
                    63:f1:e7:40:1c:38:1b:bb:90:11:8b:51:00:ea:14:
                    d4:49:36:be:5d:b3:c2:6f:e9:b1:40:63:67:53:ae:
                    56:ec:34:b3:75:59:68:47:a9:48:38:5a:44:21:40:
                    c5:53:2e:95:5e:fb:16:75:e8:58:a6:9c:3a:60:49:
                    55:43:47:23:e8:8a:3b:9c:eb:60:60:8a:19:b3:76:
                    0b:a7
                Exponent: 65537 (0x10001)
        X509v3 extensions:
            X509v3 Basic Constraints: 
                CA:FALSE
            X509v3 Subject Key Identifier: 
                89:75:D2:EE:7F:9D:C9:BE:91:A1:45:3B:91:AE:88:28:70:1F:89:0E
            X509v3 Authority Key Identifier: 
                keyid:A4:EC:E3:9C:97:0B:CA:90:91:D8:5C:74:03:C2:E1:CF:E2:62:BB:18
                DirName:/CN=team27-net
                serial:69:34:F1:FD:05:3F:16:EC:F1:A4:E0:D6:37:8B:D0:93:F8:41:57:3A
            X509v3 Extended Key Usage: 
                TLS Web Client Authentication
            X509v3 Key Usage: 
                Digital Signature
    Signature Algorithm: sha256WithRSAEncryption
    Signature Value:
        2a:7b:06:27:7b:1f:07:14:63:06:9f:82:5f:3d:4b:c5:e5:33:
        76:65:74:66:f2:4a:a1:ba:1b:8f:1e:30:4a:8a:28:78:04:b1:
        fc:e8:6d:36:cc:b1:75:f1:9f:ce:77:a0:79:5d:b9:ed:8f:a8:
        75:fd:1c:9b:62:bd:97:e7:69:3a:dd:5a:74:fc:29:aa:52:cd:
        67:d7:0c:cf:5b:c3:8b:a3:63:d1:5d:e0:f9:67:e0:02:ed:53:
        61:4c:ca:16:02:2a:d4:fc:cd:36:a8:c6:8b:fd:65:6a:28:ad:
        81:bd:21:dc:76:12:a3:71:09:71:1b:d3:11:cd:4a:58:20:64:
        ab:2f:f9:d6:2c:3c:25:9a:02:51:cc:0e:ab:73:47:06:1d:2b:
        7c:18:1f:53:31:69:24:11:b6:b8:90:a6:b6:ee:e1:a5:3f:0a:
        8b:94:c9:fc:4a:b6:a0:ea:62:3a:09:14:26:05:17:26:51:7e:
        14:6d:2f:88:c8:f7:c1:88:81:da:e5:1f:f7:ba:9e:80:2f:3d:
        dc:b3:59:56:3c:14:c0:da:ea:28:b4:d9:54:a8:ac:a2:8a:50:
        86:d5:50:eb:9b:44:13:97:dd:b9:b8:6e:68:28:b5:7c:3e:7e:
        a0:3e:a6:a1:f8:db:83:d3:d0:31:d1:06:c5:ea:33:c4:81:6b:
        1f:13:c8:3a
-----BEGIN CERTIFICATE-----
MIIDWTCCAkGgAwIBAgIQBru/BnYDzENcfwCbq/MeIjANBgkqhkiG9w0BAQsFADAV
MRMwEQYDVQQDDAp0ZWFtMjctbmV0MB4XDTIzMDQyMDIyNTQwNVoXDTI2MDQwNDIy
NTQwNVowGDEWMBQGA1UEAwwNdGVhbTI3LWNsaWVudDCCASIwDQYJKoZIhvcNAQEB
BQADggEPADCCAQoCggEBAK0XdEsBfOc8ADqegOsnduXxc5xFJH3Wj1D/k5i0QxJI
yz67x3JhvQDf+VUQY9sY4aiKQ1wmJ0K60/aGtWh1+zzpTknk4FQRa4BgFc3/qrGX
DNeaYxeSvmcto3GAtLerWX+ay+zojNnJOUCQHCisqhVlJe+sCPIulM1oDY0zdQdU
5NjMIqWGlgH6MTAPwE2BevQSnRCXiY++Q1v2GjHPxI7cgHw2QOwlKQ+PoXX7R3gA
F0VXY/HnQBw4G7uQEYtRAOoU1Ek2vl2zwm/psUBjZ1OuVuw0s3VZaEepSDhaRCFA
xVMulV77FnXoWKacOmBJVUNHI+iKO5zrYGCKGbN2C6cCAwEAAaOBoTCBnjAJBgNV
HRMEAjAAMB0GA1UdDgQWBBSJddLuf53JvpGhRTuRrogocB+JDjBQBgNVHSMESTBH
gBSk7OOclwvKkJHYXHQDwuHP4mK7GKEZpBcwFTETMBEGA1UEAwwKdGVhbTI3LW5l
dIIUaTTx/QU/FuzxpODWN4vQk/hBVzowEwYDVR0lBAwwCgYIKwYBBQUHAwIwCwYD
VR0PBAQDAgeAMA0GCSqGSIb3DQEBCwUAA4IBAQAqewYnex8HFGMGn4JfPUvF5TN2
ZXRm8kqhuhuPHjBKiih4BLH86G02zLF18Z/Od6B5Xbntj6h1/RybYr2X52k63Vp0
/CmqUs1n1wzPW8OLo2PRXeD5Z+AC7VNhTMoWAirU/M02qMaL/WVqKK2BvSHcdhKj
cQlxG9MRzUpYIGSrL/nWLDwlmgJRzA6rc0cGHSt8GB9TMWkkEba4kKa27uGlPwqL
lMn8Srag6mI6CRQmBRcmUX4UbS+IyPfBiIHa5R/3up6ALz3cs1lWPBTA2uootNlU
qKyiilCG1VDrm0QTl925uG5oKLV8Pn6gPqah+NuD09Ax0QbF6jPEgWsfE8g6
-----END CERTIFICATE-----
