Certificate:
    Data:
        Version: 3 (0x2)
        Serial Number:
            55:d3:2f:c5:03:d8:0c:9a:57:19:0b:96:f1:6f:be:1b
        Signature Algorithm: sha256WithRSAEncryption
        Issuer: CN=team25-net
        Validity
            Not Before: Apr 20 00:10:32 2023 GMT
            Not After : Apr  4 00:10:32 2026 GMT
        Subject: CN=team25-client
        Subject Public Key Info:
            Public Key Algorithm: rsaEncryption
                Public-Key: (2048 bit)
                Modulus:
                    00:c5:c8:6a:c8:8a:dd:b7:6d:a3:5f:0e:25:26:ae:
                    80:77:ed:4f:9e:8f:d8:b7:e6:01:c9:a2:8a:4d:a0:
                    39:37:90:56:2f:5c:6b:e4:cd:fb:b1:12:8c:1b:b3:
                    91:48:70:b2:9f:91:ad:97:bf:c4:4f:75:79:44:6d:
                    46:6a:49:4d:f2:2f:88:92:ba:31:6e:26:5f:3e:c3:
                    88:ea:bc:59:4d:0a:d2:f4:28:f9:98:fa:3f:b2:aa:
                    6a:ad:75:34:5e:eb:ae:50:d1:83:f9:58:fb:46:bb:
                    3d:9a:51:3d:4b:98:3e:3e:48:9e:cf:92:36:85:89:
                    bd:f0:58:8d:5f:ec:0d:ea:2a:b7:1d:7d:ac:85:77:
                    33:5a:43:2b:2e:b2:7c:54:ce:a6:4b:da:13:8a:ad:
                    73:7a:c1:bd:c4:87:ed:bc:a1:a7:28:24:3f:20:44:
                    26:27:23:59:45:ec:25:54:1d:64:c8:be:6c:76:55:
                    ce:80:c0:9b:f3:8f:4b:ca:fc:28:a7:40:a4:d5:09:
                    5d:1c:9e:b4:1d:c8:87:d0:d0:17:11:5c:78:0c:b9:
                    c3:57:a7:e6:95:6b:1e:65:c3:57:11:bd:01:84:db:
                    54:b9:05:e6:5e:a1:f1:5c:57:d3:eb:08:38:20:8a:
                    24:a3:06:a3:6b:b0:e6:dc:b5:e4:82:2b:3c:10:80:
                    03:f7
                Exponent: 65537 (0x10001)
        X509v3 extensions:
            X509v3 Basic Constraints: 
                CA:FALSE
            X509v3 Subject Key Identifier: 
                2F:71:F7:74:63:94:41:99:04:96:C2:B2:11:B5:F8:43:E3:DE:01:D4
            X509v3 Authority Key Identifier: 
                keyid:BE:66:C1:2F:A6:BC:45:97:37:45:26:39:90:7F:14:E2:EA:07:6E:CA
                DirName:/CN=team25-net
                serial:57:AB:A0:27:E5:76:B8:0C:4D:CE:F6:A6:57:10:41:65:CB:3B:20:4F
            X509v3 Extended Key Usage: 
                TLS Web Client Authentication
            X509v3 Key Usage: 
                Digital Signature
    Signature Algorithm: sha256WithRSAEncryption
    Signature Value:
        27:ff:cb:32:9a:39:74:4c:62:10:c7:f2:22:bc:f1:8d:76:2b:
        10:68:59:00:7f:62:f3:95:46:8e:1e:8a:1f:ff:59:32:12:eb:
        cb:6c:de:91:aa:9e:45:0c:3a:d5:4b:35:15:05:01:45:ab:06:
        b3:26:31:4b:ac:be:41:d8:07:29:b6:51:e1:0f:f4:79:5b:e6:
        c7:5d:d8:28:4f:1a:fc:04:1d:cb:63:5e:0c:64:48:b4:e1:65:
        ab:7a:44:a7:9f:51:14:e2:81:8c:cf:9d:f1:80:93:f2:a8:ca:
        1b:6e:97:17:4e:53:40:51:15:1f:ce:85:d5:e0:22:f8:ad:ea:
        48:2f:df:bf:b8:6d:81:22:c6:86:67:65:94:bd:e2:59:65:70:
        92:50:e7:31:d3:8d:8d:b0:6e:35:b8:1e:ce:51:98:ed:52:4e:
        c3:7f:9d:60:12:e6:65:54:34:4f:31:e7:53:ff:36:1e:f2:d3:
        df:d6:98:3c:5b:85:b5:81:5d:3c:8f:27:af:20:1f:92:e5:bb:
        98:47:6a:2c:b7:94:c9:4b:1b:b1:ad:ee:fe:90:3b:05:a7:c7:
        ec:ea:62:cb:4c:0d:77:38:8c:df:52:37:d0:27:9a:f9:33:66:
        cb:17:12:48:e2:6d:13:36:09:7a:40:eb:9a:ee:e1:36:0d:f8:
        cd:68:c8:39
-----BEGIN CERTIFICATE-----
MIIDWTCCAkGgAwIBAgIQVdMvxQPYDJpXGQuW8W++GzANBgkqhkiG9w0BAQsFADAV
MRMwEQYDVQQDDAp0ZWFtMjUtbmV0MB4XDTIzMDQyMDAwMTAzMloXDTI2MDQwNDAw
MTAzMlowGDEWMBQGA1UEAwwNdGVhbTI1LWNsaWVudDCCASIwDQYJKoZIhvcNAQEB
BQADggEPADCCAQoCggEBAMXIasiK3bdto18OJSaugHftT56P2LfmAcmiik2gOTeQ
Vi9ca+TN+7ESjBuzkUhwsp+RrZe/xE91eURtRmpJTfIviJK6MW4mXz7DiOq8WU0K
0vQo+Zj6P7Kqaq11NF7rrlDRg/lY+0a7PZpRPUuYPj5Ins+SNoWJvfBYjV/sDeoq
tx19rIV3M1pDKy6yfFTOpkvaE4qtc3rBvcSH7byhpygkPyBEJicjWUXsJVQdZMi+
bHZVzoDAm/OPS8r8KKdApNUJXRyetB3Ih9DQFxFceAy5w1en5pVrHmXDVxG9AYTb
VLkF5l6h8VxX0+sIOCCKJKMGo2uw5ty15IIrPBCAA/cCAwEAAaOBoTCBnjAJBgNV
HRMEAjAAMB0GA1UdDgQWBBQvcfd0Y5RBmQSWwrIRtfhD494B1DBQBgNVHSMESTBH
gBS+ZsEvprxFlzdFJjmQfxTi6gduyqEZpBcwFTETMBEGA1UEAwwKdGVhbTI1LW5l
dIIUV6ugJ+V2uAxNzvamVxBBZcs7IE8wEwYDVR0lBAwwCgYIKwYBBQUHAwIwCwYD
VR0PBAQDAgeAMA0GCSqGSIb3DQEBCwUAA4IBAQAn/8symjl0TGIQx/IivPGNdisQ
aFkAf2LzlUaOHoof/1kyEuvLbN6Rqp5FDDrVSzUVBQFFqwazJjFLrL5B2AcptlHh
D/R5W+bHXdgoTxr8BB3LY14MZEi04WWrekSnn1EU4oGMz53xgJPyqMobbpcXTlNA
URUfzoXV4CL4repIL9+/uG2BIsaGZ2WUveJZZXCSUOcx042NsG41uB7OUZjtUk7D
f51gEuZlVDRPMedT/zYe8tPf1pg8W4W1gV08jyevIB+S5buYR2ost5TJSxuxre7+
kDsFp8fs6mLLTA13OIzfUjfQJ5r5M2bLFxJI4m0TNgl6QOua7uE2DfjNaMg5
-----END CERTIFICATE-----
