Certificate:
    Data:
        Version: 3 (0x2)
        Serial Number:
            4c:0b:25:7e:40:d1:01:43:1f:70:0a:f9:65:84:d6:f0
        Signature Algorithm: sha256WithRSAEncryption
        Issuer: CN=team32-net
        Validity
            Not Before: Apr 20 22:54:14 2023 GMT
            Not After : Apr  4 22:54:14 2026 GMT
        Subject: CN=team32-client
        Subject Public Key Info:
            Public Key Algorithm: rsaEncryption
                Public-Key: (2048 bit)
                Modulus:
                    00:e6:fc:f5:18:30:ac:75:ab:7f:1a:b4:cc:bf:0b:
                    d3:a9:2c:a8:99:27:af:f4:5a:50:6a:e5:da:c8:e7:
                    10:3e:65:0a:3a:00:da:c5:bf:a2:10:f7:6c:fd:32:
                    24:10:f3:f7:6c:6c:31:9e:92:9a:66:8c:0c:88:db:
                    94:49:9a:88:ec:ba:74:86:3c:1e:f9:9d:b8:ed:d7:
                    d0:a3:be:d9:ae:e7:a0:5a:dd:7e:6a:93:f2:67:04:
                    2c:10:71:da:9c:5b:fb:5a:9a:cf:21:9e:c6:64:9b:
                    8c:26:62:11:e9:0b:9d:28:1a:b5:c9:aa:e4:ae:02:
                    04:40:85:d1:f8:a6:31:61:04:4c:96:88:51:6c:26:
                    9b:0c:b8:49:91:7c:58:42:99:b9:ad:7f:1b:67:ca:
                    e2:96:13:f2:53:69:2c:f8:16:dc:33:86:e2:5d:51:
                    5b:c5:b7:f9:e1:6f:2c:84:cf:3a:15:f2:7c:92:b8:
                    46:6e:36:22:6f:1a:2b:58:9d:b0:20:37:7a:a9:a3:
                    0f:ce:de:bd:dc:55:e7:86:a9:22:f7:58:fb:6b:cd:
                    9e:f1:3f:c6:eb:cd:82:18:70:a3:b4:ce:fb:56:10:
                    10:3b:b8:ea:e3:32:b8:93:94:4a:c2:36:2f:74:21:
                    1f:85:46:35:0d:6d:f3:ae:87:ed:4c:25:f1:a7:e0:
                    bf:25
                Exponent: 65537 (0x10001)
        X509v3 extensions:
            X509v3 Basic Constraints: 
                CA:FALSE
            X509v3 Subject Key Identifier: 
                14:B3:A3:2D:56:3B:31:84:33:53:61:1A:14:CF:9B:DD:94:79:D1:64
            X509v3 Authority Key Identifier: 
                keyid:43:3F:5A:48:D1:F1:54:17:02:08:24:C5:09:77:B7:BC:38:07:3B:74
                DirName:/CN=team32-net
                serial:76:6F:53:2B:E3:A9:94:66:71:67:50:4F:92:7C:E3:6E:F8:03:D7:CC
            X509v3 Extended Key Usage: 
                TLS Web Client Authentication
            X509v3 Key Usage: 
                Digital Signature
    Signature Algorithm: sha256WithRSAEncryption
    Signature Value:
        53:2f:9b:97:73:40:23:79:39:99:1f:52:10:98:23:02:0c:ee:
        d1:64:a1:43:ee:42:8f:ea:5a:82:18:54:ce:93:76:c6:73:5a:
        cc:45:2e:06:7a:77:f7:1e:97:02:f7:66:1a:30:46:ad:0d:36:
        82:ac:6a:f2:61:d6:c1:98:a7:f7:ef:e2:41:e0:0e:fe:2e:59:
        c0:82:1f:6e:16:5d:c5:b1:c3:49:db:51:60:6c:c1:20:fe:e4:
        67:f1:cb:4b:f9:cc:a8:9d:cc:7f:f5:e2:7d:0c:49:12:d6:f7:
        13:1e:92:aa:e6:4d:fb:22:a7:02:a5:96:0a:1d:f4:3c:07:dd:
        40:9b:7b:b6:26:58:21:7e:66:09:7a:0d:da:0d:ad:21:62:f2:
        7d:e3:24:d6:32:f4:a0:b3:65:f5:77:a6:c2:c3:69:54:91:ac:
        9a:dc:de:f1:e2:b1:5e:ad:6b:62:20:f8:02:7c:8c:3f:ce:50:
        69:a8:8b:f1:46:3a:18:b1:4c:1d:80:1a:e0:a1:87:61:ef:02:
        d1:fe:8d:39:3c:fd:3c:30:22:3c:e5:c2:69:7d:b2:4e:0d:ff:
        5c:79:40:5f:e7:81:09:c9:94:80:09:63:b1:80:0d:fa:5a:cd:
        8b:77:84:88:b9:82:51:61:e0:23:79:c6:45:c4:26:18:c7:93:
        db:d3:59:96
-----BEGIN CERTIFICATE-----
MIIDWTCCAkGgAwIBAgIQTAslfkDRAUMfcAr5ZYTW8DANBgkqhkiG9w0BAQsFADAV
MRMwEQYDVQQDDAp0ZWFtMzItbmV0MB4XDTIzMDQyMDIyNTQxNFoXDTI2MDQwNDIy
NTQxNFowGDEWMBQGA1UEAwwNdGVhbTMyLWNsaWVudDCCASIwDQYJKoZIhvcNAQEB
BQADggEPADCCAQoCggEBAOb89RgwrHWrfxq0zL8L06ksqJknr/RaUGrl2sjnED5l
CjoA2sW/ohD3bP0yJBDz92xsMZ6SmmaMDIjblEmaiOy6dIY8HvmduO3X0KO+2a7n
oFrdfmqT8mcELBBx2pxb+1qazyGexmSbjCZiEekLnSgatcmq5K4CBECF0fimMWEE
TJaIUWwmmwy4SZF8WEKZua1/G2fK4pYT8lNpLPgW3DOG4l1RW8W3+eFvLITPOhXy
fJK4Rm42Im8aK1idsCA3eqmjD87evdxV54apIvdY+2vNnvE/xuvNghhwo7TO+1YQ
EDu46uMyuJOUSsI2L3QhH4VGNQ1t866H7Uwl8afgvyUCAwEAAaOBoTCBnjAJBgNV
HRMEAjAAMB0GA1UdDgQWBBQUs6MtVjsxhDNTYRoUz5vdlHnRZDBQBgNVHSMESTBH
gBRDP1pI0fFUFwIIJMUJd7e8OAc7dKEZpBcwFTETMBEGA1UEAwwKdGVhbTMyLW5l
dIIUdm9TK+OplGZxZ1BPknzjbvgD18wwEwYDVR0lBAwwCgYIKwYBBQUHAwIwCwYD
VR0PBAQDAgeAMA0GCSqGSIb3DQEBCwUAA4IBAQBTL5uXc0AjeTmZH1IQmCMCDO7R
ZKFD7kKP6lqCGFTOk3bGc1rMRS4Genf3HpcC92YaMEatDTaCrGryYdbBmKf37+JB
4A7+LlnAgh9uFl3FscNJ21FgbMEg/uRn8ctL+cyoncx/9eJ9DEkS1vcTHpKq5k37
IqcCpZYKHfQ8B91Am3u2JlghfmYJeg3aDa0hYvJ94yTWMvSgs2X1d6bCw2lUkaya
3N7x4rFerWtiIPgCfIw/zlBpqIvxRjoYsUwdgBrgoYdh7wLR/o05PP08MCI85cJp
fbJODf9ceUBf54EJyZSACWOxgA36Ws2Ld4SIuYJRYeAjecZFxCYYx5Pb01mW
-----END CERTIFICATE-----
