Certificate:
    Data:
        Version: 3 (0x2)
        Serial Number:
            7d:e4:c6:30:79:04:ec:00:f2:e6:56:95:46:a5:db:0a
        Signature Algorithm: sha256WithRSAEncryption
        Issuer: CN=team32-net
        Validity
            Not Before: Apr 20 22:54:15 2023 GMT
            Not After : Apr  4 22:54:15 2026 GMT
        Subject: CN=team32-server
        Subject Public Key Info:
            Public Key Algorithm: rsaEncryption
                Public-Key: (2048 bit)
                Modulus:
                    00:89:8d:2b:e6:b4:8f:af:7f:38:3e:4e:36:9c:01:
                    22:8b:e6:1c:d2:e7:da:0e:ec:e9:ef:1d:b3:70:0f:
                    15:5a:cf:b1:15:ae:76:f7:74:0e:e6:8b:e9:c5:11:
                    b6:07:b5:f8:12:5a:b0:8d:ba:21:46:54:8a:e3:81:
                    e0:b4:49:0f:78:a7:d3:65:e9:36:c7:74:50:8e:4c:
                    e3:98:8e:a3:7c:e8:fb:2b:96:14:08:96:77:b1:32:
                    d5:98:bc:2d:e5:37:48:b5:08:0b:35:e4:1d:f6:e9:
                    c4:54:ed:85:ba:5f:53:e4:04:38:09:8f:03:b7:a1:
                    bf:e8:ea:a5:25:44:74:2b:7e:c7:25:cc:75:f5:83:
                    3f:0d:f3:6a:02:b2:36:0b:dc:29:ca:dd:f7:13:ad:
                    ad:b9:07:95:bb:ee:14:16:38:81:b8:44:f9:d7:7e:
                    c4:bb:db:80:44:cb:b0:e9:73:2a:4b:2f:2d:ef:f2:
                    92:96:bc:d0:ec:07:c4:b5:3f:66:1b:e0:3e:7d:47:
                    1b:e0:90:db:6c:7f:01:fe:70:85:d6:25:56:73:f5:
                    9d:28:25:af:e8:4b:bc:5c:99:e9:fa:4b:75:40:1c:
                    56:5b:62:c5:21:d4:2f:b2:6a:f1:46:7f:3c:ec:f4:
                    f2:52:f2:01:29:ee:ef:3e:4b:c7:4b:43:11:e8:20:
                    9b:5d
                Exponent: 65537 (0x10001)
        X509v3 extensions:
            X509v3 Basic Constraints: 
                CA:FALSE
            X509v3 Subject Key Identifier: 
                AF:89:35:54:5D:E9:8F:E4:33:43:CB:F7:1D:03:84:89:66:86:22:57
            X509v3 Authority Key Identifier: 
                keyid:43:3F:5A:48:D1:F1:54:17:02:08:24:C5:09:77:B7:BC:38:07:3B:74
                DirName:/CN=team32-net
                serial:76:6F:53:2B:E3:A9:94:66:71:67:50:4F:92:7C:E3:6E:F8:03:D7:CC
            X509v3 Extended Key Usage: 
                TLS Web Server Authentication
            X509v3 Key Usage: 
                Digital Signature, Key Encipherment
            X509v3 Subject Alternative Name: 
                DNS:team32-server
    Signature Algorithm: sha256WithRSAEncryption
    Signature Value:
        15:51:e5:24:5b:a7:48:8b:15:1b:40:24:59:c3:b8:74:37:c4:
        6b:da:12:8c:35:e7:e5:bb:e6:74:10:6c:b5:21:40:50:13:ca:
        b1:1e:92:8a:b9:2b:b9:aa:79:fd:20:67:6c:cf:4a:24:78:59:
        18:1a:9c:04:0f:ad:67:06:a6:87:f3:95:94:10:d4:2f:e6:e6:
        ed:75:bf:64:c8:cf:e8:6f:06:d4:49:d9:51:7f:35:fb:6c:e9:
        11:ce:55:00:28:01:c2:d4:f1:57:b7:d0:1c:5a:75:ec:b2:48:
        50:67:93:ab:8f:5f:4a:08:20:76:f6:5a:03:e3:c9:31:88:6a:
        37:c1:12:62:0f:c2:bc:d8:da:3a:fc:49:af:4c:84:74:e1:0f:
        df:17:7a:60:65:e1:5f:2b:95:bc:a9:8f:46:54:37:ca:de:d7:
        86:c3:23:88:3f:e1:0e:05:fa:5c:f5:8c:89:be:f6:fa:15:ca:
        4f:da:da:95:de:6e:9d:80:c2:d4:d9:ef:84:dc:7d:2d:67:56:
        57:21:e4:6e:02:d6:20:f5:8e:e7:f9:67:49:31:9f:71:f4:da:
        d5:c7:3b:02:cb:da:a1:13:9a:c5:70:f2:f3:3f:fb:d7:e0:36:
        b0:b0:e5:ce:41:27:af:b0:45:8f:71:a0:e6:cc:15:ae:b9:a3:
        21:5f:2b:5e
-----BEGIN CERTIFICATE-----
MIIDczCCAlugAwIBAgIQfeTGMHkE7ADy5laVRqXbCjANBgkqhkiG9w0BAQsFADAV
MRMwEQYDVQQDDAp0ZWFtMzItbmV0MB4XDTIzMDQyMDIyNTQxNVoXDTI2MDQwNDIy
NTQxNVowGDEWMBQGA1UEAwwNdGVhbTMyLXNlcnZlcjCCASIwDQYJKoZIhvcNAQEB
BQADggEPADCCAQoCggEBAImNK+a0j69/OD5ONpwBIovmHNLn2g7s6e8ds3APFVrP
sRWudvd0DuaL6cURtge1+BJasI26IUZUiuOB4LRJD3in02XpNsd0UI5M45iOo3zo
+yuWFAiWd7Ey1Zi8LeU3SLUICzXkHfbpxFTthbpfU+QEOAmPA7ehv+jqpSVEdCt+
xyXMdfWDPw3zagKyNgvcKcrd9xOtrbkHlbvuFBY4gbhE+dd+xLvbgETLsOlzKksv
Le/ykpa80OwHxLU/ZhvgPn1HG+CQ22x/Af5whdYlVnP1nSglr+hLvFyZ6fpLdUAc
VltixSHUL7Jq8UZ/POz08lLyASnu7z5Lx0tDEeggm10CAwEAAaOBuzCBuDAJBgNV
HRMEAjAAMB0GA1UdDgQWBBSviTVUXemP5DNDy/cdA4SJZoYiVzBQBgNVHSMESTBH
gBRDP1pI0fFUFwIIJMUJd7e8OAc7dKEZpBcwFTETMBEGA1UEAwwKdGVhbTMyLW5l
dIIUdm9TK+OplGZxZ1BPknzjbvgD18wwEwYDVR0lBAwwCgYIKwYBBQUHAwEwCwYD
VR0PBAQDAgWgMBgGA1UdEQQRMA+CDXRlYW0zMi1zZXJ2ZXIwDQYJKoZIhvcNAQEL
BQADggEBABVR5SRbp0iLFRtAJFnDuHQ3xGvaEow15+W75nQQbLUhQFATyrEekoq5
K7mqef0gZ2zPSiR4WRganAQPrWcGpofzlZQQ1C/m5u11v2TIz+hvBtRJ2VF/Nfts
6RHOVQAoAcLU8Ve30BxadeyySFBnk6uPX0oIIHb2WgPjyTGIajfBEmIPwrzY2jr8
Sa9MhHThD98XemBl4V8rlbypj0ZUN8re14bDI4g/4Q4F+lz1jIm+9voVyk/a2pXe
bp2AwtTZ74TcfS1nVlch5G4C1iD1juf5Z0kxn3H02tXHOwLL2qETmsVw8vM/+9fg
NrCw5c5BJ6+wRY9xoObMFa65oyFfK14=
-----END CERTIFICATE-----
