Certificate:
    Data:
        Version: 3 (0x2)
        Serial Number:
            7a:c9:5d:89:56:1c:6a:24:ea:00:0a:ac:64:1d:c8:7e
        Signature Algorithm: sha256WithRSAEncryption
        Issuer: CN=team54-net
        Validity
            Not Before: Apr 20 00:11:12 2023 GMT
            Not After : Apr  4 00:11:12 2026 GMT
        Subject: CN=team54-client
        Subject Public Key Info:
            Public Key Algorithm: rsaEncryption
                Public-Key: (2048 bit)
                Modulus:
                    00:c0:01:4a:e0:c1:65:a1:6a:0a:6e:30:48:c8:ef:
                    a8:0c:17:71:67:05:e7:dd:63:72:f0:1d:3d:69:8f:
                    7f:8f:a7:8b:ff:de:25:5b:3e:25:f8:63:4c:05:92:
                    43:4f:30:54:6e:b4:6c:a6:f7:d2:30:10:94:f1:96:
                    21:6b:69:ee:07:ff:10:df:f7:bf:90:be:9a:c3:99:
                    de:20:84:fc:a0:6d:4f:2b:89:f8:af:80:c6:81:ff:
                    53:77:77:a6:e3:ba:cc:5f:e8:63:2e:33:e1:c3:1a:
                    d0:73:36:4c:af:9c:20:99:ad:02:a4:61:41:8c:3c:
                    1b:4e:03:29:a3:2d:1e:b5:a7:6a:73:ec:f2:b7:91:
                    8f:16:b2:06:ca:32:69:75:b5:5f:83:9d:44:9c:6f:
                    a3:60:98:03:2f:59:89:db:f7:fa:35:87:49:33:95:
                    f1:92:49:08:a0:d4:96:66:30:f6:84:e4:86:3a:32:
                    ad:cc:e3:90:2b:39:c2:db:be:06:74:3e:4e:8a:f6:
                    7d:17:7c:46:b8:7f:4f:0f:7e:4c:92:b2:fb:51:02:
                    aa:9f:bb:cf:d7:00:f4:7e:6d:8b:2c:ad:d0:82:93:
                    15:96:eb:4a:c7:22:ca:fe:6f:39:42:c2:ff:9e:73:
                    4d:96:44:7f:7e:79:d1:36:1a:3a:f5:9a:f2:d0:be:
                    01:53
                Exponent: 65537 (0x10001)
        X509v3 extensions:
            X509v3 Basic Constraints: 
                CA:FALSE
            X509v3 Subject Key Identifier: 
                02:4A:52:1F:48:A9:CA:8D:48:0C:3D:BD:3A:F0:B8:6F:6E:D5:85:26
            X509v3 Authority Key Identifier: 
                keyid:5D:CF:5D:06:74:58:C7:A8:6D:66:9E:11:E7:5C:8F:D0:1C:03:06:B5
                DirName:/CN=team54-net
                serial:38:9C:22:75:07:E7:A0:60:AD:B8:6B:66:DE:3D:1C:E3:86:AF:D6:99
            X509v3 Extended Key Usage: 
                TLS Web Client Authentication
            X509v3 Key Usage: 
                Digital Signature
    Signature Algorithm: sha256WithRSAEncryption
    Signature Value:
        81:1c:c3:f5:81:a1:ff:64:ed:c3:64:d8:aa:a5:df:53:57:a6:
        b2:4b:5f:17:cf:d2:9c:08:a3:c1:c8:79:5d:71:0c:e5:1a:09:
        d3:ac:c0:60:c5:17:11:79:9d:d6:76:7e:7d:72:40:25:1e:86:
        72:2f:c6:62:cd:58:cd:78:bc:7d:c9:b5:e5:3e:44:be:a3:90:
        f4:9a:af:1e:ff:f9:6e:67:28:9d:92:f9:33:3c:70:1a:e9:e7:
        8f:52:b9:bd:b2:ae:1f:ca:ae:5e:59:5a:5d:c2:ba:20:28:92:
        1e:07:fc:d3:e8:16:76:12:a4:34:c9:3f:82:f9:57:e8:85:2c:
        1a:cf:6c:06:d2:b2:34:1a:ae:be:e9:90:ec:df:94:84:a6:6a:
        c6:be:30:85:62:9b:87:0e:1b:00:10:b4:cc:e7:b1:c5:1b:37:
        47:92:65:d1:28:d4:7a:69:a2:d2:6e:64:7d:fa:2c:0e:7b:62:
        9f:f5:47:48:a5:48:4d:91:45:59:82:9c:88:48:90:2b:b0:2b:
        b5:cc:73:40:b4:61:5e:39:a5:60:24:3a:c1:10:fb:41:49:47:
        21:ef:24:47:42:57:d0:39:a5:bc:11:62:df:4f:4d:6c:8a:a2:
        8c:a0:07:0b:9d:2d:2a:3f:53:61:35:8f:a9:cd:93:10:5c:d6:
        da:d3:5a:d6
-----BEGIN CERTIFICATE-----
MIIDWTCCAkGgAwIBAgIQesldiVYcaiTqAAqsZB3IfjANBgkqhkiG9w0BAQsFADAV
MRMwEQYDVQQDDAp0ZWFtNTQtbmV0MB4XDTIzMDQyMDAwMTExMloXDTI2MDQwNDAw
MTExMlowGDEWMBQGA1UEAwwNdGVhbTU0LWNsaWVudDCCASIwDQYJKoZIhvcNAQEB
BQADggEPADCCAQoCggEBAMABSuDBZaFqCm4wSMjvqAwXcWcF591jcvAdPWmPf4+n
i//eJVs+JfhjTAWSQ08wVG60bKb30jAQlPGWIWtp7gf/EN/3v5C+msOZ3iCE/KBt
TyuJ+K+AxoH/U3d3puO6zF/oYy4z4cMa0HM2TK+cIJmtAqRhQYw8G04DKaMtHrWn
anPs8reRjxayBsoyaXW1X4OdRJxvo2CYAy9Zidv3+jWHSTOV8ZJJCKDUlmYw9oTk
hjoyrczjkCs5wtu+BnQ+Tor2fRd8Rrh/Tw9+TJKy+1ECqp+7z9cA9H5tiyyt0IKT
FZbrSsciyv5vOULC/55zTZZEf3550TYaOvWa8tC+AVMCAwEAAaOBoTCBnjAJBgNV
HRMEAjAAMB0GA1UdDgQWBBQCSlIfSKnKjUgMPb068LhvbtWFJjBQBgNVHSMESTBH
gBRdz10GdFjHqG1mnhHnXI/QHAMGtaEZpBcwFTETMBEGA1UEAwwKdGVhbTU0LW5l
dIIUOJwidQfnoGCtuGtm3j0c44av1pkwEwYDVR0lBAwwCgYIKwYBBQUHAwIwCwYD
VR0PBAQDAgeAMA0GCSqGSIb3DQEBCwUAA4IBAQCBHMP1gaH/ZO3DZNiqpd9TV6ay
S18Xz9KcCKPByHldcQzlGgnTrMBgxRcReZ3Wdn59ckAlHoZyL8ZizVjNeLx9ybXl
PkS+o5D0mq8e//luZyidkvkzPHAa6eePUrm9sq4fyq5eWVpdwrogKJIeB/zT6BZ2
EqQ0yT+C+VfohSwaz2wG0rI0Gq6+6ZDs35SEpmrGvjCFYpuHDhsAELTM57HFGzdH
kmXRKNR6aaLSbmR9+iwOe2Kf9UdIpUhNkUVZgpyISJArsCu1zHNAtGFeOaVgJDrB
EPtBSUch7yRHQlfQOaW8EWLfT01siqKMoAcLnS0qP1NhNY+pzZMQXNba01rW
-----END CERTIFICATE-----
