Certificate:
    Data:
        Version: 3 (0x2)
        Serial Number:
            8f:ed:3e:40:6b:d6:16:a4:6c:12:fa:ca:ba:b6:67:d3
        Signature Algorithm: sha256WithRSAEncryption
        Issuer: CN=team54-net
        Validity
            Not Before: Apr 20 22:54:50 2023 GMT
            Not After : Apr  4 22:54:50 2026 GMT
        Subject: CN=team54-client
        Subject Public Key Info:
            Public Key Algorithm: rsaEncryption
                Public-Key: (2048 bit)
                Modulus:
                    00:cc:e9:a0:f7:19:66:db:b0:e0:2a:49:f9:e5:0a:
                    95:55:61:c7:ab:73:79:7e:93:07:ee:98:24:4d:4c:
                    73:83:19:f3:06:f7:5f:ff:21:1c:e1:e4:34:15:0b:
                    23:6f:d1:a8:14:23:a8:b5:b1:b2:d9:b3:e8:3a:01:
                    5a:3a:67:35:8b:17:15:60:c7:b3:0e:c5:8f:5c:25:
                    e4:e1:77:b1:51:fa:7e:c6:47:35:0b:58:7e:15:40:
                    9c:80:fb:e7:bd:f4:01:6b:ec:2f:85:01:2f:b7:6d:
                    43:08:d4:6a:18:9f:e6:9a:e1:27:90:97:f0:bd:76:
                    81:5d:ae:ee:aa:93:a7:06:f8:1d:99:2c:69:90:f5:
                    e6:82:0f:e4:95:82:ba:8b:0c:db:0c:2e:6c:cd:68:
                    a7:e0:72:0b:7c:a4:40:df:71:91:72:43:d2:ba:c1:
                    02:5c:1f:79:b5:a4:8e:f4:7b:89:16:09:c4:12:09:
                    a4:cc:67:23:7b:f4:a5:b0:62:dd:ed:77:9d:6a:94:
                    b5:c7:39:e9:f1:50:ac:f9:20:53:24:81:03:a0:31:
                    9b:fc:cc:80:1a:35:9b:fb:18:39:f5:6e:9b:e0:2b:
                    84:8e:9a:b4:7f:54:61:43:6c:cb:3c:cd:20:3f:97:
                    12:02:9e:e1:11:7a:2d:3a:c6:89:68:95:fe:e1:8b:
                    b5:4d
                Exponent: 65537 (0x10001)
        X509v3 extensions:
            X509v3 Basic Constraints: 
                CA:FALSE
            X509v3 Subject Key Identifier: 
                43:B6:77:CD:2C:2A:28:12:4F:AF:C6:C7:34:D4:8B:46:00:C6:CF:6F
            X509v3 Authority Key Identifier: 
                keyid:46:E2:C5:0C:D7:EC:D9:5E:19:4D:50:25:6A:9B:03:82:9B:B6:29:14
                DirName:/CN=team54-net
                serial:73:B0:AD:1A:92:B6:16:6F:39:60:AF:F2:80:27:B5:27:DA:E8:89:B1
            X509v3 Extended Key Usage: 
                TLS Web Client Authentication
            X509v3 Key Usage: 
                Digital Signature
    Signature Algorithm: sha256WithRSAEncryption
    Signature Value:
        6e:1f:8f:28:d0:b5:b8:72:74:7d:83:1c:4c:3c:ab:04:7d:96:
        c4:ee:b1:05:5b:7d:e6:84:25:23:0f:22:a1:88:e1:d9:4d:1f:
        3e:49:40:75:01:b5:d3:21:fb:24:79:64:fe:cc:30:75:2f:f9:
        56:88:8f:1d:5d:f3:fb:bb:41:bf:68:9c:80:93:a2:ce:50:12:
        76:31:8f:ae:75:a6:49:ab:fe:77:ea:f6:4a:f1:f6:e9:30:7b:
        f4:1d:e4:49:dc:5c:55:21:c8:c8:1c:c8:e6:03:14:c9:6b:5b:
        7a:ad:81:7e:48:3b:bf:23:4b:91:3e:47:26:d5:0f:49:ce:76:
        37:25:cb:4a:82:d0:82:99:a9:ff:52:aa:07:1c:0a:59:35:fc:
        81:11:ad:bf:1e:0e:06:5c:f5:ef:44:6b:24:a7:f7:79:59:da:
        ea:3c:86:db:0b:40:fb:93:4a:6d:14:ec:b1:f3:d3:8a:a5:a1:
        c0:d5:d0:26:13:48:06:7c:27:8c:46:df:58:4e:19:95:55:95:
        40:22:20:c3:70:2a:c3:3d:17:2c:5b:20:64:4c:ba:5f:81:47:
        12:71:f9:d5:cd:d8:f5:92:f0:5c:67:7e:a0:79:c2:25:cc:79:
        79:f2:b5:07:e2:9e:d6:26:14:e9:84:cb:42:79:83:b5:42:8c:
        de:a4:8d:58
-----BEGIN CERTIFICATE-----
MIIDWjCCAkKgAwIBAgIRAI/tPkBr1hakbBL6yrq2Z9MwDQYJKoZIhvcNAQELBQAw
FTETMBEGA1UEAwwKdGVhbTU0LW5ldDAeFw0yMzA0MjAyMjU0NTBaFw0yNjA0MDQy
MjU0NTBaMBgxFjAUBgNVBAMMDXRlYW01NC1jbGllbnQwggEiMA0GCSqGSIb3DQEB
AQUAA4IBDwAwggEKAoIBAQDM6aD3GWbbsOAqSfnlCpVVYcerc3l+kwfumCRNTHOD
GfMG91//IRzh5DQVCyNv0agUI6i1sbLZs+g6AVo6ZzWLFxVgx7MOxY9cJeThd7FR
+n7GRzULWH4VQJyA++e99AFr7C+FAS+3bUMI1GoYn+aa4SeQl/C9doFdru6qk6cG
+B2ZLGmQ9eaCD+SVgrqLDNsMLmzNaKfgcgt8pEDfcZFyQ9K6wQJcH3m1pI70e4kW
CcQSCaTMZyN79KWwYt3td51qlLXHOenxUKz5IFMkgQOgMZv8zIAaNZv7GDn1bpvg
K4SOmrR/VGFDbMs8zSA/lxICnuERei06xololf7hi7VNAgMBAAGjgaEwgZ4wCQYD
VR0TBAIwADAdBgNVHQ4EFgQUQ7Z3zSwqKBJPr8bHNNSLRgDGz28wUAYDVR0jBEkw
R4AURuLFDNfs2V4ZTVAlapsDgpu2KRShGaQXMBUxEzARBgNVBAMMCnRlYW01NC1u
ZXSCFHOwrRqSthZvOWCv8oAntSfa6ImxMBMGA1UdJQQMMAoGCCsGAQUFBwMCMAsG
A1UdDwQEAwIHgDANBgkqhkiG9w0BAQsFAAOCAQEAbh+PKNC1uHJ0fYMcTDyrBH2W
xO6xBVt95oQlIw8ioYjh2U0fPklAdQG10yH7JHlk/swwdS/5VoiPHV3z+7tBv2ic
gJOizlASdjGPrnWmSav+d+r2SvH26TB79B3kSdxcVSHIyBzI5gMUyWtbeq2Bfkg7
vyNLkT5HJtUPSc52NyXLSoLQgpmp/1KqBxwKWTX8gRGtvx4OBlz170RrJKf3eVna
6jyG2wtA+5NKbRTssfPTiqWhwNXQJhNIBnwnjEbfWE4ZlVWVQCIgw3Aqwz0XLFsg
ZEy6X4FHEnH51c3Y9ZLwXGd+oHnCJcx5efK1B+Ke1iYU6YTLQnmDtUKM3qSNWA==
-----END CERTIFICATE-----
