Certificate:
    Data:
        Version: 3 (0x2)
        Serial Number:
            c8:18:4b:0b:a2:42:0a:78:ae:a2:61:81:4b:4a:da:dd
        Signature Algorithm: sha256WithRSAEncryption
        Issuer: CN=team54-net
        Validity
            Not Before: Apr 20 22:54:51 2023 GMT
            Not After : Apr  4 22:54:51 2026 GMT
        Subject: CN=team54-server
        Subject Public Key Info:
            Public Key Algorithm: rsaEncryption
                Public-Key: (2048 bit)
                Modulus:
                    00:c9:2d:54:e2:ce:f9:e3:42:d8:12:39:1f:2a:da:
                    ef:61:b5:bf:e8:73:1b:a7:fc:3a:34:1b:df:38:55:
                    c7:6d:25:b0:55:9d:58:9e:61:b0:ae:01:3c:1b:17:
                    8c:2c:d6:56:d3:7d:de:3b:61:0d:8b:54:5f:d9:be:
                    61:4f:ab:87:7a:2b:7c:2e:5b:57:d5:63:7b:b1:d7:
                    76:20:d6:72:a1:8d:02:ce:69:25:10:d9:d7:ff:cd:
                    7e:1a:d7:e4:21:f6:97:53:21:4f:2d:94:2d:85:fc:
                    34:6f:75:60:fd:3a:1f:d3:84:74:f1:fe:5d:ef:87:
                    b6:89:06:46:db:d1:37:83:21:76:5b:7a:01:45:2a:
                    3b:43:32:96:70:35:12:90:06:53:e5:e7:2c:e0:ca:
                    7b:80:cb:82:5b:e2:ee:06:d8:27:2a:09:49:c4:91:
                    1a:08:e2:b7:24:4a:99:a7:e1:86:55:1c:40:36:04:
                    b3:50:5b:12:23:62:15:77:2d:7d:00:ff:69:8b:86:
                    14:fd:ef:15:db:b4:ba:9d:07:19:be:b7:f6:c4:da:
                    53:d7:42:69:01:62:e4:40:83:70:2d:b5:92:09:ac:
                    66:3e:a6:ee:30:36:20:70:52:40:50:72:65:10:7d:
                    00:98:92:0e:43:9d:10:f0:a6:57:23:3d:3c:3a:e0:
                    89:37
                Exponent: 65537 (0x10001)
        X509v3 extensions:
            X509v3 Basic Constraints: 
                CA:FALSE
            X509v3 Subject Key Identifier: 
                4D:12:9D:10:F4:34:5D:D8:5B:BF:FE:3E:E6:9E:C5:0C:3C:7D:C7:9F
            X509v3 Authority Key Identifier: 
                keyid:46:E2:C5:0C:D7:EC:D9:5E:19:4D:50:25:6A:9B:03:82:9B:B6:29:14
                DirName:/CN=team54-net
                serial:73:B0:AD:1A:92:B6:16:6F:39:60:AF:F2:80:27:B5:27:DA:E8:89:B1
            X509v3 Extended Key Usage: 
                TLS Web Server Authentication
            X509v3 Key Usage: 
                Digital Signature, Key Encipherment
            X509v3 Subject Alternative Name: 
                DNS:team54-server
    Signature Algorithm: sha256WithRSAEncryption
    Signature Value:
        49:88:a1:a6:dc:f4:af:af:b9:b3:0a:14:28:99:46:28:f6:24:
        8e:7d:14:4c:ac:d9:6d:21:99:f5:e4:a1:cd:c5:f1:b7:82:9e:
        ff:65:80:4f:52:02:c1:32:2e:b4:c6:1e:22:16:9d:d0:a8:7e:
        d3:e1:79:54:a7:6c:2e:45:a6:bb:d4:14:7c:57:da:1e:8d:32:
        32:53:b1:2f:5a:e6:a8:0f:83:4d:48:48:11:4f:f0:d0:d5:29:
        1f:3a:2e:3f:2e:2b:58:c6:f5:73:b7:16:5f:d1:4d:c7:d6:b7:
        e8:d2:f1:df:28:e8:2a:91:e0:b9:8c:9f:3b:29:57:55:42:e4:
        c6:f5:44:14:c0:18:50:30:98:96:4d:6e:eb:33:c1:19:17:cd:
        12:20:f1:49:0d:c2:0f:b9:58:4b:c5:dd:ca:38:6d:fa:52:37:
        de:64:21:57:2f:83:22:c8:18:c6:95:98:9f:0b:4d:31:2c:da:
        5b:2b:d2:d8:b2:54:9a:a6:5d:e4:f9:18:78:c7:f6:ea:85:52:
        a0:48:eb:bf:c5:7d:14:c5:c6:0f:37:e6:08:5e:fc:5a:95:36:
        87:5d:9b:26:72:d4:cb:99:84:ff:42:dd:a0:0a:30:27:f3:b2:
        ed:78:2f:e2:d9:a9:5e:1b:68:35:90:7b:5d:02:41:c9:44:13:
        69:bf:f9:32
-----BEGIN CERTIFICATE-----
MIIDdDCCAlygAwIBAgIRAMgYSwuiQgp4rqJhgUtK2t0wDQYJKoZIhvcNAQELBQAw
FTETMBEGA1UEAwwKdGVhbTU0LW5ldDAeFw0yMzA0MjAyMjU0NTFaFw0yNjA0MDQy
MjU0NTFaMBgxFjAUBgNVBAMMDXRlYW01NC1zZXJ2ZXIwggEiMA0GCSqGSIb3DQEB
AQUAA4IBDwAwggEKAoIBAQDJLVTizvnjQtgSOR8q2u9htb/ocxun/Do0G984Vcdt
JbBVnVieYbCuATwbF4ws1lbTfd47YQ2LVF/ZvmFPq4d6K3wuW1fVY3ux13Yg1nKh
jQLOaSUQ2df/zX4a1+Qh9pdTIU8tlC2F/DRvdWD9Oh/ThHTx/l3vh7aJBkbb0TeD
IXZbegFFKjtDMpZwNRKQBlPl5yzgynuAy4Jb4u4G2CcqCUnEkRoI4rckSpmn4YZV
HEA2BLNQWxIjYhV3LX0A/2mLhhT97xXbtLqdBxm+t/bE2lPXQmkBYuRAg3AttZIJ
rGY+pu4wNiBwUkBQcmUQfQCYkg5DnRDwplcjPTw64Ik3AgMBAAGjgbswgbgwCQYD
VR0TBAIwADAdBgNVHQ4EFgQUTRKdEPQ0Xdhbv/4+5p7FDDx9x58wUAYDVR0jBEkw
R4AURuLFDNfs2V4ZTVAlapsDgpu2KRShGaQXMBUxEzARBgNVBAMMCnRlYW01NC1u
ZXSCFHOwrRqSthZvOWCv8oAntSfa6ImxMBMGA1UdJQQMMAoGCCsGAQUFBwMBMAsG
A1UdDwQEAwIFoDAYBgNVHREEETAPgg10ZWFtNTQtc2VydmVyMA0GCSqGSIb3DQEB
CwUAA4IBAQBJiKGm3PSvr7mzChQomUYo9iSOfRRMrNltIZn15KHNxfG3gp7/ZYBP
UgLBMi60xh4iFp3QqH7T4XlUp2wuRaa71BR8V9oejTIyU7EvWuaoD4NNSEgRT/DQ
1SkfOi4/LitYxvVztxZf0U3H1rfo0vHfKOgqkeC5jJ87KVdVQuTG9UQUwBhQMJiW
TW7rM8EZF80SIPFJDcIPuVhLxd3KOG36UjfeZCFXL4MiyBjGlZifC00xLNpbK9LY
slSapl3k+Rh4x/bqhVKgSOu/xX0UxcYPN+YIXvxalTaHXZsmctTLmYT/Qt2gCjAn
87LteC/i2aleG2g1kHtdAkHJRBNpv/ky
-----END CERTIFICATE-----
