Certificate:
    Data:
        Version: 3 (0x2)
        Serial Number:
            24:d4:9a:dd:1f:23:29:9f:6e:09:b8:ca:b5:91:ef:7a
        Signature Algorithm: sha256WithRSAEncryption
        Issuer: CN=team37-net
        Validity
            Not Before: Apr 20 00:10:50 2023 GMT
            Not After : Apr  4 00:10:50 2026 GMT
        Subject: CN=team37-server
        Subject Public Key Info:
            Public Key Algorithm: rsaEncryption
                Public-Key: (2048 bit)
                Modulus:
                    00:9d:d1:9d:dd:ec:30:f7:2c:4a:be:3a:df:27:f4:
                    33:69:b3:91:bc:fd:e2:1d:f2:50:ff:a5:91:28:4e:
                    18:b1:d7:ec:fc:b9:4c:e1:a8:a6:66:af:f8:e5:54:
                    7d:04:21:60:a7:a1:c4:a1:10:36:d3:37:55:6d:1f:
                    a1:8c:e3:60:4e:6f:bb:9b:10:c6:b7:78:d7:b9:05:
                    f2:91:19:31:67:1e:93:0d:c6:8c:40:1e:10:d2:f8:
                    62:e2:e1:29:ed:00:75:52:02:a6:f2:c6:f7:15:4f:
                    55:6a:43:e7:34:4c:c2:b5:c7:dc:a7:0c:2b:db:d2:
                    d6:f2:fa:24:b3:48:10:a1:53:c5:09:e0:47:97:f9:
                    7d:3e:95:50:e5:92:69:28:fb:69:82:39:e6:78:d6:
                    32:e9:25:f1:13:6a:68:51:cc:06:86:4a:68:1d:bf:
                    9d:f2:3b:ef:cc:a5:e3:d0:4d:9e:05:ae:89:5e:88:
                    40:f9:95:3e:b4:c0:76:9b:38:ad:f6:fd:6a:97:f7:
                    ab:de:c5:27:b0:29:78:e3:6e:df:72:ce:24:bf:b7:
                    67:8f:3e:dc:ee:a9:98:36:20:f0:18:a3:c5:b1:40:
                    b7:57:38:b5:99:0a:0a:d0:37:36:21:4d:23:83:52:
                    04:e3:4e:b0:61:47:56:78:08:bb:12:05:38:70:5b:
                    2b:29
                Exponent: 65537 (0x10001)
        X509v3 extensions:
            X509v3 Basic Constraints: 
                CA:FALSE
            X509v3 Subject Key Identifier: 
                08:92:E6:99:5A:B4:69:F5:0F:DC:F3:C9:C7:85:34:BF:F4:6A:C1:C2
            X509v3 Authority Key Identifier: 
                keyid:B4:5A:0C:61:4E:1B:E3:F9:E2:24:36:64:31:31:0D:A3:1C:07:2D:C5
                DirName:/CN=team37-net
                serial:13:94:6C:C3:E9:DE:42:86:84:CE:53:D8:64:1E:18:86:4B:B2:98:4B
            X509v3 Extended Key Usage: 
                TLS Web Server Authentication
            X509v3 Key Usage: 
                Digital Signature, Key Encipherment
            X509v3 Subject Alternative Name: 
                DNS:team37-server
    Signature Algorithm: sha256WithRSAEncryption
    Signature Value:
        8a:ed:dd:d7:a6:3a:5b:1f:41:e5:1e:7c:b1:39:5d:79:c0:b5:
        82:a0:1d:7d:f8:31:82:4e:b0:df:df:29:35:aa:de:29:95:15:
        27:c5:52:01:13:10:a3:76:0f:ad:51:8f:00:8e:e4:62:29:1f:
        ab:fb:b8:16:cd:fd:c1:67:01:a2:ab:65:94:ad:87:59:1e:1e:
        ed:bf:64:ba:45:05:53:e5:e4:c1:5e:8f:28:6d:d5:c1:66:16:
        5d:ad:7e:b1:e2:01:29:2d:90:6e:40:46:bf:f0:ad:01:0e:78:
        fe:00:ab:f0:39:a2:ab:32:6b:ca:f9:25:3c:40:e6:df:f0:36:
        7a:ed:10:d2:c6:89:3e:a5:af:69:5c:f4:52:b0:f8:44:50:d7:
        eb:99:10:86:e3:7e:81:30:33:85:61:b5:1c:f0:8d:bd:e3:b7:
        ae:aa:c4:f3:b0:51:96:d2:c8:a9:43:a2:d9:13:cc:8a:7f:57:
        61:14:25:ea:4b:52:39:46:93:b8:2e:7c:5e:9f:7a:a2:b1:d9:
        4b:1c:87:5f:5e:4e:9d:35:0e:ec:54:6c:6a:c9:49:c5:f6:49:
        1d:1d:d1:62:d6:dc:96:b7:92:85:e3:96:d9:d3:b4:43:cd:04:
        f6:ee:f2:e7:23:f2:68:9f:b5:08:f7:dc:2a:55:96:3b:2b:68:
        cc:d9:c5:97
-----BEGIN CERTIFICATE-----
MIIDczCCAlugAwIBAgIQJNSa3R8jKZ9uCbjKtZHvejANBgkqhkiG9w0BAQsFADAV
MRMwEQYDVQQDDAp0ZWFtMzctbmV0MB4XDTIzMDQyMDAwMTA1MFoXDTI2MDQwNDAw
MTA1MFowGDEWMBQGA1UEAwwNdGVhbTM3LXNlcnZlcjCCASIwDQYJKoZIhvcNAQEB
BQADggEPADCCAQoCggEBAJ3Rnd3sMPcsSr463yf0M2mzkbz94h3yUP+lkShOGLHX
7Py5TOGopmav+OVUfQQhYKehxKEQNtM3VW0foYzjYE5vu5sQxrd417kF8pEZMWce
kw3GjEAeENL4YuLhKe0AdVICpvLG9xVPVWpD5zRMwrXH3KcMK9vS1vL6JLNIEKFT
xQngR5f5fT6VUOWSaSj7aYI55njWMukl8RNqaFHMBoZKaB2/nfI778yl49BNngWu
iV6IQPmVPrTAdps4rfb9apf3q97FJ7ApeONu33LOJL+3Z48+3O6pmDYg8BijxbFA
t1c4tZkKCtA3NiFNI4NSBONOsGFHVngIuxIFOHBbKykCAwEAAaOBuzCBuDAJBgNV
HRMEAjAAMB0GA1UdDgQWBBQIkuaZWrRp9Q/c88nHhTS/9GrBwjBQBgNVHSMESTBH
gBS0WgxhThvj+eIkNmQxMQ2jHActxaEZpBcwFTETMBEGA1UEAwwKdGVhbTM3LW5l
dIIUE5Rsw+neQoaEzlPYZB4YhkuymEswEwYDVR0lBAwwCgYIKwYBBQUHAwEwCwYD
VR0PBAQDAgWgMBgGA1UdEQQRMA+CDXRlYW0zNy1zZXJ2ZXIwDQYJKoZIhvcNAQEL
BQADggEBAIrt3demOlsfQeUefLE5XXnAtYKgHX34MYJOsN/fKTWq3imVFSfFUgET
EKN2D61RjwCO5GIpH6v7uBbN/cFnAaKrZZSth1keHu2/ZLpFBVPl5MFejyht1cFm
Fl2tfrHiASktkG5ARr/wrQEOeP4Aq/A5oqsya8r5JTxA5t/wNnrtENLGiT6lr2lc
9FKw+ERQ1+uZEIbjfoEwM4VhtRzwjb3jt66qxPOwUZbSyKlDotkTzIp/V2EUJepL
UjlGk7gufF6feqKx2Usch19eTp01DuxUbGrJScX2SR0d0WLW3Ja3koXjltnTtEPN
BPbu8ucj8miftQj33CpVljsraMzZxZc=
-----END CERTIFICATE-----
