Certificate:
    Data:
        Version: 3 (0x2)
        Serial Number:
            20:de:d9:89:5c:5d:46:52:8d:a6:cb:72:a5:7b:b0:d2
        Signature Algorithm: sha256WithRSAEncryption
        Issuer: CN=team51-net
        Validity
            Not Before: Apr 20 22:54:44 2023 GMT
            Not After : Apr  4 22:54:44 2026 GMT
        Subject: CN=team51-client
        Subject Public Key Info:
            Public Key Algorithm: rsaEncryption
                Public-Key: (2048 bit)
                Modulus:
                    00:b6:9a:6d:60:86:3d:c4:76:58:0a:ca:37:db:d4:
                    37:23:64:3c:92:77:49:ba:fd:a0:b7:1e:1b:32:05:
                    98:b8:81:99:79:d9:82:62:d3:47:db:57:60:e5:41:
                    fa:93:55:b8:ff:61:47:4a:0a:f2:70:8f:99:04:85:
                    95:b0:d7:8f:0c:0e:8f:7e:3b:31:ff:1e:02:f6:c8:
                    e2:ad:61:6f:8a:79:02:e1:ce:c3:6b:68:a5:31:ed:
                    19:15:9c:27:63:d3:cd:9b:02:7a:54:97:2c:20:9f:
                    e5:75:86:f4:c8:d0:ca:2a:00:95:a8:13:9c:80:5c:
                    1f:1c:e7:97:6f:ca:6e:b5:95:13:9f:2e:f1:8c:f6:
                    1e:40:f3:ec:ed:09:c5:af:6f:c3:92:27:70:6e:02:
                    18:e7:69:34:ab:3a:3c:04:e9:ce:6a:a3:85:c2:6b:
                    a2:14:71:1b:da:36:49:e6:3d:97:c7:6b:22:23:d3:
                    05:9e:17:c8:ab:80:91:65:47:1c:e6:f2:9d:2e:ea:
                    af:bb:25:fe:05:02:f6:99:ce:aa:94:aa:29:cd:4d:
                    08:e4:7d:e2:59:e2:48:aa:47:d5:f2:7c:b7:f1:45:
                    ce:ad:c3:fa:e5:95:03:31:ba:77:d8:f2:75:af:5b:
                    69:99:a6:c5:da:da:53:88:c8:1d:33:73:06:e5:e1:
                    26:cd
                Exponent: 65537 (0x10001)
        X509v3 extensions:
            X509v3 Basic Constraints: 
                CA:FALSE
            X509v3 Subject Key Identifier: 
                FF:44:D8:1F:F8:20:CE:8B:B0:FD:67:54:1F:58:39:A6:3C:72:CF:5A
            X509v3 Authority Key Identifier: 
                keyid:7B:25:7C:0F:F5:5D:68:D9:56:BC:1B:F0:02:D1:7D:27:52:60:48:54
                DirName:/CN=team51-net
                serial:68:E3:6D:8A:22:55:BF:85:FE:40:96:46:FB:DE:47:0A:E2:24:FE:61
            X509v3 Extended Key Usage: 
                TLS Web Client Authentication
            X509v3 Key Usage: 
                Digital Signature
    Signature Algorithm: sha256WithRSAEncryption
    Signature Value:
        a4:ad:37:73:3d:0a:34:5d:cc:fe:6d:ff:2a:7b:a3:c8:47:07:
        70:c4:98:b4:82:22:d0:e2:34:24:dc:0f:a0:84:8e:9d:f5:19:
        e7:19:cb:4f:61:dd:13:e0:9b:85:43:47:02:b2:7f:62:b0:71:
        c1:fc:db:a6:7b:59:3b:70:ec:b3:13:bb:46:13:57:a7:fb:0a:
        8a:e4:e8:ec:4f:81:85:db:5b:4c:33:0e:2e:a8:3c:88:b2:d1:
        a3:3d:1c:5b:3b:39:d7:4a:c0:48:69:16:50:3c:33:75:b2:8c:
        1f:ac:3d:df:66:3f:d5:07:2a:ba:9f:0e:1e:50:7e:fd:29:f2:
        d6:7c:5d:01:66:99:96:f5:49:b5:f8:8f:2c:4f:14:41:8f:d4:
        17:c8:49:67:88:54:db:35:27:5b:88:04:37:da:a2:01:90:c3:
        4b:e1:d5:95:cb:7a:f8:aa:88:10:62:48:1d:b4:e5:6d:0b:42:
        a4:e1:04:19:60:0c:14:e6:bb:6e:b9:18:d1:e6:d5:62:ac:98:
        b9:b8:5b:0f:54:1b:ec:c1:2a:67:70:cd:38:0f:c3:b4:44:c8:
        25:5a:61:5e:bf:14:8e:fd:6f:cc:c1:ba:07:7f:f0:e7:68:62:
        4c:ca:c1:df:b7:95:3f:f2:c5:98:0a:c6:37:30:8d:97:27:e5:
        11:54:d9:3c
-----BEGIN CERTIFICATE-----
MIIDWTCCAkGgAwIBAgIQIN7ZiVxdRlKNpstypXuw0jANBgkqhkiG9w0BAQsFADAV
MRMwEQYDVQQDDAp0ZWFtNTEtbmV0MB4XDTIzMDQyMDIyNTQ0NFoXDTI2MDQwNDIy
NTQ0NFowGDEWMBQGA1UEAwwNdGVhbTUxLWNsaWVudDCCASIwDQYJKoZIhvcNAQEB
BQADggEPADCCAQoCggEBALaabWCGPcR2WArKN9vUNyNkPJJ3Sbr9oLceGzIFmLiB
mXnZgmLTR9tXYOVB+pNVuP9hR0oK8nCPmQSFlbDXjwwOj347Mf8eAvbI4q1hb4p5
AuHOw2topTHtGRWcJ2PTzZsCelSXLCCf5XWG9MjQyioAlagTnIBcHxznl2/KbrWV
E58u8Yz2HkDz7O0Jxa9vw5IncG4CGOdpNKs6PATpzmqjhcJrohRxG9o2SeY9l8dr
IiPTBZ4XyKuAkWVHHObynS7qr7sl/gUC9pnOqpSqKc1NCOR94lniSKpH1fJ8t/FF
zq3D+uWVAzG6d9jyda9baZmmxdraU4jIHTNzBuXhJs0CAwEAAaOBoTCBnjAJBgNV
HRMEAjAAMB0GA1UdDgQWBBT/RNgf+CDOi7D9Z1QfWDmmPHLPWjBQBgNVHSMESTBH
gBR7JXwP9V1o2Va8G/AC0X0nUmBIVKEZpBcwFTETMBEGA1UEAwwKdGVhbTUxLW5l
dIIUaONtiiJVv4X+QJZG+95HCuIk/mEwEwYDVR0lBAwwCgYIKwYBBQUHAwIwCwYD
VR0PBAQDAgeAMA0GCSqGSIb3DQEBCwUAA4IBAQCkrTdzPQo0Xcz+bf8qe6PIRwdw
xJi0giLQ4jQk3A+ghI6d9RnnGctPYd0T4JuFQ0cCsn9isHHB/Nume1k7cOyzE7tG
E1en+wqK5OjsT4GF21tMMw4uqDyIstGjPRxbOznXSsBIaRZQPDN1sowfrD3fZj/V
Byq6nw4eUH79KfLWfF0BZpmW9Um1+I8sTxRBj9QXyElniFTbNSdbiAQ32qIBkMNL
4dWVy3r4qogQYkgdtOVtC0Kk4QQZYAwU5rtuuRjR5tVirJi5uFsPVBvswSpncM04
D8O0RMglWmFevxSO/W/MwboHf/DnaGJMysHft5U/8sWYCsY3MI2XJ+URVNk8
-----END CERTIFICATE-----
