Certificate:
    Data:
        Version: 3 (0x2)
        Serial Number:
            6a:3b:ef:5a:4a:f5:7d:d8:44:6e:de:4b:4c:ba:e8:08
        Signature Algorithm: sha256WithRSAEncryption
        Issuer: CN=team51-net
        Validity
            Not Before: Apr 20 00:11:08 2023 GMT
            Not After : Apr  4 00:11:08 2026 GMT
        Subject: CN=team51-client
        Subject Public Key Info:
            Public Key Algorithm: rsaEncryption
                Public-Key: (2048 bit)
                Modulus:
                    00:e2:5b:39:7d:85:2a:8a:1a:7f:59:34:8a:0f:b2:
                    19:0f:ac:60:03:dd:c7:97:d2:e6:6b:5d:de:72:b3:
                    2b:11:a3:8b:74:0d:29:2a:0b:34:44:52:26:2d:44:
                    1d:c0:a5:1b:cc:b8:c9:6c:6c:36:e9:84:2d:97:4a:
                    6a:85:85:08:0e:c8:93:dd:91:85:29:b7:af:d8:28:
                    49:b5:b0:ef:48:a9:4d:51:46:5a:5e:b9:83:f1:e0:
                    c3:ee:71:ae:f6:9d:70:d5:e5:8f:40:fe:64:6d:fd:
                    d6:70:4e:b5:9e:49:7c:5e:c1:b7:84:ec:a7:17:3b:
                    74:d2:be:52:50:b5:54:26:62:60:1a:40:32:c4:b0:
                    d1:e9:c3:8a:75:75:a7:df:fa:45:c9:78:3c:92:bd:
                    bb:56:2e:a6:5d:4d:79:63:2d:f7:c4:36:9d:16:8b:
                    7a:21:ef:93:61:84:2e:ff:d8:8b:25:e8:5d:c3:7a:
                    c7:3d:62:eb:ae:94:a2:41:6e:09:f4:cf:4b:11:ee:
                    6e:e7:5a:06:89:6e:fc:08:39:da:91:a4:6c:42:95:
                    83:ca:df:b8:3f:9b:ff:c5:48:86:0c:b6:be:d7:ca:
                    10:23:d2:71:73:90:cb:be:f2:a9:de:f4:76:c0:6d:
                    6c:79:f0:cc:77:71:fc:84:c3:22:cb:ca:ef:61:3d:
                    b8:f5
                Exponent: 65537 (0x10001)
        X509v3 extensions:
            X509v3 Basic Constraints: 
                CA:FALSE
            X509v3 Subject Key Identifier: 
                EC:C5:85:C8:C4:DA:7E:DA:02:0A:26:6B:B9:F6:DA:7B:A8:6C:09:E4
            X509v3 Authority Key Identifier: 
                keyid:27:88:A8:7D:90:C9:F5:18:EF:37:13:E2:16:03:D6:86:B9:49:3D:C6
                DirName:/CN=team51-net
                serial:04:BF:71:E9:BE:A0:B6:D5:4B:B8:44:A1:FC:FA:75:D1:0A:FC:91:FE
            X509v3 Extended Key Usage: 
                TLS Web Client Authentication
            X509v3 Key Usage: 
                Digital Signature
    Signature Algorithm: sha256WithRSAEncryption
    Signature Value:
        4f:0f:5e:fe:0c:88:61:cb:b3:50:86:90:db:5f:e7:82:01:98:
        a4:35:7f:7c:7f:4c:1a:6b:e6:ed:d9:b4:ff:e4:12:3b:0a:f8:
        78:a9:5b:0a:05:1d:69:c0:7b:0b:c9:1c:8c:a9:29:35:17:1e:
        f2:91:4e:00:9b:9f:40:ed:25:f2:ca:a4:3e:0a:b2:0c:44:6e:
        9e:7e:4e:bc:7a:29:06:4d:59:07:1c:04:ed:5e:be:66:e3:68:
        1a:50:e3:48:db:94:12:cb:76:57:04:01:4b:a4:71:0d:13:40:
        6c:46:95:2d:ee:19:4e:78:58:1a:c4:2d:04:93:41:3e:a2:81:
        a8:5f:b4:a4:3f:14:40:59:d1:d5:c4:c9:3f:28:ab:69:ce:28:
        ab:46:31:22:b1:5c:f7:15:36:9b:bc:d1:51:26:ab:04:4a:94:
        7e:bf:9e:7a:64:2c:27:5b:01:6c:be:94:3c:ec:31:ad:a7:b2:
        08:ad:a3:94:a0:54:47:db:ec:13:3c:da:24:8f:45:ed:ed:e3:
        5e:61:1b:b5:49:ae:33:73:f4:f4:d9:b2:12:ec:e5:35:7f:18:
        2c:2f:32:ec:6f:a6:d3:93:7b:dc:70:f1:5f:c5:bd:21:43:76:
        16:23:ec:08:eb:f3:8d:8c:27:f2:f5:4e:cb:a2:9a:b1:c7:c4:
        c6:cb:77:fe
-----BEGIN CERTIFICATE-----
MIIDWTCCAkGgAwIBAgIQajvvWkr1fdhEbt5LTLroCDANBgkqhkiG9w0BAQsFADAV
MRMwEQYDVQQDDAp0ZWFtNTEtbmV0MB4XDTIzMDQyMDAwMTEwOFoXDTI2MDQwNDAw
MTEwOFowGDEWMBQGA1UEAwwNdGVhbTUxLWNsaWVudDCCASIwDQYJKoZIhvcNAQEB
BQADggEPADCCAQoCggEBAOJbOX2FKooaf1k0ig+yGQ+sYAPdx5fS5mtd3nKzKxGj
i3QNKSoLNERSJi1EHcClG8y4yWxsNumELZdKaoWFCA7Ik92RhSm3r9goSbWw70ip
TVFGWl65g/Hgw+5xrvadcNXlj0D+ZG391nBOtZ5JfF7Bt4Tspxc7dNK+UlC1VCZi
YBpAMsSw0enDinV1p9/6Rcl4PJK9u1Yupl1NeWMt98Q2nRaLeiHvk2GELv/YiyXo
XcN6xz1i666UokFuCfTPSxHubudaBolu/Ag52pGkbEKVg8rfuD+b/8VIhgy2vtfK
ECPScXOQy77yqd70dsBtbHnwzHdx/ITDIsvK72E9uPUCAwEAAaOBoTCBnjAJBgNV
HRMEAjAAMB0GA1UdDgQWBBTsxYXIxNp+2gIKJmu59tp7qGwJ5DBQBgNVHSMESTBH
gBQniKh9kMn1GO83E+IWA9aGuUk9xqEZpBcwFTETMBEGA1UEAwwKdGVhbTUxLW5l
dIIUBL9x6b6gttVLuESh/Pp10Qr8kf4wEwYDVR0lBAwwCgYIKwYBBQUHAwIwCwYD
VR0PBAQDAgeAMA0GCSqGSIb3DQEBCwUAA4IBAQBPD17+DIhhy7NQhpDbX+eCAZik
NX98f0waa+bt2bT/5BI7Cvh4qVsKBR1pwHsLyRyMqSk1Fx7ykU4Am59A7SXyyqQ+
CrIMRG6efk68eikGTVkHHATtXr5m42gaUONI25QSy3ZXBAFLpHENE0BsRpUt7hlO
eFgaxC0Ek0E+ooGoX7SkPxRAWdHVxMk/KKtpziirRjEisVz3FTabvNFRJqsESpR+
v556ZCwnWwFsvpQ87DGtp7IIraOUoFRH2+wTPNokj0Xt7eNeYRu1Sa4zc/T02bIS
7OU1fxgsLzLsb6bTk3vccPFfxb0hQ3YWI+wI6/ONjCfy9U7Lopqxx8TGy3f+
-----END CERTIFICATE-----
