Certificate:
    Data:
        Version: 3 (0x2)
        Serial Number:
            d5:7a:7f:a8:89:39:89:4f:c3:43:3c:86:a2:53:72:9b
        Signature Algorithm: sha256WithRSAEncryption
        Issuer: CN=team51-net
        Validity
            Not Before: Apr 20 22:54:45 2023 GMT
            Not After : Apr  4 22:54:45 2026 GMT
        Subject: CN=team51-server
        Subject Public Key Info:
            Public Key Algorithm: rsaEncryption
                Public-Key: (2048 bit)
                Modulus:
                    00:9b:12:37:b8:58:8d:86:17:ca:3b:8b:08:a9:0c:
                    64:70:6e:06:e9:c9:9f:53:a5:ae:80:44:5a:f8:49:
                    39:0d:77:ae:e0:27:8c:28:c2:97:92:ef:eb:b5:c3:
                    9e:e4:17:28:8a:7a:bc:6f:29:74:9c:60:93:9e:c3:
                    17:9d:d1:82:ae:83:51:6f:04:4e:a6:26:46:88:89:
                    0a:3e:3c:94:f8:c2:f1:65:30:54:05:3d:d5:6b:03:
                    a7:77:7b:47:1c:42:78:56:fb:7d:fb:ad:19:13:d0:
                    cd:fb:6f:92:08:ac:7c:5c:50:7d:3c:45:b8:d7:aa:
                    6f:10:0f:f6:7b:71:de:c3:f5:ae:2c:5c:a1:75:c0:
                    dd:3f:e0:f6:ce:6e:c5:17:94:68:d4:09:5b:96:1c:
                    cb:0e:91:b9:36:c5:3f:9d:8e:e9:a6:17:7e:15:5f:
                    52:01:4c:33:29:a9:8a:ca:f5:f5:49:40:d2:5c:66:
                    bd:90:c1:19:6e:b5:48:80:6f:0f:9c:4a:15:58:b2:
                    2f:7b:51:81:77:5c:da:41:46:05:e8:c3:cb:69:8e:
                    6b:6a:cd:67:16:62:a3:b4:7d:8d:77:5f:c5:11:a7:
                    27:84:71:1d:07:d8:b5:20:30:e3:05:9e:af:7f:ae:
                    cb:98:26:57:55:13:2f:e5:7f:db:67:d9:90:84:62:
                    72:89
                Exponent: 65537 (0x10001)
        X509v3 extensions:
            X509v3 Basic Constraints: 
                CA:FALSE
            X509v3 Subject Key Identifier: 
                09:A0:86:4A:C7:D1:9B:74:9C:A9:8F:C7:BF:30:04:ED:30:B2:F1:3E
            X509v3 Authority Key Identifier: 
                keyid:7B:25:7C:0F:F5:5D:68:D9:56:BC:1B:F0:02:D1:7D:27:52:60:48:54
                DirName:/CN=team51-net
                serial:68:E3:6D:8A:22:55:BF:85:FE:40:96:46:FB:DE:47:0A:E2:24:FE:61
            X509v3 Extended Key Usage: 
                TLS Web Server Authentication
            X509v3 Key Usage: 
                Digital Signature, Key Encipherment
            X509v3 Subject Alternative Name: 
                DNS:team51-server
    Signature Algorithm: sha256WithRSAEncryption
    Signature Value:
        26:7f:4f:ba:df:45:47:b7:d1:1a:00:b1:eb:1f:34:a4:74:2e:
        5b:f5:1d:17:25:4d:b3:55:7d:6a:86:bd:7b:f6:4a:f6:e4:57:
        c7:64:ba:45:76:fe:e9:61:98:21:a8:64:b2:12:9c:f6:d4:63:
        f6:86:d1:4a:fb:51:4e:7c:7c:3b:36:0e:f5:3a:af:23:67:49:
        30:8d:43:9a:65:34:56:6a:c4:db:2e:12:c3:03:3c:49:e0:5f:
        2f:e3:ac:70:81:9e:14:e9:63:b6:f0:a2:b8:a8:7d:9b:bb:76:
        97:21:a1:61:90:d5:4e:e1:74:08:97:f7:8e:3c:1e:ab:5a:ec:
        ce:b3:0a:53:44:28:71:a2:6a:74:47:c7:08:06:15:58:49:ff:
        ce:eb:0c:f7:7a:ac:66:65:c7:2a:c1:d0:7d:3d:fd:fb:89:29:
        b9:9e:0e:61:b6:65:5d:8a:72:27:84:e4:d6:60:fc:1a:27:ae:
        97:bd:43:72:46:f2:a0:c0:32:5b:67:55:c2:e8:d9:c5:49:91:
        f3:6b:5a:d9:f8:8e:e4:ad:b8:eb:88:0d:e0:d6:a6:de:52:ab:
        3d:be:66:34:8d:05:aa:f4:e1:96:72:86:d9:9c:92:3c:3b:b2:
        f5:ed:03:46:50:67:f4:e8:9e:bf:c6:03:10:94:94:00:d5:4b:
        eb:6b:1f:4f
-----BEGIN CERTIFICATE-----
MIIDdDCCAlygAwIBAgIRANV6f6iJOYlPw0M8hqJTcpswDQYJKoZIhvcNAQELBQAw
FTETMBEGA1UEAwwKdGVhbTUxLW5ldDAeFw0yMzA0MjAyMjU0NDVaFw0yNjA0MDQy
MjU0NDVaMBgxFjAUBgNVBAMMDXRlYW01MS1zZXJ2ZXIwggEiMA0GCSqGSIb3DQEB
AQUAA4IBDwAwggEKAoIBAQCbEje4WI2GF8o7iwipDGRwbgbpyZ9Tpa6ARFr4STkN
d67gJ4wowpeS7+u1w57kFyiKerxvKXScYJOewxed0YKug1FvBE6mJkaIiQo+PJT4
wvFlMFQFPdVrA6d3e0ccQnhW+337rRkT0M37b5IIrHxcUH08RbjXqm8QD/Z7cd7D
9a4sXKF1wN0/4PbObsUXlGjUCVuWHMsOkbk2xT+djummF34VX1IBTDMpqYrK9fVJ
QNJcZr2QwRlutUiAbw+cShVYsi97UYF3XNpBRgXow8tpjmtqzWcWYqO0fY13X8UR
pyeEcR0H2LUgMOMFnq9/rsuYJldVEy/lf9tn2ZCEYnKJAgMBAAGjgbswgbgwCQYD
VR0TBAIwADAdBgNVHQ4EFgQUCaCGSsfRm3ScqY/HvzAE7TCy8T4wUAYDVR0jBEkw
R4AUeyV8D/VdaNlWvBvwAtF9J1JgSFShGaQXMBUxEzARBgNVBAMMCnRlYW01MS1u
ZXSCFGjjbYoiVb+F/kCWRvveRwriJP5hMBMGA1UdJQQMMAoGCCsGAQUFBwMBMAsG
A1UdDwQEAwIFoDAYBgNVHREEETAPgg10ZWFtNTEtc2VydmVyMA0GCSqGSIb3DQEB
CwUAA4IBAQAmf0+630VHt9EaALHrHzSkdC5b9R0XJU2zVX1qhr179kr25FfHZLpF
dv7pYZghqGSyEpz21GP2htFK+1FOfHw7Ng71Oq8jZ0kwjUOaZTRWasTbLhLDAzxJ
4F8v46xwgZ4U6WO28KK4qH2bu3aXIaFhkNVO4XQIl/eOPB6rWuzOswpTRChxomp0
R8cIBhVYSf/O6wz3eqxmZccqwdB9Pf37iSm5ng5htmVdinInhOTWYPwaJ66XvUNy
RvKgwDJbZ1XC6NnFSZHza1rZ+I7krbjriA3g1qbeUqs9vmY0jQWq9OGWcobZnJI8
O7L17QNGUGf06J6/xgMQlJQA1Uvrax9P
-----END CERTIFICATE-----
