Certificate:
    Data:
        Version: 3 (0x2)
        Serial Number:
            a6:8a:38:78:92:7b:09:d0:39:98:29:9f:e4:f3:b3:89
        Signature Algorithm: sha256WithRSAEncryption
        Issuer: CN=team59-net
        Validity
            Not Before: Apr 20 22:55:00 2023 GMT
            Not After : Apr  4 22:55:00 2026 GMT
        Subject: CN=team59-server
        Subject Public Key Info:
            Public Key Algorithm: rsaEncryption
                Public-Key: (2048 bit)
                Modulus:
                    00:e3:fb:a4:d3:00:fe:a9:1c:b7:d2:fe:54:18:8e:
                    38:96:2b:a8:94:52:d8:83:d8:2d:4e:48:b5:cb:e2:
                    77:81:b2:0b:7b:04:3d:1c:5c:f4:f9:b7:9a:36:34:
                    c8:46:6e:cb:b0:b4:33:d9:19:b8:92:96:2b:3c:94:
                    16:44:e5:41:a3:d7:db:62:5c:66:46:77:47:9a:a6:
                    e7:b2:df:dc:f2:65:6b:76:17:6d:11:d8:f4:cc:d2:
                    7c:3e:4e:98:ac:8a:b5:89:3e:51:f3:30:0a:66:d1:
                    75:f0:8e:76:b1:f1:78:52:2a:ef:05:0a:c5:70:d7:
                    cb:da:c2:f9:c0:a9:4a:09:ea:01:6b:42:4a:d9:f0:
                    b2:5c:99:6e:5f:bd:73:40:b3:62:24:92:08:ac:a3:
                    68:79:ae:d2:4b:bc:48:ab:ed:58:e9:ea:7e:da:94:
                    8d:a5:15:03:f7:ca:ac:d4:3e:20:b3:df:8b:fc:66:
                    89:80:28:67:ce:f0:f2:7b:3d:e7:10:4f:12:08:dc:
                    aa:47:32:be:e2:dd:5a:85:a4:b4:c1:3c:e9:8c:0c:
                    cc:da:33:93:bb:ad:0c:f6:08:6e:d7:1b:05:05:27:
                    fc:34:1c:b1:69:65:96:5e:67:7d:6c:ee:98:58:d1:
                    37:dc:b4:1d:e5:87:6f:0c:ec:a9:5a:7a:18:6b:b0:
                    c1:ef
                Exponent: 65537 (0x10001)
        X509v3 extensions:
            X509v3 Basic Constraints: 
                CA:FALSE
            X509v3 Subject Key Identifier: 
                F3:83:62:97:6B:C3:74:9D:EE:58:35:D5:62:EF:84:F5:61:C2:64:8D
            X509v3 Authority Key Identifier: 
                keyid:70:BA:7D:A1:95:79:F5:51:C7:1C:ED:B8:03:92:19:D0:D7:3E:29:27
                DirName:/CN=team59-net
                serial:14:FE:27:B3:AC:8A:B8:23:07:5A:68:C9:CE:0B:71:A0:36:89:8F:19
            X509v3 Extended Key Usage: 
                TLS Web Server Authentication
            X509v3 Key Usage: 
                Digital Signature, Key Encipherment
            X509v3 Subject Alternative Name: 
                DNS:team59-server
    Signature Algorithm: sha256WithRSAEncryption
    Signature Value:
        2c:0f:d8:8f:7c:01:05:7b:c1:7b:00:8a:06:ae:3a:b2:5e:2f:
        87:88:6a:a7:a4:72:2f:3e:b1:d3:68:1c:32:9f:f3:18:6a:7e:
        50:fc:ba:8a:62:d4:76:9f:71:a7:e2:3e:07:58:e5:9b:b5:ff:
        7a:49:4c:15:7e:bd:ad:2c:40:c3:6e:8d:81:80:da:88:8d:fd:
        47:00:e6:50:f5:ab:22:bc:c8:05:3a:56:1b:d9:d4:86:64:6b:
        58:e0:11:24:23:32:6c:d4:62:e6:5c:0b:61:46:59:65:92:7b:
        1b:ec:bd:dc:2f:c7:0c:0e:7d:17:06:03:85:04:7c:9d:c2:32:
        4f:23:b8:c2:a5:18:22:da:ac:bb:25:e4:2d:7b:13:dc:fa:52:
        12:44:96:3c:3a:7a:8e:bd:e7:64:07:1d:66:00:c6:e9:8f:53:
        09:f0:c1:bb:9b:1e:6a:5b:c4:8d:95:57:54:87:e3:28:ba:e0:
        57:c3:8f:c3:89:d6:c0:ef:df:d6:72:06:f3:0f:d2:9f:db:83:
        ef:27:d9:02:f3:cc:aa:21:d7:97:a4:9c:4c:73:d1:d8:ff:b1:
        db:09:1d:7c:18:4c:0b:8e:c8:f4:9c:0f:79:6a:e2:91:c5:07:
        69:a8:77:3e:0e:6a:bd:5f:25:b3:57:16:6c:b1:4b:5d:e2:18:
        17:59:76:2e
-----BEGIN CERTIFICATE-----
MIIDdDCCAlygAwIBAgIRAKaKOHiSewnQOZgpn+Tzs4kwDQYJKoZIhvcNAQELBQAw
FTETMBEGA1UEAwwKdGVhbTU5LW5ldDAeFw0yMzA0MjAyMjU1MDBaFw0yNjA0MDQy
MjU1MDBaMBgxFjAUBgNVBAMMDXRlYW01OS1zZXJ2ZXIwggEiMA0GCSqGSIb3DQEB
AQUAA4IBDwAwggEKAoIBAQDj+6TTAP6pHLfS/lQYjjiWK6iUUtiD2C1OSLXL4neB
sgt7BD0cXPT5t5o2NMhGbsuwtDPZGbiSlis8lBZE5UGj19tiXGZGd0eapuey39zy
ZWt2F20R2PTM0nw+TpisirWJPlHzMApm0XXwjnax8XhSKu8FCsVw18vawvnAqUoJ
6gFrQkrZ8LJcmW5fvXNAs2Ikkgiso2h5rtJLvEir7Vjp6n7alI2lFQP3yqzUPiCz
34v8ZomAKGfO8PJ7PecQTxII3KpHMr7i3VqFpLTBPOmMDMzaM5O7rQz2CG7XGwUF
J/w0HLFpZZZeZ31s7phY0TfctB3lh28M7KlaehhrsMHvAgMBAAGjgbswgbgwCQYD
VR0TBAIwADAdBgNVHQ4EFgQU84Nil2vDdJ3uWDXVYu+E9WHCZI0wUAYDVR0jBEkw
R4AUcLp9oZV59VHHHO24A5IZ0Nc+KSehGaQXMBUxEzARBgNVBAMMCnRlYW01OS1u
ZXSCFBT+J7OsirgjB1poyc4LcaA2iY8ZMBMGA1UdJQQMMAoGCCsGAQUFBwMBMAsG
A1UdDwQEAwIFoDAYBgNVHREEETAPgg10ZWFtNTktc2VydmVyMA0GCSqGSIb3DQEB
CwUAA4IBAQAsD9iPfAEFe8F7AIoGrjqyXi+HiGqnpHIvPrHTaBwyn/MYan5Q/LqK
YtR2n3Gn4j4HWOWbtf96SUwVfr2tLEDDbo2BgNqIjf1HAOZQ9asivMgFOlYb2dSG
ZGtY4BEkIzJs1GLmXAthRlllknsb7L3cL8cMDn0XBgOFBHydwjJPI7jCpRgi2qy7
JeQtexPc+lISRJY8OnqOvedkBx1mAMbpj1MJ8MG7mx5qW8SNlVdUh+MouuBXw4/D
idbA79/WcgbzD9Kf24PvJ9kC88yqIdeXpJxMc9HY/7HbCR18GEwLjsj0nA95auKR
xQdpqHc+Dmq9XyWzVxZssUtd4hgXWXYu
-----END CERTIFICATE-----
