Certificate:
    Data:
        Version: 3 (0x2)
        Serial Number:
            91:7b:92:8a:72:21:3b:da:d4:f8:05:64:35:67:1b:90
        Signature Algorithm: sha256WithRSAEncryption
        Issuer: CN=team12-net
        Validity
            Not Before: Apr 20 00:10:11 2023 GMT
            Not After : Apr  4 00:10:11 2026 GMT
        Subject: CN=team12-server
        Subject Public Key Info:
            Public Key Algorithm: rsaEncryption
                Public-Key: (2048 bit)
                Modulus:
                    00:b9:37:01:5b:51:1b:41:e6:06:4e:f2:22:18:63:
                    af:00:da:40:4e:06:bb:3b:74:ab:6f:21:74:02:18:
                    00:6c:7d:2c:9f:02:0e:a5:4d:d5:f5:c9:74:a1:37:
                    a1:f9:b3:8f:5c:4b:e6:7a:0e:3f:e4:2f:a5:49:22:
                    8a:70:e2:9b:d9:39:ae:f2:4f:d3:49:6e:71:d3:32:
                    01:a8:70:b7:a1:33:95:51:31:37:3c:9b:1f:23:33:
                    9f:21:c2:d7:49:c3:3e:60:84:8b:c3:92:ca:a7:5f:
                    83:a9:f1:02:a5:8a:fe:e8:d7:c6:fb:c2:f0:fe:40:
                    2a:94:bf:b5:e5:a9:e6:48:06:79:49:27:92:14:64:
                    8e:b0:45:60:30:48:cc:5d:5f:f6:5a:89:e7:98:49:
                    cb:51:49:9b:36:57:b9:6b:ad:56:c7:9a:71:5f:16:
                    6e:d0:bb:77:94:42:63:ed:b5:61:c1:4a:59:d4:f6:
                    61:d2:f9:22:97:d1:04:b0:69:04:b4:27:51:8a:dc:
                    b9:0b:2c:c0:a0:26:a2:84:72:53:97:5e:b5:5c:7a:
                    e0:5e:24:e6:29:68:c5:7c:58:b0:bb:15:c5:86:69:
                    80:42:0b:62:26:bb:1f:ef:09:e2:a5:01:aa:f4:a4:
                    7e:87:ca:51:be:10:38:b5:7a:ad:88:a0:a3:da:c1:
                    88:55
                Exponent: 65537 (0x10001)
        X509v3 extensions:
            X509v3 Basic Constraints: 
                CA:FALSE
            X509v3 Subject Key Identifier: 
                1B:A1:97:22:9D:EE:B9:08:82:82:59:6A:DD:A5:34:D7:40:33:A1:85
            X509v3 Authority Key Identifier: 
                keyid:EE:63:27:56:4B:8C:1F:8A:A9:1E:BF:B8:02:02:58:BF:62:A7:3B:2C
                DirName:/CN=team12-net
                serial:31:EA:8E:60:2D:44:FB:84:D3:42:F7:ED:70:15:B7:30:D5:BE:70:3D
            X509v3 Extended Key Usage: 
                TLS Web Server Authentication
            X509v3 Key Usage: 
                Digital Signature, Key Encipherment
            X509v3 Subject Alternative Name: 
                DNS:team12-server
    Signature Algorithm: sha256WithRSAEncryption
    Signature Value:
        7f:fc:6b:4f:0d:f1:1f:7a:af:48:4b:50:5a:fc:40:17:3c:de:
        5a:10:77:94:aa:0b:0f:30:45:a6:00:f8:b0:6b:04:33:d1:6f:
        e6:1e:22:6a:ca:13:cb:99:7d:05:3a:e3:ee:27:e7:6d:c6:d7:
        1a:e5:5e:ff:5a:6c:dc:07:2a:bc:26:f4:22:d4:5b:65:3a:1a:
        9a:56:9a:ad:2f:82:f2:5d:8c:50:89:bb:bf:ae:01:6b:a0:a0:
        e6:38:87:42:a0:3b:9b:e6:f3:ac:91:be:54:91:02:52:cb:ac:
        e9:81:eb:0b:f5:0e:2d:19:43:52:d7:bc:2e:59:8c:ae:15:67:
        57:c1:80:e6:a8:e9:81:f1:e2:ab:78:14:98:f7:39:0c:93:6a:
        ed:04:63:d6:01:93:9d:7d:e3:7c:ba:2e:8f:5b:ea:05:5b:22:
        ce:69:b6:5a:4a:75:1a:65:e0:ad:fc:c2:80:61:38:3d:93:1e:
        09:e4:7b:64:5f:61:0b:76:8f:e8:98:35:7d:bb:71:20:ca:6b:
        cc:50:da:5a:1d:89:0d:26:c1:7d:71:b8:e9:ea:8b:27:86:1c:
        45:97:11:0f:ac:1a:ca:da:62:57:4a:30:e3:eb:72:ea:60:4c:
        3a:23:51:e8:6e:2c:f9:90:2e:49:63:b8:5d:3b:02:b7:c2:6e:
        6e:3b:04:52
-----BEGIN CERTIFICATE-----
MIIDdDCCAlygAwIBAgIRAJF7kopyITva1PgFZDVnG5AwDQYJKoZIhvcNAQELBQAw
FTETMBEGA1UEAwwKdGVhbTEyLW5ldDAeFw0yMzA0MjAwMDEwMTFaFw0yNjA0MDQw
MDEwMTFaMBgxFjAUBgNVBAMMDXRlYW0xMi1zZXJ2ZXIwggEiMA0GCSqGSIb3DQEB
AQUAA4IBDwAwggEKAoIBAQC5NwFbURtB5gZO8iIYY68A2kBOBrs7dKtvIXQCGABs
fSyfAg6lTdX1yXShN6H5s49cS+Z6Dj/kL6VJIopw4pvZOa7yT9NJbnHTMgGocLeh
M5VRMTc8mx8jM58hwtdJwz5ghIvDksqnX4Op8QKliv7o18b7wvD+QCqUv7XlqeZI
BnlJJ5IUZI6wRWAwSMxdX/ZaieeYSctRSZs2V7lrrVbHmnFfFm7Qu3eUQmPttWHB
SlnU9mHS+SKX0QSwaQS0J1GK3LkLLMCgJqKEclOXXrVceuBeJOYpaMV8WLC7FcWG
aYBCC2Imux/vCeKlAar0pH6HylG+EDi1eq2IoKPawYhVAgMBAAGjgbswgbgwCQYD
VR0TBAIwADAdBgNVHQ4EFgQUG6GXIp3uuQiCgllq3aU010AzoYUwUAYDVR0jBEkw
R4AU7mMnVkuMH4qpHr+4AgJYv2KnOyyhGaQXMBUxEzARBgNVBAMMCnRlYW0xMi1u
ZXSCFDHqjmAtRPuE00L37XAVtzDVvnA9MBMGA1UdJQQMMAoGCCsGAQUFBwMBMAsG
A1UdDwQEAwIFoDAYBgNVHREEETAPgg10ZWFtMTItc2VydmVyMA0GCSqGSIb3DQEB
CwUAA4IBAQB//GtPDfEfeq9IS1Ba/EAXPN5aEHeUqgsPMEWmAPiwawQz0W/mHiJq
yhPLmX0FOuPuJ+dtxtca5V7/WmzcByq8JvQi1FtlOhqaVpqtL4LyXYxQibu/rgFr
oKDmOIdCoDub5vOskb5UkQJSy6zpgesL9Q4tGUNS17wuWYyuFWdXwYDmqOmB8eKr
eBSY9zkMk2rtBGPWAZOdfeN8ui6PW+oFWyLOabZaSnUaZeCt/MKAYTg9kx4J5Htk
X2ELdo/omDV9u3EgymvMUNpaHYkNJsF9cbjp6osnhhxFlxEPrBrK2mJXSjDj63Lq
YEw6I1Hobiz5kC5JY7hdOwK3wm5uOwRS
-----END CERTIFICATE-----
