Certificate:
    Data:
        Version: 3 (0x2)
        Serial Number:
            dd:d1:c0:f6:ae:74:8c:06:e7:4c:a5:99:d8:a7:d0:29
        Signature Algorithm: sha256WithRSAEncryption
        Issuer: CN=team12-net
        Validity
            Not Before: Apr 20 00:10:10 2023 GMT
            Not After : Apr  4 00:10:10 2026 GMT
        Subject: CN=team12-client
        Subject Public Key Info:
            Public Key Algorithm: rsaEncryption
                Public-Key: (2048 bit)
                Modulus:
                    00:dc:51:d2:93:08:15:90:3f:01:ea:b3:ec:bf:e3:
                    b2:d4:2c:9b:e2:21:fc:9c:e0:9a:60:5e:07:40:c5:
                    9d:51:b0:89:b1:28:eb:27:50:a8:c7:d4:6f:63:5e:
                    57:7c:e6:2e:be:77:4a:5e:78:98:ba:44:7d:54:cd:
                    13:dd:ef:b5:a3:b2:73:9f:7f:57:8a:68:06:fd:dd:
                    5e:a5:b2:26:ac:8d:14:eb:93:55:1e:9d:f8:9d:ab:
                    de:09:c3:c8:50:a6:77:64:a4:6c:96:a4:90:e9:5d:
                    20:b4:43:e3:0d:af:f6:15:1c:cf:01:ee:c1:ae:7e:
                    4d:74:49:29:1d:a7:0e:31:43:76:66:3f:7d:bd:11:
                    7e:ad:54:00:d6:e8:2f:12:1d:2d:c6:21:c9:c2:5d:
                    95:54:2f:a5:94:5a:a5:d1:f7:14:66:06:a8:92:cc:
                    f6:93:71:53:8e:b8:ed:57:65:41:ee:0d:0e:18:c9:
                    17:33:4f:27:80:93:ad:ea:7a:95:cf:77:bf:21:b3:
                    7c:42:8e:94:6f:aa:0a:48:10:6b:c9:24:43:5f:06:
                    86:30:8d:60:f5:26:56:d4:dd:d5:f7:d8:ea:9f:b6:
                    ae:64:3f:85:d4:a0:8c:4d:fa:30:c2:84:59:95:4c:
                    1a:c3:4d:fb:42:9f:0e:2a:fb:ae:c4:9a:83:9f:ee:
                    2f:77
                Exponent: 65537 (0x10001)
        X509v3 extensions:
            X509v3 Basic Constraints: 
                CA:FALSE
            X509v3 Subject Key Identifier: 
                92:AB:F5:18:6B:33:A4:75:C6:9E:43:8A:F2:47:47:4C:D7:A2:F0:5F
            X509v3 Authority Key Identifier: 
                keyid:EE:63:27:56:4B:8C:1F:8A:A9:1E:BF:B8:02:02:58:BF:62:A7:3B:2C
                DirName:/CN=team12-net
                serial:31:EA:8E:60:2D:44:FB:84:D3:42:F7:ED:70:15:B7:30:D5:BE:70:3D
            X509v3 Extended Key Usage: 
                TLS Web Client Authentication
            X509v3 Key Usage: 
                Digital Signature
    Signature Algorithm: sha256WithRSAEncryption
    Signature Value:
        40:fc:38:bd:6a:33:64:d2:5c:2e:71:28:cd:e9:1b:1b:12:63:
        14:b6:52:c5:7d:bf:b2:60:3b:4c:9f:fb:bd:c0:b6:e7:21:f4:
        a4:47:36:32:fa:d9:0b:4a:47:58:3b:a7:2b:1a:ac:45:a8:40:
        0e:f4:c0:5c:39:78:5a:e3:7f:fb:23:6f:f3:de:52:a6:28:af:
        f2:1f:53:c9:f7:49:26:4c:4f:65:dd:fb:80:f5:6a:4e:d8:1c:
        ab:01:4b:9d:3c:d6:0b:ba:00:c8:a7:b5:03:b9:58:8c:87:c3:
        96:26:2f:9f:b2:e6:6b:72:4b:28:ed:1e:10:78:d3:17:3d:81:
        bb:da:cd:44:46:1c:c7:a9:70:fd:7d:81:54:b8:ec:6a:9f:b0:
        d7:d6:9c:ff:e2:e0:74:49:f8:9b:51:e2:1c:86:4f:d5:8b:93:
        99:59:79:73:ae:6c:a5:b3:fa:da:47:5c:57:94:82:c3:2a:f2:
        aa:6e:a7:58:a2:7a:e0:85:14:b2:24:5b:21:77:62:ca:c0:ad:
        da:a3:4d:96:f8:fb:9e:7a:09:6d:fb:11:1b:d5:30:27:23:3d:
        9d:2b:28:45:ff:8e:95:5d:e9:d5:5e:b7:78:71:54:18:f1:7e:
        c0:75:5f:f9:be:66:3d:6d:4a:8b:38:48:bb:47:67:fd:29:a2:
        9f:1a:eb:62
-----BEGIN CERTIFICATE-----
MIIDWjCCAkKgAwIBAgIRAN3RwPaudIwG50ylmdin0CkwDQYJKoZIhvcNAQELBQAw
FTETMBEGA1UEAwwKdGVhbTEyLW5ldDAeFw0yMzA0MjAwMDEwMTBaFw0yNjA0MDQw
MDEwMTBaMBgxFjAUBgNVBAMMDXRlYW0xMi1jbGllbnQwggEiMA0GCSqGSIb3DQEB
AQUAA4IBDwAwggEKAoIBAQDcUdKTCBWQPwHqs+y/47LULJviIfyc4JpgXgdAxZ1R
sImxKOsnUKjH1G9jXld85i6+d0peeJi6RH1UzRPd77WjsnOff1eKaAb93V6lsias
jRTrk1Uenfidq94Jw8hQpndkpGyWpJDpXSC0Q+MNr/YVHM8B7sGufk10SSkdpw4x
Q3ZmP329EX6tVADW6C8SHS3GIcnCXZVUL6WUWqXR9xRmBqiSzPaTcVOOuO1XZUHu
DQ4YyRczTyeAk63qepXPd78hs3xCjpRvqgpIEGvJJENfBoYwjWD1JlbU3dX32Oqf
tq5kP4XUoIxN+jDChFmVTBrDTftCnw4q+67EmoOf7i93AgMBAAGjgaEwgZ4wCQYD
VR0TBAIwADAdBgNVHQ4EFgQUkqv1GGszpHXGnkOK8kdHTNei8F8wUAYDVR0jBEkw
R4AU7mMnVkuMH4qpHr+4AgJYv2KnOyyhGaQXMBUxEzARBgNVBAMMCnRlYW0xMi1u
ZXSCFDHqjmAtRPuE00L37XAVtzDVvnA9MBMGA1UdJQQMMAoGCCsGAQUFBwMCMAsG
A1UdDwQEAwIHgDANBgkqhkiG9w0BAQsFAAOCAQEAQPw4vWozZNJcLnEozekbGxJj
FLZSxX2/smA7TJ/7vcC25yH0pEc2MvrZC0pHWDunKxqsRahADvTAXDl4WuN/+yNv
895Spiiv8h9TyfdJJkxPZd37gPVqTtgcqwFLnTzWC7oAyKe1A7lYjIfDliYvn7Lm
a3JLKO0eEHjTFz2Bu9rNREYcx6lw/X2BVLjsap+w19ac/+LgdEn4m1HiHIZP1YuT
mVl5c65spbP62kdcV5SCwyryqm6nWKJ64IUUsiRbIXdiysCt2qNNlvj7nnoJbfsR
G9UwJyM9nSsoRf+OlV3p1V63eHFUGPF+wHVf+b5mPW1KizhIu0dn/SminxrrYg==
-----END CERTIFICATE-----
