Certificate:
    Data:
        Version: 3 (0x2)
        Serial Number:
            6d:56:50:71:b3:42:2d:e3:68:e2:ce:ab:2c:4c:09:bb
        Signature Algorithm: sha256WithRSAEncryption
        Issuer: CN=team36-net
        Validity
            Not Before: Apr 20 22:54:20 2023 GMT
            Not After : Apr  4 22:54:20 2026 GMT
        Subject: CN=team36-client
        Subject Public Key Info:
            Public Key Algorithm: rsaEncryption
                Public-Key: (2048 bit)
                Modulus:
                    00:92:86:6b:4c:37:3d:42:ac:44:c0:a7:c9:1b:89:
                    f8:c8:c0:93:a8:d0:ee:7c:7a:c4:86:ae:a6:83:dc:
                    69:54:36:b2:eb:82:b7:85:47:1e:be:3b:db:ba:ad:
                    0d:77:88:a0:d0:fb:0f:58:0c:53:17:d6:bb:88:97:
                    a0:4f:06:c3:25:7d:4e:b1:32:08:69:40:b5:65:22:
                    44:d9:ad:b6:67:9c:ee:7b:85:e0:bc:a3:6a:25:bc:
                    3b:90:dd:2b:5f:26:0d:de:b0:35:2a:cc:a3:46:6c:
                    f8:63:40:c2:11:f8:c1:fa:c9:20:fe:f2:fa:2e:62:
                    ea:7e:ba:d6:43:e8:ce:86:20:65:71:ef:69:89:3c:
                    b9:34:32:f2:2d:d9:0e:78:29:99:0f:45:2e:e7:4a:
                    d1:f1:66:18:d0:0f:c9:0e:f0:ea:27:a0:0b:dd:38:
                    f6:06:b5:f5:6d:de:3e:e6:8a:19:47:da:12:95:e1:
                    9f:db:72:c6:2c:5a:59:39:54:4b:c2:fa:51:42:81:
                    46:c2:19:7e:f6:83:d9:fe:09:85:7c:46:af:02:18:
                    db:fc:14:38:73:19:c4:e8:9a:d8:cf:1a:64:d8:2b:
                    11:ef:92:4a:59:42:34:20:0a:5c:f7:d3:35:29:a2:
                    94:7f:3d:05:b1:61:2f:39:42:f7:9b:07:d6:3f:36:
                    f7:41
                Exponent: 65537 (0x10001)
        X509v3 extensions:
            X509v3 Basic Constraints: 
                CA:FALSE
            X509v3 Subject Key Identifier: 
                F7:AE:AF:11:6F:B2:34:08:0F:F1:39:45:97:9A:E3:CA:84:43:4B:04
            X509v3 Authority Key Identifier: 
                keyid:8B:40:30:70:06:65:34:25:FE:1E:BA:25:BA:05:F7:0C:1E:9D:53:CE
                DirName:/CN=team36-net
                serial:57:F6:08:3B:E3:1E:34:CE:E3:4F:C6:B4:7A:F7:AF:C4:57:2D:6A:36
            X509v3 Extended Key Usage: 
                TLS Web Client Authentication
            X509v3 Key Usage: 
                Digital Signature
    Signature Algorithm: sha256WithRSAEncryption
    Signature Value:
        a8:a1:5e:50:32:1a:35:c1:39:8e:a8:0a:a9:5e:85:31:42:aa:
        ab:f9:72:44:9b:fc:f4:7b:f7:bf:09:dc:10:46:b3:18:bc:d6:
        7b:ac:b1:7e:75:3e:17:16:97:42:da:e4:d0:a4:ee:63:fd:56:
        cf:7f:20:09:69:d5:84:82:13:e4:41:2c:60:58:5f:33:aa:8e:
        de:04:3f:bc:ec:2b:c6:27:e2:80:ad:46:f3:55:6a:33:ba:36:
        40:01:ef:d2:e4:7c:45:29:6d:a1:79:45:75:67:1b:13:02:57:
        d9:ef:86:45:6c:b2:ca:a2:16:a5:df:3a:ec:54:d1:42:e3:44:
        34:09:2c:11:62:b3:86:32:93:ef:74:6c:3c:fa:c8:6b:00:a9:
        1c:4a:7b:97:75:38:af:2c:44:51:f4:ef:35:50:1d:ab:42:30:
        4a:27:bd:91:3e:3e:3b:9e:be:32:2e:60:e2:8f:ef:63:a9:73:
        84:e8:84:27:2e:99:6e:81:67:c7:e6:94:f9:cb:df:0f:b5:9e:
        00:10:01:a8:ee:b8:57:d9:0a:c6:5e:51:06:49:9a:76:9a:cb:
        0b:6d:0b:68:37:9d:48:e4:2a:47:1c:fe:03:d2:ac:5e:0f:0e:
        83:01:b2:6b:67:e0:3e:24:6e:5a:02:aa:75:e9:4d:28:da:21:
        f2:8b:2c:1c
-----BEGIN CERTIFICATE-----
MIIDWTCCAkGgAwIBAgIQbVZQcbNCLeNo4s6rLEwJuzANBgkqhkiG9w0BAQsFADAV
MRMwEQYDVQQDDAp0ZWFtMzYtbmV0MB4XDTIzMDQyMDIyNTQyMFoXDTI2MDQwNDIy
NTQyMFowGDEWMBQGA1UEAwwNdGVhbTM2LWNsaWVudDCCASIwDQYJKoZIhvcNAQEB
BQADggEPADCCAQoCggEBAJKGa0w3PUKsRMCnyRuJ+MjAk6jQ7nx6xIaupoPcaVQ2
suuCt4VHHr4727qtDXeIoND7D1gMUxfWu4iXoE8GwyV9TrEyCGlAtWUiRNmttmec
7nuF4LyjaiW8O5DdK18mDd6wNSrMo0Zs+GNAwhH4wfrJIP7y+i5i6n661kPozoYg
ZXHvaYk8uTQy8i3ZDngpmQ9FLudK0fFmGNAPyQ7w6iegC9049ga19W3ePuaKGUfa
EpXhn9tyxixaWTlUS8L6UUKBRsIZfvaD2f4JhXxGrwIY2/wUOHMZxOia2M8aZNgr
Ee+SSllCNCAKXPfTNSmilH89BbFhLzlC95sH1j8290ECAwEAAaOBoTCBnjAJBgNV
HRMEAjAAMB0GA1UdDgQWBBT3rq8Rb7I0CA/xOUWXmuPKhENLBDBQBgNVHSMESTBH
gBSLQDBwBmU0Jf4euiW6BfcMHp1TzqEZpBcwFTETMBEGA1UEAwwKdGVhbTM2LW5l
dIIUV/YIO+MeNM7jT8a0evevxFctajYwEwYDVR0lBAwwCgYIKwYBBQUHAwIwCwYD
VR0PBAQDAgeAMA0GCSqGSIb3DQEBCwUAA4IBAQCooV5QMho1wTmOqAqpXoUxQqqr
+XJEm/z0e/e/CdwQRrMYvNZ7rLF+dT4XFpdC2uTQpO5j/VbPfyAJadWEghPkQSxg
WF8zqo7eBD+87CvGJ+KArUbzVWozujZAAe/S5HxFKW2heUV1ZxsTAlfZ74ZFbLLK
ohal3zrsVNFC40Q0CSwRYrOGMpPvdGw8+shrAKkcSnuXdTivLERR9O81UB2rQjBK
J72RPj47nr4yLmDij+9jqXOE6IQnLplugWfH5pT5y98PtZ4AEAGo7rhX2QrGXlEG
SZp2mssLbQtoN51I5CpHHP4D0qxeDw6DAbJrZ+A+JG5aAqp16U0o2iHyiywc
-----END CERTIFICATE-----
