Certificate:
    Data:
        Version: 3 (0x2)
        Serial Number:
            8a:2b:17:01:a2:d0:7a:bc:33:86:92:3f:4f:d1:70:7f
        Signature Algorithm: sha256WithRSAEncryption
        Issuer: CN=team36-net
        Validity
            Not Before: Apr 20 22:54:21 2023 GMT
            Not After : Apr  4 22:54:21 2026 GMT
        Subject: CN=team36-server
        Subject Public Key Info:
            Public Key Algorithm: rsaEncryption
                Public-Key: (2048 bit)
                Modulus:
                    00:a1:22:63:be:6a:49:00:fb:1a:86:f1:74:d0:49:
                    65:39:d5:59:dc:0e:c0:16:78:e4:37:35:fe:8b:e5:
                    15:2b:fc:7d:c1:8e:24:46:5e:4f:61:e5:ea:16:2f:
                    8d:97:54:2a:9b:12:9e:17:13:1b:4d:11:ca:ed:b1:
                    36:bb:fc:1c:a8:c1:40:af:cf:0d:89:0e:b5:5f:96:
                    b9:b1:d9:5a:dd:7a:8b:15:4a:ba:09:ff:30:bb:ef:
                    15:1f:29:f2:4e:31:8f:a0:6d:31:85:94:15:f8:9c:
                    80:58:fd:f9:22:3d:b3:c6:28:1f:02:cb:10:db:f9:
                    b9:85:0d:4c:ec:84:1b:fe:0c:2f:08:c4:16:b2:18:
                    e4:ad:60:0b:f0:6a:0c:42:13:54:af:38:45:8e:68:
                    5c:ba:f4:22:57:9a:d7:e8:81:45:60:65:2b:bb:32:
                    d2:31:83:fc:da:ba:61:b7:10:8b:e9:a7:44:c3:e5:
                    2b:a5:24:24:34:71:a7:2e:a1:55:68:aa:eb:74:2d:
                    8e:65:1c:9a:8c:3a:8f:c6:17:9a:85:b3:aa:65:5d:
                    de:7a:b0:55:dd:a9:20:c2:5c:0e:a7:66:18:01:66:
                    23:72:97:03:d5:9a:be:74:f3:03:e3:46:0f:50:66:
                    6a:30:c0:17:51:44:3f:d6:0c:81:c1:f8:04:09:96:
                    7d:63
                Exponent: 65537 (0x10001)
        X509v3 extensions:
            X509v3 Basic Constraints: 
                CA:FALSE
            X509v3 Subject Key Identifier: 
                25:3E:98:ED:8C:28:E9:54:F6:D1:4E:84:28:EF:23:15:BB:A6:6A:D9
            X509v3 Authority Key Identifier: 
                keyid:8B:40:30:70:06:65:34:25:FE:1E:BA:25:BA:05:F7:0C:1E:9D:53:CE
                DirName:/CN=team36-net
                serial:57:F6:08:3B:E3:1E:34:CE:E3:4F:C6:B4:7A:F7:AF:C4:57:2D:6A:36
            X509v3 Extended Key Usage: 
                TLS Web Server Authentication
            X509v3 Key Usage: 
                Digital Signature, Key Encipherment
            X509v3 Subject Alternative Name: 
                DNS:team36-server
    Signature Algorithm: sha256WithRSAEncryption
    Signature Value:
        43:4d:71:72:6e:7c:43:27:be:21:12:cd:ec:e4:fe:f1:b2:d6:
        1b:e4:66:0f:30:dd:d5:f9:41:e2:65:00:ba:48:b0:25:26:cf:
        15:7a:82:71:53:ea:7e:00:1c:f4:35:d3:18:f9:96:b2:36:81:
        40:65:b6:a9:96:d7:19:e0:7e:ca:a8:c7:25:f0:17:04:3d:c0:
        b8:4e:51:97:05:29:f1:c9:d8:87:7b:40:ee:10:e0:aa:31:3f:
        61:6a:bd:5d:6b:14:19:ed:9b:aa:0b:5a:12:20:6c:0c:66:a4:
        ba:50:48:da:cb:d6:c8:40:6a:1b:cc:eb:55:0c:96:59:ee:bd:
        92:7c:51:97:cb:8d:a7:2d:ef:e6:25:83:6f:1b:17:e8:53:76:
        9a:31:3f:df:01:c9:d9:22:62:dc:8b:95:17:8d:88:2b:f9:54:
        66:cd:d4:3a:0c:d0:9e:99:fb:de:47:e2:d6:1c:83:af:03:0e:
        1f:9a:fa:4e:b7:49:dd:f8:3c:1b:d8:09:ef:05:3d:aa:7c:40:
        7a:63:e1:ad:5c:f6:cd:48:8a:69:bf:18:b8:87:40:7a:98:25:
        2b:39:e6:73:80:fc:92:6f:cd:b2:e2:f2:33:88:85:d9:33:3f:
        3c:cf:76:09:28:b0:37:a6:a7:90:e4:3b:ef:69:c9:59:7c:d8:
        05:26:d4:98
-----BEGIN CERTIFICATE-----
MIIDdDCCAlygAwIBAgIRAIorFwGi0Hq8M4aSP0/RcH8wDQYJKoZIhvcNAQELBQAw
FTETMBEGA1UEAwwKdGVhbTM2LW5ldDAeFw0yMzA0MjAyMjU0MjFaFw0yNjA0MDQy
MjU0MjFaMBgxFjAUBgNVBAMMDXRlYW0zNi1zZXJ2ZXIwggEiMA0GCSqGSIb3DQEB
AQUAA4IBDwAwggEKAoIBAQChImO+akkA+xqG8XTQSWU51VncDsAWeOQ3Nf6L5RUr
/H3BjiRGXk9h5eoWL42XVCqbEp4XExtNEcrtsTa7/ByowUCvzw2JDrVflrmx2Vrd
eosVSroJ/zC77xUfKfJOMY+gbTGFlBX4nIBY/fkiPbPGKB8CyxDb+bmFDUzshBv+
DC8IxBayGOStYAvwagxCE1SvOEWOaFy69CJXmtfogUVgZSu7MtIxg/zaumG3EIvp
p0TD5SulJCQ0cacuoVVoqut0LY5lHJqMOo/GF5qFs6plXd56sFXdqSDCXA6nZhgB
ZiNylwPVmr508wPjRg9QZmowwBdRRD/WDIHB+AQJln1jAgMBAAGjgbswgbgwCQYD
VR0TBAIwADAdBgNVHQ4EFgQUJT6Y7Ywo6VT20U6EKO8jFbumatkwUAYDVR0jBEkw
R4AUi0AwcAZlNCX+HrolugX3DB6dU86hGaQXMBUxEzARBgNVBAMMCnRlYW0zNi1u
ZXSCFFf2CDvjHjTO40/GtHr3r8RXLWo2MBMGA1UdJQQMMAoGCCsGAQUFBwMBMAsG
A1UdDwQEAwIFoDAYBgNVHREEETAPgg10ZWFtMzYtc2VydmVyMA0GCSqGSIb3DQEB
CwUAA4IBAQBDTXFybnxDJ74hEs3s5P7xstYb5GYPMN3V+UHiZQC6SLAlJs8VeoJx
U+p+ABz0NdMY+ZayNoFAZbapltcZ4H7KqMcl8BcEPcC4TlGXBSnxydiHe0DuEOCq
MT9har1daxQZ7ZuqC1oSIGwMZqS6UEjay9bIQGobzOtVDJZZ7r2SfFGXy42nLe/m
JYNvGxfoU3aaMT/fAcnZImLci5UXjYgr+VRmzdQ6DNCemfveR+LWHIOvAw4fmvpO
t0nd+Dwb2AnvBT2qfEB6Y+GtXPbNSIppvxi4h0B6mCUrOeZzgPySb82y4vIziIXZ
Mz88z3YJKLA3pqeQ5DvvaclZfNgFJtSY
-----END CERTIFICATE-----
