Certificate:
    Data:
        Version: 3 (0x2)
        Serial Number:
            c7:12:8b:72:90:30:22:a4:93:0f:80:19:a0:47:f6:f4
        Signature Algorithm: sha256WithRSAEncryption
        Issuer: CN=team36-net
        Validity
            Not Before: Apr 20 00:10:48 2023 GMT
            Not After : Apr  4 00:10:48 2026 GMT
        Subject: CN=team36-client
        Subject Public Key Info:
            Public Key Algorithm: rsaEncryption
                Public-Key: (2048 bit)
                Modulus:
                    00:b3:65:b6:08:75:97:c2:93:d9:1b:06:aa:54:9a:
                    c5:1b:4f:b9:95:b0:c8:13:a0:e0:ed:96:44:ca:46:
                    1b:aa:56:df:0c:6c:ab:90:ee:3b:da:4f:b0:df:1e:
                    48:09:35:a4:60:fb:b3:7a:94:38:69:28:9d:d9:27:
                    e1:41:b4:0f:2d:88:32:a2:dc:38:4a:0a:e9:25:31:
                    52:e6:b7:90:78:78:1c:f4:d9:48:63:c5:87:c6:df:
                    64:2f:1d:63:04:99:3f:f8:a2:17:b3:1b:21:b7:de:
                    fa:59:63:97:f6:da:ad:45:68:90:02:52:f1:21:ac:
                    ee:32:01:3d:a7:3f:be:dc:ca:8e:94:41:98:a4:10:
                    b4:40:34:db:dc:19:94:89:79:4a:f8:3c:2b:2b:bb:
                    d6:40:00:83:6c:54:d5:7b:fc:97:fe:8d:92:2c:e0:
                    b2:03:55:2f:63:ec:d9:9c:a4:1b:87:51:86:62:8b:
                    c0:c7:d8:37:1a:29:5f:b9:f2:0c:c8:15:98:1a:98:
                    fc:25:d3:55:c6:f1:18:25:fd:38:31:5e:06:38:df:
                    48:91:c8:65:7f:9f:72:8f:5a:94:74:c4:2c:ae:13:
                    b3:bb:e6:1d:c1:27:22:58:d6:b5:27:e2:31:a8:83:
                    30:aa:65:39:9f:a0:35:8c:7d:62:40:57:c6:ec:02:
                    20:7b
                Exponent: 65537 (0x10001)
        X509v3 extensions:
            X509v3 Basic Constraints: 
                CA:FALSE
            X509v3 Subject Key Identifier: 
                A7:AF:DE:F8:55:B5:E3:C9:5D:37:16:DD:93:C5:64:50:22:27:53:7B
            X509v3 Authority Key Identifier: 
                keyid:3F:0A:CD:B9:7E:92:74:80:6E:3F:AB:9E:4C:0A:06:01:42:D2:F4:90
                DirName:/CN=team36-net
                serial:3F:CC:0A:17:B0:3C:C8:95:40:18:09:D9:5A:25:0E:2B:4B:77:73:26
            X509v3 Extended Key Usage: 
                TLS Web Client Authentication
            X509v3 Key Usage: 
                Digital Signature
    Signature Algorithm: sha256WithRSAEncryption
    Signature Value:
        2b:74:f6:e3:bf:88:d2:26:0b:3d:38:3a:56:b7:f3:46:af:e5:
        c3:9b:b8:02:c1:10:4f:b3:1d:36:45:10:14:2c:00:e1:1e:1b:
        e9:47:83:43:fc:ec:b2:1b:b6:45:91:8f:db:b5:02:14:e7:55:
        cd:37:f3:8f:13:f1:4a:87:dd:93:15:f9:75:0e:49:b4:8d:13:
        ab:56:18:be:ff:d7:28:4c:6f:95:0e:43:04:73:8d:fc:17:24:
        b6:25:19:97:d7:b2:ea:6a:af:98:35:7c:a6:5f:31:e5:08:ea:
        26:15:7c:4f:2d:b4:4f:25:fb:2d:a5:34:ab:25:6b:75:90:7c:
        7c:b6:03:df:b7:e8:4d:12:da:8a:f5:86:cc:48:91:79:18:ba:
        45:0b:5e:4f:02:92:ca:b2:f5:fb:fb:21:16:37:95:75:5b:6d:
        7b:e0:6b:45:12:75:83:da:6d:27:ff:c8:57:b3:73:53:9d:c4:
        e0:a1:5a:75:e8:b9:f5:42:2f:81:fc:71:d2:55:af:3a:fa:79:
        d3:f4:8a:f3:63:c1:1e:d3:81:84:2b:8d:f6:92:44:bb:c7:2d:
        af:68:87:93:08:b6:85:5d:0a:fe:fb:1e:16:d9:63:a9:61:2f:
        99:11:d7:8b:31:cc:89:53:9e:c3:54:d0:7f:75:71:0c:17:ae:
        bf:c7:6c:75
-----BEGIN CERTIFICATE-----
MIIDWjCCAkKgAwIBAgIRAMcSi3KQMCKkkw+AGaBH9vQwDQYJKoZIhvcNAQELBQAw
FTETMBEGA1UEAwwKdGVhbTM2LW5ldDAeFw0yMzA0MjAwMDEwNDhaFw0yNjA0MDQw
MDEwNDhaMBgxFjAUBgNVBAMMDXRlYW0zNi1jbGllbnQwggEiMA0GCSqGSIb3DQEB
AQUAA4IBDwAwggEKAoIBAQCzZbYIdZfCk9kbBqpUmsUbT7mVsMgToODtlkTKRhuq
Vt8MbKuQ7jvaT7DfHkgJNaRg+7N6lDhpKJ3ZJ+FBtA8tiDKi3DhKCuklMVLmt5B4
eBz02UhjxYfG32QvHWMEmT/4ohezGyG33vpZY5f22q1FaJACUvEhrO4yAT2nP77c
yo6UQZikELRANNvcGZSJeUr4PCsru9ZAAINsVNV7/Jf+jZIs4LIDVS9j7NmcpBuH
UYZii8DH2DcaKV+58gzIFZgamPwl01XG8Rgl/TgxXgY430iRyGV/n3KPWpR0xCyu
E7O75h3BJyJY1rUn4jGogzCqZTmfoDWMfWJAV8bsAiB7AgMBAAGjgaEwgZ4wCQYD
VR0TBAIwADAdBgNVHQ4EFgQUp6/e+FW148ldNxbdk8VkUCInU3swUAYDVR0jBEkw
R4AUPwrNuX6SdIBuP6ueTAoGAULS9JChGaQXMBUxEzARBgNVBAMMCnRlYW0zNi1u
ZXSCFD/MChewPMiVQBgJ2VolDitLd3MmMBMGA1UdJQQMMAoGCCsGAQUFBwMCMAsG
A1UdDwQEAwIHgDANBgkqhkiG9w0BAQsFAAOCAQEAK3T247+I0iYLPTg6VrfzRq/l
w5u4AsEQT7MdNkUQFCwA4R4b6UeDQ/zsshu2RZGP27UCFOdVzTfzjxPxSofdkxX5
dQ5JtI0Tq1YYvv/XKExvlQ5DBHON/BcktiUZl9ey6mqvmDV8pl8x5QjqJhV8Ty20
TyX7LaU0qyVrdZB8fLYD37foTRLaivWGzEiReRi6RQteTwKSyrL1+/shFjeVdVtt
e+BrRRJ1g9ptJ//IV7NzU53E4KFadei59UIvgfxx0lWvOvp50/SK82PBHtOBhCuN
9pJEu8ctr2iHkwi2hV0K/vseFtljqWEvmRHXizHMiVOew1TQf3VxDBeuv8dsdQ==
-----END CERTIFICATE-----
