Certificate:
    Data:
        Version: 3 (0x2)
        Serial Number:
            d0:8a:00:df:ca:4a:b2:73:37:82:40:91:7a:2c:91:2f
        Signature Algorithm: sha256WithRSAEncryption
        Issuer: CN=team6-net
        Validity
            Not Before: Apr 20 00:10:02 2023 GMT
            Not After : Apr  4 00:10:02 2026 GMT
        Subject: CN=team6-client
        Subject Public Key Info:
            Public Key Algorithm: rsaEncryption
                Public-Key: (2048 bit)
                Modulus:
                    00:88:d9:42:e5:53:86:bb:52:0b:b9:a3:d9:b8:61:
                    e2:9d:d2:23:9e:3f:3a:4a:7c:c3:78:a2:81:92:5d:
                    24:c6:27:f9:39:5d:96:cc:c8:dc:13:ca:45:1c:ca:
                    e6:44:28:db:48:f2:a5:f7:9a:54:35:a5:fb:a5:45:
                    26:6b:f3:35:14:54:ee:c6:5b:d4:e9:20:b0:c1:b5:
                    13:7d:b0:6c:f2:24:09:b0:3b:62:90:4f:26:dd:a7:
                    7e:f4:61:a5:3b:9e:5c:37:16:fd:5f:72:af:04:0b:
                    04:e4:d5:f0:db:a7:13:ef:f3:0e:80:15:3c:99:53:
                    bf:6d:f5:27:df:05:65:e6:20:8e:9c:c9:e2:9e:e6:
                    a2:01:2f:30:c8:61:dd:b9:a1:55:85:f0:6e:24:2d:
                    a6:a9:ec:c7:2f:c6:62:1a:ac:63:cb:dc:85:52:62:
                    d7:57:4b:62:86:a2:fb:40:24:a3:2b:f5:69:07:7c:
                    28:0a:96:5f:7a:69:83:7c:39:10:97:70:14:94:e8:
                    ff:c2:9d:8d:9a:f8:c4:e3:e7:3f:17:20:32:74:29:
                    13:fd:17:f3:58:01:05:b2:57:97:4b:4b:db:ed:37:
                    a3:f4:56:1a:f5:03:4e:d4:82:53:91:4e:7c:1a:57:
                    b4:45:ab:e1:23:d6:3f:e7:ff:04:ee:49:a4:19:5c:
                    46:93
                Exponent: 65537 (0x10001)
        X509v3 extensions:
            X509v3 Basic Constraints: 
                CA:FALSE
            X509v3 Subject Key Identifier: 
                DD:A6:15:A9:E0:17:53:72:5E:E4:60:55:FB:41:BA:79:0F:46:63:95
            X509v3 Authority Key Identifier: 
                keyid:8D:88:40:02:BA:C5:CC:13:5A:3B:84:C9:04:7B:A9:23:85:88:63:59
                DirName:/CN=team6-net
                serial:6C:70:9F:91:F5:A8:3D:B2:B0:AD:D9:D9:E5:DB:06:F6:63:C4:A7:E5
            X509v3 Extended Key Usage: 
                TLS Web Client Authentication
            X509v3 Key Usage: 
                Digital Signature
    Signature Algorithm: sha256WithRSAEncryption
    Signature Value:
        3d:8d:31:ff:83:bf:95:42:1e:4a:3e:2a:8d:db:2a:bf:ab:7e:
        2f:f5:70:56:10:3e:c0:9e:34:9e:0d:e6:ad:aa:d1:e7:87:8b:
        90:20:99:99:df:db:12:e9:c9:65:e5:3e:9f:c3:bd:b3:31:4b:
        75:30:9e:00:89:d1:c3:25:23:5b:04:45:66:b5:55:5a:8c:78:
        0a:9b:06:f1:c7:4b:30:84:b9:34:3a:26:a5:7f:e8:27:38:66:
        10:a2:47:9b:6c:4a:c4:97:53:a3:47:63:3d:10:45:e7:a7:0d:
        0a:9e:69:af:34:52:d0:de:d4:25:ce:d8:d0:ab:12:96:a7:c2:
        6e:57:40:a3:e7:4a:54:00:a7:da:12:8b:ca:a0:81:d2:db:3f:
        90:92:5b:ba:f6:81:ea:da:ad:74:11:90:bf:78:c6:6f:39:5c:
        6d:5b:2a:aa:03:dd:14:24:bd:70:de:70:4a:f5:51:df:3a:f3:
        ae:5b:15:ef:7c:25:d5:d3:80:ed:7c:6d:7d:1e:d3:dd:31:a6:
        9f:20:3f:37:23:6e:b9:1b:73:89:de:55:ef:f8:7a:32:b1:42:
        21:20:aa:77:6c:b8:fb:47:ac:9c:a1:2d:33:02:12:11:f6:d4:
        d7:ad:1b:ee:5c:10:ff:b4:38:d8:38:ea:8c:75:a7:45:ee:c0:
        9f:04:c8:6c
-----BEGIN CERTIFICATE-----
MIIDVzCCAj+gAwIBAgIRANCKAN/KSrJzN4JAkXoskS8wDQYJKoZIhvcNAQELBQAw
FDESMBAGA1UEAwwJdGVhbTYtbmV0MB4XDTIzMDQyMDAwMTAwMloXDTI2MDQwNDAw
MTAwMlowFzEVMBMGA1UEAwwMdGVhbTYtY2xpZW50MIIBIjANBgkqhkiG9w0BAQEF
AAOCAQ8AMIIBCgKCAQEAiNlC5VOGu1ILuaPZuGHindIjnj86SnzDeKKBkl0kxif5
OV2WzMjcE8pFHMrmRCjbSPKl95pUNaX7pUUma/M1FFTuxlvU6SCwwbUTfbBs8iQJ
sDtikE8m3ad+9GGlO55cNxb9X3KvBAsE5NXw26cT7/MOgBU8mVO/bfUn3wVl5iCO
nMninuaiAS8wyGHduaFVhfBuJC2mqezHL8ZiGqxjy9yFUmLXV0tihqL7QCSjK/Vp
B3woCpZfemmDfDkQl3AUlOj/wp2NmvjE4+c/FyAydCkT/RfzWAEFsleXS0vb7Tej
9FYa9QNO1IJTkU58Gle0RavhI9Y/5/8E7kmkGVxGkwIDAQABo4GgMIGdMAkGA1Ud
EwQCMAAwHQYDVR0OBBYEFN2mFangF1NyXuRgVftBunkPRmOVME8GA1UdIwRIMEaA
FI2IQAK6xcwTWjuEyQR7qSOFiGNZoRikFjAUMRIwEAYDVQQDDAl0ZWFtNi1uZXSC
FGxwn5H1qD2ysK3Z2eXbBvZjxKflMBMGA1UdJQQMMAoGCCsGAQUFBwMCMAsGA1Ud
DwQEAwIHgDANBgkqhkiG9w0BAQsFAAOCAQEAPY0x/4O/lUIeSj4qjdsqv6t+L/Vw
VhA+wJ40ng3mrarR54eLkCCZmd/bEunJZeU+n8O9szFLdTCeAInRwyUjWwRFZrVV
Wox4CpsG8cdLMIS5NDompX/oJzhmEKJHm2xKxJdTo0djPRBF56cNCp5przRS0N7U
Jc7Y0KsSlqfCbldAo+dKVACn2hKLyqCB0ts/kJJbuvaB6tqtdBGQv3jGbzlcbVsq
qgPdFCS9cN5wSvVR3zrzrlsV73wl1dOA7XxtfR7T3TGmnyA/NyNuuRtzid5V7/h6
MrFCISCqd2y4+0esnKEtMwISEfbU160b7lwQ/7Q42DjqjHWnRe7AnwTIbA==
-----END CERTIFICATE-----
