Certificate:
    Data:
        Version: 3 (0x2)
        Serial Number:
            24:af:1a:35:58:ed:d0:94:80:07:19:ae:05:84:57:d8
        Signature Algorithm: sha256WithRSAEncryption
        Issuer: CN=team39-net
        Validity
            Not Before: Apr 20 00:10:52 2023 GMT
            Not After : Apr  4 00:10:52 2026 GMT
        Subject: CN=team39-client
        Subject Public Key Info:
            Public Key Algorithm: rsaEncryption
                Public-Key: (2048 bit)
                Modulus:
                    00:90:87:e9:51:0e:6e:98:ec:79:ee:b7:5b:ec:3b:
                    43:4c:e7:55:69:89:11:55:b6:0a:98:90:30:fd:ff:
                    59:8a:eb:bb:79:0e:11:aa:a4:90:7c:a2:08:ce:bc:
                    9d:17:14:41:a8:2c:16:e0:28:95:d1:a4:ec:54:fe:
                    88:73:0c:66:68:4a:5e:7c:4e:e4:6b:14:ee:e4:cb:
                    1b:05:dd:4c:ae:6e:d6:e7:42:79:00:7d:a2:57:7f:
                    52:ea:6f:0a:1b:6f:a1:dc:f3:7f:e2:da:4d:b0:c9:
                    2f:c8:e2:24:30:9c:7c:4a:32:11:05:f1:96:5d:6f:
                    9f:1e:e2:ba:7b:59:c3:04:11:37:18:d8:6c:f6:a4:
                    d2:d2:c2:f7:1b:f5:21:67:3f:0d:24:fe:f1:6b:bc:
                    57:2e:fd:cc:56:8b:26:78:a4:22:55:5c:f1:46:cf:
                    b2:b0:36:40:61:49:c1:b9:c1:a1:ff:27:eb:63:ed:
                    a4:49:4a:26:29:37:61:b1:90:d0:d9:7b:76:b5:66:
                    ae:80:c8:73:05:af:42:68:29:de:fd:61:6d:5a:22:
                    d4:55:01:03:5c:80:41:d6:04:8a:bd:9b:ff:9a:79:
                    df:18:02:9e:5f:e5:7c:34:d7:47:44:3c:ef:9f:16:
                    80:43:70:bc:5c:62:82:c7:5d:04:16:84:ff:e7:f6:
                    98:55
                Exponent: 65537 (0x10001)
        X509v3 extensions:
            X509v3 Basic Constraints: 
                CA:FALSE
            X509v3 Subject Key Identifier: 
                DE:B3:5E:AB:B1:DB:5C:BD:3E:87:8E:12:DB:E7:52:5D:94:A6:80:5D
            X509v3 Authority Key Identifier: 
                keyid:19:73:8D:1B:EE:96:14:32:4A:0F:66:C4:39:A8:6A:4B:AC:AD:A9:AB
                DirName:/CN=team39-net
                serial:23:8D:E4:CA:66:10:64:8D:29:65:69:CC:C7:B4:7C:33:D0:A9:A6:96
            X509v3 Extended Key Usage: 
                TLS Web Client Authentication
            X509v3 Key Usage: 
                Digital Signature
    Signature Algorithm: sha256WithRSAEncryption
    Signature Value:
        19:35:2b:4a:91:8e:5e:87:a6:c0:2d:a6:82:4a:6c:9c:72:4b:
        8b:76:d4:25:c3:cb:11:71:e4:c7:15:d7:cb:ab:e6:94:51:ba:
        af:d5:cc:53:c6:cf:21:34:e4:aa:56:75:76:49:25:e3:15:3e:
        5e:23:ac:cd:a4:e3:03:a6:00:6f:b4:44:b1:27:be:b2:77:88:
        b4:b1:1b:7f:c1:21:1c:c3:9e:c6:46:d1:25:49:0e:61:f9:93:
        8b:93:27:a7:33:b7:87:7e:ef:8b:9d:e9:c1:83:90:2a:68:e9:
        36:7d:de:ae:7f:b0:37:2a:66:c7:a5:4c:c9:1d:a8:ba:e6:ca:
        7c:2a:f0:74:43:c3:bc:2f:b4:5a:34:ef:1f:f4:63:aa:c3:dd:
        0c:d2:e6:d6:db:6a:cc:b3:6b:f5:6e:de:3f:30:b6:4c:eb:26:
        c2:71:7f:c2:c7:67:9f:c5:65:ea:b5:c1:85:43:96:5d:e5:8c:
        af:8f:c7:fa:69:b8:0b:fc:22:f5:40:97:f2:9e:6e:d9:21:2c:
        c3:c8:72:df:7b:5d:da:a1:57:69:79:dd:c3:c0:57:b2:22:ec:
        98:16:a9:51:96:ef:ac:57:82:08:77:f4:e1:27:2f:f0:3d:80:
        92:69:2c:b3:6c:7e:d8:7c:ae:99:62:06:b5:2c:1a:3f:8a:99:
        9b:d8:18:6b
-----BEGIN CERTIFICATE-----
MIIDWTCCAkGgAwIBAgIQJK8aNVjt0JSABxmuBYRX2DANBgkqhkiG9w0BAQsFADAV
MRMwEQYDVQQDDAp0ZWFtMzktbmV0MB4XDTIzMDQyMDAwMTA1MloXDTI2MDQwNDAw
MTA1MlowGDEWMBQGA1UEAwwNdGVhbTM5LWNsaWVudDCCASIwDQYJKoZIhvcNAQEB
BQADggEPADCCAQoCggEBAJCH6VEObpjsee63W+w7Q0znVWmJEVW2CpiQMP3/WYrr
u3kOEaqkkHyiCM68nRcUQagsFuAoldGk7FT+iHMMZmhKXnxO5GsU7uTLGwXdTK5u
1udCeQB9old/UupvChtvodzzf+LaTbDJL8jiJDCcfEoyEQXxll1vnx7iuntZwwQR
NxjYbPak0tLC9xv1IWc/DST+8Wu8Vy79zFaLJnikIlVc8UbPsrA2QGFJwbnBof8n
62PtpElKJik3YbGQ0Nl7drVmroDIcwWvQmgp3v1hbVoi1FUBA1yAQdYEir2b/5p5
3xgCnl/lfDTXR0Q8758WgENwvFxigsddBBaE/+f2mFUCAwEAAaOBoTCBnjAJBgNV
HRMEAjAAMB0GA1UdDgQWBBTes16rsdtcvT6HjhLb51JdlKaAXTBQBgNVHSMESTBH
gBQZc40b7pYUMkoPZsQ5qGpLrK2pq6EZpBcwFTETMBEGA1UEAwwKdGVhbTM5LW5l
dIIUI43kymYQZI0pZWnMx7R8M9CpppYwEwYDVR0lBAwwCgYIKwYBBQUHAwIwCwYD
VR0PBAQDAgeAMA0GCSqGSIb3DQEBCwUAA4IBAQAZNStKkY5eh6bALaaCSmycckuL
dtQlw8sRceTHFdfLq+aUUbqv1cxTxs8hNOSqVnV2SSXjFT5eI6zNpOMDpgBvtESx
J76yd4i0sRt/wSEcw57GRtElSQ5h+ZOLkyenM7eHfu+LnenBg5AqaOk2fd6uf7A3
KmbHpUzJHai65sp8KvB0Q8O8L7RaNO8f9GOqw90M0ubW22rMs2v1bt4/MLZM6ybC
cX/Cx2efxWXqtcGFQ5Zd5Yyvj8f6abgL/CL1QJfynm7ZISzDyHLfe13aoVdped3D
wFeyIuyYFqlRlu+sV4IId/ThJy/wPYCSaSyzbH7YfK6ZYga1LBo/ipmb2Bhr
-----END CERTIFICATE-----
