Certificate:
    Data:
        Version: 3 (0x2)
        Serial Number:
            55:a5:1d:27:99:92:23:36:b9:73:1c:75:0a:ff:2a:0b
        Signature Algorithm: sha256WithRSAEncryption
        Issuer: CN=team39-net
        Validity
            Not Before: Apr 20 22:54:24 2023 GMT
            Not After : Apr  4 22:54:24 2026 GMT
        Subject: CN=team39-client
        Subject Public Key Info:
            Public Key Algorithm: rsaEncryption
                Public-Key: (2048 bit)
                Modulus:
                    00:e3:5a:e7:76:69:7b:ea:1e:c6:a8:64:e2:16:db:
                    c3:92:a1:b4:af:a3:1f:c2:9e:3d:9a:77:6c:22:b9:
                    56:b8:ef:36:1b:f9:bd:77:d8:b9:0b:2b:24:21:86:
                    17:5f:64:3a:5a:c0:29:15:c3:d3:c4:01:af:f5:47:
                    14:19:bc:59:c1:f0:28:23:02:c9:15:e3:fd:6e:d4:
                    09:10:2b:44:60:20:64:d2:e6:67:de:e6:44:8a:9d:
                    db:43:fe:fe:36:1e:e8:bf:69:8c:20:7b:20:36:14:
                    e9:69:02:01:44:8c:79:76:0b:a3:6a:a6:08:62:a5:
                    87:3d:a0:6e:3c:a5:25:b3:f2:9e:d2:be:f0:40:3d:
                    c9:d6:5b:38:ee:e6:9d:df:24:2c:d1:15:2f:23:55:
                    8a:cb:6c:27:86:b4:5e:88:8c:e4:87:0c:72:64:98:
                    63:46:2e:59:2c:2d:05:19:43:4d:02:b3:1e:0c:36:
                    d7:6b:cb:5f:3c:54:8f:99:52:86:c5:37:df:a0:f1:
                    26:f3:f4:c4:14:e8:be:67:82:9b:53:b7:72:eb:05:
                    56:00:5c:fa:d5:c6:66:ea:de:25:cc:8f:bb:36:a2:
                    d7:b3:ea:1a:97:4b:e6:2a:bb:e1:f3:c7:67:05:61:
                    3e:5e:5c:61:25:8d:04:bf:82:92:6d:73:e5:c6:72:
                    4e:95
                Exponent: 65537 (0x10001)
        X509v3 extensions:
            X509v3 Basic Constraints: 
                CA:FALSE
            X509v3 Subject Key Identifier: 
                CE:11:43:C2:1A:1F:F1:BF:8F:97:61:1B:70:B1:C2:22:6F:C8:04:E6
            X509v3 Authority Key Identifier: 
                keyid:3C:9D:6E:1C:68:D2:8C:B4:70:28:A1:66:55:E9:64:F8:70:95:33:B2
                DirName:/CN=team39-net
                serial:49:B7:84:E5:E0:5E:7D:30:FD:F5:C0:88:FC:A1:DA:63:9A:38:D3:2C
            X509v3 Extended Key Usage: 
                TLS Web Client Authentication
            X509v3 Key Usage: 
                Digital Signature
    Signature Algorithm: sha256WithRSAEncryption
    Signature Value:
        25:3a:ca:dc:f4:b4:d6:15:8e:10:66:05:15:5c:07:1d:25:00:
        4b:89:68:dc:30:2b:ac:fc:09:30:27:50:8a:b8:7d:90:b5:e6:
        dc:d6:cc:64:8d:9e:fc:bc:73:3e:56:79:e6:e6:4c:4b:30:58:
        5b:2b:30:ae:0a:52:39:e6:e2:bd:c5:f4:3c:42:e4:48:70:8f:
        83:72:9a:4c:79:97:67:c8:a6:89:83:b4:e2:15:dc:36:44:70:
        be:26:7a:89:b4:af:6e:7e:ea:cf:60:b2:99:1b:ed:be:a9:21:
        42:3a:37:a7:b1:ae:d9:5b:cc:8c:19:b5:4a:cd:8b:e6:89:f8:
        38:90:62:81:85:2c:a8:93:cd:73:99:d3:74:8c:78:4d:71:cb:
        c9:df:a4:8f:51:ab:ee:a7:c1:ae:77:ac:a0:50:31:99:92:48:
        df:77:ee:cc:fd:1c:35:5f:6e:43:65:1c:7a:a1:f3:27:b3:3d:
        d9:9e:93:9b:96:d4:f2:ed:ef:40:3f:9b:11:f8:f4:66:d1:74:
        e9:13:5f:06:a7:aa:98:47:b2:02:56:41:15:7b:ec:71:10:36:
        e0:59:ce:af:11:ff:5f:48:73:b3:81:92:d5:cc:48:32:0c:45:
        b8:41:a3:32:a6:08:77:52:5f:bd:8f:d3:76:c3:f4:45:ac:69:
        66:8e:86:fc
-----BEGIN CERTIFICATE-----
MIIDWTCCAkGgAwIBAgIQVaUdJ5mSIza5cxx1Cv8qCzANBgkqhkiG9w0BAQsFADAV
MRMwEQYDVQQDDAp0ZWFtMzktbmV0MB4XDTIzMDQyMDIyNTQyNFoXDTI2MDQwNDIy
NTQyNFowGDEWMBQGA1UEAwwNdGVhbTM5LWNsaWVudDCCASIwDQYJKoZIhvcNAQEB
BQADggEPADCCAQoCggEBAONa53Zpe+oexqhk4hbbw5KhtK+jH8KePZp3bCK5Vrjv
Nhv5vXfYuQsrJCGGF19kOlrAKRXD08QBr/VHFBm8WcHwKCMCyRXj/W7UCRArRGAg
ZNLmZ97mRIqd20P+/jYe6L9pjCB7IDYU6WkCAUSMeXYLo2qmCGKlhz2gbjylJbPy
ntK+8EA9ydZbOO7mnd8kLNEVLyNVistsJ4a0XoiM5IcMcmSYY0YuWSwtBRlDTQKz
Hgw212vLXzxUj5lShsU336DxJvP0xBTovmeCm1O3cusFVgBc+tXGZureJcyPuzai
17PqGpdL5iq74fPHZwVhPl5cYSWNBL+Ckm1z5cZyTpUCAwEAAaOBoTCBnjAJBgNV
HRMEAjAAMB0GA1UdDgQWBBTOEUPCGh/xv4+XYRtwscIib8gE5jBQBgNVHSMESTBH
gBQ8nW4caNKMtHAooWZV6WT4cJUzsqEZpBcwFTETMBEGA1UEAwwKdGVhbTM5LW5l
dIIUSbeE5eBefTD99cCI/KHaY5o40ywwEwYDVR0lBAwwCgYIKwYBBQUHAwIwCwYD
VR0PBAQDAgeAMA0GCSqGSIb3DQEBCwUAA4IBAQAlOsrc9LTWFY4QZgUVXAcdJQBL
iWjcMCus/AkwJ1CKuH2Qtebc1sxkjZ78vHM+Vnnm5kxLMFhbKzCuClI55uK9xfQ8
QuRIcI+DcppMeZdnyKaJg7TiFdw2RHC+JnqJtK9ufurPYLKZG+2+qSFCOjensa7Z
W8yMGbVKzYvmifg4kGKBhSyok81zmdN0jHhNccvJ36SPUavup8Gud6ygUDGZkkjf
d+7M/Rw1X25DZRx6ofMnsz3ZnpObltTy7e9AP5sR+PRm0XTpE18Gp6qYR7ICVkEV
e+xxEDbgWc6vEf9fSHOzgZLVzEgyDEW4QaMypgh3Ul+9j9N2w/RFrGlmjob8
-----END CERTIFICATE-----
