Certificate:
    Data:
        Version: 3 (0x2)
        Serial Number:
            ad:f1:1a:af:9b:c8:a4:ff:85:f7:de:8d:e4:83:16:83
        Signature Algorithm: sha256WithRSAEncryption
        Issuer: CN=team39-net
        Validity
            Not Before: Apr 20 22:54:25 2023 GMT
            Not After : Apr  4 22:54:25 2026 GMT
        Subject: CN=team39-server
        Subject Public Key Info:
            Public Key Algorithm: rsaEncryption
                Public-Key: (2048 bit)
                Modulus:
                    00:a6:27:c0:42:9d:44:a8:ad:1f:47:43:1c:1c:8e:
                    62:34:98:e5:e3:b1:44:a3:e4:12:df:ec:eb:d0:5c:
                    78:ab:a7:16:22:bd:0d:02:11:ba:31:5c:75:23:50:
                    0f:83:14:37:b0:01:f2:65:61:48:28:2a:15:d3:80:
                    bb:fc:67:ec:32:73:20:05:cb:f8:bc:f6:b8:21:e4:
                    dc:57:1d:c9:53:16:c7:fd:a8:d3:c5:1d:62:ee:ab:
                    8d:52:1d:fe:2a:e9:9e:7d:33:d5:b7:f2:a0:6f:19:
                    57:25:f0:fd:07:e5:9d:04:03:bb:f3:de:b5:06:ab:
                    98:56:f1:41:b8:5b:b5:df:22:4e:b1:14:cd:c7:af:
                    0b:8a:7f:f8:e4:32:35:38:44:9b:54:82:72:cf:86:
                    94:c4:30:05:2e:a6:a5:d5:f0:a3:b2:2c:96:f7:10:
                    eb:e5:0a:25:1f:a3:a5:78:4e:d5:17:5e:ec:88:9c:
                    76:5a:81:87:91:e6:07:37:6e:16:4f:28:86:15:38:
                    7c:c2:47:b7:d4:04:d4:42:ab:23:44:62:e2:b8:bc:
                    3f:a7:70:50:ee:8d:de:19:df:cf:09:4e:b7:0b:15:
                    5d:e0:2d:5a:bf:73:54:35:96:f2:67:01:85:5f:07:
                    5c:c9:91:76:ce:ba:9b:0f:60:97:f6:58:f8:f7:13:
                    ae:29
                Exponent: 65537 (0x10001)
        X509v3 extensions:
            X509v3 Basic Constraints: 
                CA:FALSE
            X509v3 Subject Key Identifier: 
                72:E9:0D:04:FE:92:C3:65:02:7E:4E:FD:C7:74:F6:0D:E9:FF:F9:84
            X509v3 Authority Key Identifier: 
                keyid:3C:9D:6E:1C:68:D2:8C:B4:70:28:A1:66:55:E9:64:F8:70:95:33:B2
                DirName:/CN=team39-net
                serial:49:B7:84:E5:E0:5E:7D:30:FD:F5:C0:88:FC:A1:DA:63:9A:38:D3:2C
            X509v3 Extended Key Usage: 
                TLS Web Server Authentication
            X509v3 Key Usage: 
                Digital Signature, Key Encipherment
            X509v3 Subject Alternative Name: 
                DNS:team39-server
    Signature Algorithm: sha256WithRSAEncryption
    Signature Value:
        52:46:a3:e3:1c:47:cb:94:ad:32:df:b8:e5:a9:58:99:0c:6f:
        f7:7b:71:96:76:73:6f:1b:f1:cc:3c:34:ce:5b:29:23:b8:cd:
        e5:b1:09:20:9e:6b:34:d1:6f:d3:0c:8b:6b:d1:88:59:af:b4:
        85:f5:07:a9:7d:26:72:a2:20:04:d2:48:9f:72:42:61:0b:71:
        5d:cd:14:0e:27:5d:85:35:40:48:c8:41:e3:f8:7e:eb:66:cc:
        3c:1b:6f:f8:30:47:d1:40:5c:fc:8b:78:5f:77:c3:01:d1:a6:
        75:9d:bf:c3:a2:65:d4:82:96:52:ba:a9:bb:b1:ad:ec:fc:c2:
        1c:dd:80:4c:1f:4a:b3:ef:85:d4:44:a0:3c:d9:51:d4:34:8d:
        b2:b8:38:fe:91:86:4d:2f:70:99:5f:5c:96:08:86:36:90:07:
        86:3b:61:05:af:68:09:ff:d2:8c:9d:cb:b1:66:3d:e8:74:01:
        57:dc:1a:89:c1:3b:24:d3:15:92:60:2c:45:75:02:15:15:40:
        9f:a0:50:9e:cb:83:c3:73:88:5e:8b:41:f5:d6:5e:dd:55:fa:
        53:17:79:40:47:a4:c2:85:d6:f4:0c:8f:9a:02:29:81:40:57:
        8c:da:54:c4:70:b9:44:c1:7a:a4:ef:82:7c:ee:81:e0:37:1c:
        34:a0:38:9a
-----BEGIN CERTIFICATE-----
MIIDdDCCAlygAwIBAgIRAK3xGq+byKT/hffejeSDFoMwDQYJKoZIhvcNAQELBQAw
FTETMBEGA1UEAwwKdGVhbTM5LW5ldDAeFw0yMzA0MjAyMjU0MjVaFw0yNjA0MDQy
MjU0MjVaMBgxFjAUBgNVBAMMDXRlYW0zOS1zZXJ2ZXIwggEiMA0GCSqGSIb3DQEB
AQUAA4IBDwAwggEKAoIBAQCmJ8BCnUSorR9HQxwcjmI0mOXjsUSj5BLf7OvQXHir
pxYivQ0CEboxXHUjUA+DFDewAfJlYUgoKhXTgLv8Z+wycyAFy/i89rgh5NxXHclT
Fsf9qNPFHWLuq41SHf4q6Z59M9W38qBvGVcl8P0H5Z0EA7vz3rUGq5hW8UG4W7Xf
Ik6xFM3HrwuKf/jkMjU4RJtUgnLPhpTEMAUupqXV8KOyLJb3EOvlCiUfo6V4TtUX
XuyInHZagYeR5gc3bhZPKIYVOHzCR7fUBNRCqyNEYuK4vD+ncFDujd4Z388JTrcL
FV3gLVq/c1Q1lvJnAYVfB1zJkXbOupsPYJf2WPj3E64pAgMBAAGjgbswgbgwCQYD
VR0TBAIwADAdBgNVHQ4EFgQUcukNBP6Sw2UCfk79x3T2Den/+YQwUAYDVR0jBEkw
R4AUPJ1uHGjSjLRwKKFmVelk+HCVM7KhGaQXMBUxEzARBgNVBAMMCnRlYW0zOS1u
ZXSCFEm3hOXgXn0w/fXAiPyh2mOaONMsMBMGA1UdJQQMMAoGCCsGAQUFBwMBMAsG
A1UdDwQEAwIFoDAYBgNVHREEETAPgg10ZWFtMzktc2VydmVyMA0GCSqGSIb3DQEB
CwUAA4IBAQBSRqPjHEfLlK0y37jlqViZDG/3e3GWdnNvG/HMPDTOWykjuM3lsQkg
nms00W/TDItr0YhZr7SF9QepfSZyoiAE0kifckJhC3FdzRQOJ12FNUBIyEHj+H7r
Zsw8G2/4MEfRQFz8i3hfd8MB0aZ1nb/DomXUgpZSuqm7sa3s/MIc3YBMH0qz74XU
RKA82VHUNI2yuDj+kYZNL3CZX1yWCIY2kAeGO2EFr2gJ/9KMncuxZj3odAFX3BqJ
wTsk0xWSYCxFdQIVFUCfoFCey4PDc4hei0H11l7dVfpTF3lAR6TChdb0DI+aAimB
QFeM2lTEcLlEwXqk74J87oHgNxw0oDia
-----END CERTIFICATE-----
