Certificate:
    Data:
        Version: 3 (0x2)
        Serial Number:
            64:71:ec:53:dc:74:73:c5:32:9d:a1:0b:41:f7:1b:44
        Signature Algorithm: sha256WithRSAEncryption
        Issuer: CN=team24-net
        Validity
            Not Before: Apr 20 00:10:30 2023 GMT
            Not After : Apr  4 00:10:30 2026 GMT
        Subject: CN=team24-client
        Subject Public Key Info:
            Public Key Algorithm: rsaEncryption
                Public-Key: (2048 bit)
                Modulus:
                    00:e2:b4:ee:9c:1a:34:0c:d6:e0:59:c3:35:31:02:
                    22:4f:0f:09:50:5c:f8:e3:e4:1c:72:76:f8:a3:17:
                    3a:7b:6d:fb:fc:19:7f:2d:af:ea:e4:88:12:fd:82:
                    a3:09:c1:7d:ab:c3:e0:37:c8:db:70:84:a3:19:11:
                    77:77:59:00:21:a2:a7:76:38:43:bd:8d:67:0a:52:
                    bf:e4:27:60:a2:9e:07:99:c0:95:ad:5a:7c:89:07:
                    ad:f9:87:78:20:ce:52:e1:b8:f9:db:ee:2a:0a:e4:
                    d6:d8:89:45:4a:25:3b:0f:e9:d5:61:1c:86:d7:0e:
                    8f:52:43:9e:a9:42:90:10:86:65:34:48:89:b4:30:
                    b9:41:36:b7:7f:61:07:ae:58:8f:3b:d1:2b:d2:79:
                    72:d5:8b:20:07:92:bc:c9:0a:53:a0:82:a4:cd:91:
                    8d:3b:34:e2:a1:91:85:dd:ed:93:02:52:28:f8:c6:
                    06:0f:02:67:3e:e4:e0:62:09:dc:f0:a1:fc:74:87:
                    7d:6b:ab:36:e5:4a:47:ec:8f:87:0b:6a:a6:be:3c:
                    91:44:21:ba:41:e6:5c:04:74:9c:19:d0:87:b9:0c:
                    f9:b3:51:18:e8:f4:dd:93:62:10:02:12:2c:75:2a:
                    e5:dd:74:f0:b3:77:8c:77:71:46:4f:36:0f:ad:83:
                    24:95
                Exponent: 65537 (0x10001)
        X509v3 extensions:
            X509v3 Basic Constraints: 
                CA:FALSE
            X509v3 Subject Key Identifier: 
                C9:39:A2:DC:3A:57:98:AE:AC:8D:AF:A8:8B:CA:6A:3C:E2:CB:65:05
            X509v3 Authority Key Identifier: 
                keyid:8E:63:16:CC:71:5B:58:66:1C:90:69:5C:C2:31:20:97:7E:4F:F1:CD
                DirName:/CN=team24-net
                serial:1B:BE:71:95:62:49:10:B5:2D:A8:9F:94:50:DC:7B:C5:A6:24:D0:72
            X509v3 Extended Key Usage: 
                TLS Web Client Authentication
            X509v3 Key Usage: 
                Digital Signature
    Signature Algorithm: sha256WithRSAEncryption
    Signature Value:
        b6:b4:08:b8:77:f8:cd:d0:4d:08:23:b2:1f:c8:97:2b:63:6e:
        95:eb:81:c8:b3:82:ab:7c:d0:df:ac:0e:53:d3:0a:d0:34:60:
        28:85:ff:ad:55:4e:7b:9f:d8:be:c6:1c:68:ff:83:f3:e0:86:
        a2:c1:ab:42:1a:6f:21:e6:ba:39:c6:ea:98:69:27:3d:b4:d3:
        8c:fc:16:32:8d:c0:69:b9:db:b3:ca:61:38:9d:16:cf:dc:51:
        21:94:b7:27:c0:f6:fd:1a:c4:89:e5:56:28:78:ea:8b:c5:89:
        11:e3:fd:da:70:84:e3:c3:8e:dc:22:91:0b:3f:85:e2:b4:29:
        2f:7f:a0:58:c0:29:99:47:8b:52:0f:86:a9:71:be:fe:98:f5:
        9c:61:c0:f3:de:42:61:61:85:05:75:6f:27:46:ad:47:9c:79:
        cf:65:af:29:82:1a:d2:39:be:6c:60:13:48:81:98:98:96:71:
        81:2f:a4:b7:ad:3f:65:02:b5:88:57:e5:cf:92:e1:90:90:7b:
        e7:90:93:44:cd:d9:12:92:e0:8c:52:b7:85:55:6c:83:e3:6b:
        f3:1c:b5:35:1c:49:83:67:2b:ac:ad:f5:9c:2d:66:4e:af:e2:
        70:1d:17:31:47:d1:06:b0:10:22:18:d3:1d:36:40:3b:1e:1a:
        e9:3c:04:27
-----BEGIN CERTIFICATE-----
MIIDWTCCAkGgAwIBAgIQZHHsU9x0c8UynaELQfcbRDANBgkqhkiG9w0BAQsFADAV
MRMwEQYDVQQDDAp0ZWFtMjQtbmV0MB4XDTIzMDQyMDAwMTAzMFoXDTI2MDQwNDAw
MTAzMFowGDEWMBQGA1UEAwwNdGVhbTI0LWNsaWVudDCCASIwDQYJKoZIhvcNAQEB
BQADggEPADCCAQoCggEBAOK07pwaNAzW4FnDNTECIk8PCVBc+OPkHHJ2+KMXOntt
+/wZfy2v6uSIEv2CownBfavD4DfI23CEoxkRd3dZACGip3Y4Q72NZwpSv+QnYKKe
B5nAla1afIkHrfmHeCDOUuG4+dvuKgrk1tiJRUolOw/p1WEchtcOj1JDnqlCkBCG
ZTRIibQwuUE2t39hB65YjzvRK9J5ctWLIAeSvMkKU6CCpM2RjTs04qGRhd3tkwJS
KPjGBg8CZz7k4GIJ3PCh/HSHfWurNuVKR+yPhwtqpr48kUQhukHmXAR0nBnQh7kM
+bNRGOj03ZNiEAISLHUq5d108LN3jHdxRk82D62DJJUCAwEAAaOBoTCBnjAJBgNV
HRMEAjAAMB0GA1UdDgQWBBTJOaLcOleYrqyNr6iLymo84stlBTBQBgNVHSMESTBH
gBSOYxbMcVtYZhyQaVzCMSCXfk/xzaEZpBcwFTETMBEGA1UEAwwKdGVhbTI0LW5l
dIIUG75xlWJJELUtqJ+UUNx7xaYk0HIwEwYDVR0lBAwwCgYIKwYBBQUHAwIwCwYD
VR0PBAQDAgeAMA0GCSqGSIb3DQEBCwUAA4IBAQC2tAi4d/jN0E0II7IfyJcrY26V
64HIs4KrfNDfrA5T0wrQNGAohf+tVU57n9i+xhxo/4Pz4IaiwatCGm8h5ro5xuqY
aSc9tNOM/BYyjcBpuduzymE4nRbP3FEhlLcnwPb9GsSJ5VYoeOqLxYkR4/3acITj
w47cIpELP4XitCkvf6BYwCmZR4tSD4apcb7+mPWcYcDz3kJhYYUFdW8nRq1HnHnP
Za8pghrSOb5sYBNIgZiYlnGBL6S3rT9lArWIV+XPkuGQkHvnkJNEzdkSkuCMUreF
VWyD42vzHLU1HEmDZyusrfWcLWZOr+JwHRcxR9EGsBAiGNMdNkA7HhrpPAQn
-----END CERTIFICATE-----
