Certificate:
    Data:
        Version: 3 (0x2)
        Serial Number:
            bc:8b:39:b5:66:8e:70:ab:c3:83:01:68:38:3b:3a:1e
        Signature Algorithm: sha256WithRSAEncryption
        Issuer: CN=team24-net
        Validity
            Not Before: Apr 20 22:54:01 2023 GMT
            Not After : Apr  4 22:54:01 2026 GMT
        Subject: CN=team24-server
        Subject Public Key Info:
            Public Key Algorithm: rsaEncryption
                Public-Key: (2048 bit)
                Modulus:
                    00:dd:e6:31:9e:c5:19:a4:bc:55:d2:4d:ce:39:5d:
                    f6:12:4e:01:64:7f:f4:41:5a:49:2a:79:2b:28:3c:
                    aa:3e:2a:6a:89:c5:86:7b:0f:17:ac:74:65:22:e3:
                    f8:68:96:ab:ee:43:7c:3f:20:49:03:f0:c1:5f:76:
                    26:63:79:14:47:2d:d4:83:02:f0:54:35:58:d0:b8:
                    eb:4c:54:dd:31:97:68:72:ff:9e:6d:b8:0b:6f:ae:
                    01:b2:5a:75:06:ff:5a:7e:40:e4:0a:4a:7b:71:b7:
                    d9:39:b4:68:39:eb:0f:c2:65:0d:fa:59:ba:be:68:
                    98:59:ed:66:7c:3e:e7:2c:2f:2e:cc:8b:fd:2d:f8:
                    49:04:f2:17:d3:ad:54:18:5e:64:4a:c8:d7:e0:7f:
                    71:54:4f:5e:9a:92:4a:74:3b:d8:df:56:87:58:8a:
                    b3:a9:e5:40:4d:da:7d:39:a8:26:35:2b:f8:1d:81:
                    08:0b:f6:ad:e1:c0:87:f8:e2:30:a9:55:65:6d:91:
                    6f:40:7d:6c:a3:fc:f9:ae:d3:1a:cb:fb:e7:79:b3:
                    af:d3:5f:f4:d1:2c:37:c4:55:47:5f:c7:d0:4a:7c:
                    31:47:11:24:e4:dc:65:22:da:95:63:8d:60:9e:9b:
                    b2:c6:19:55:64:43:5c:cd:55:53:7d:40:87:2f:8f:
                    5c:47
                Exponent: 65537 (0x10001)
        X509v3 extensions:
            X509v3 Basic Constraints: 
                CA:FALSE
            X509v3 Subject Key Identifier: 
                B4:D4:3D:07:79:D8:2E:E9:6F:5C:6E:95:A7:3A:1D:D9:01:13:AF:21
            X509v3 Authority Key Identifier: 
                keyid:30:95:BC:72:E0:9A:59:27:B1:9C:54:28:0C:DD:8E:13:AC:1A:7F:D3
                DirName:/CN=team24-net
                serial:23:B6:E8:21:24:24:08:99:DD:95:E6:B7:B1:AB:D5:29:8A:23:6C:AE
            X509v3 Extended Key Usage: 
                TLS Web Server Authentication
            X509v3 Key Usage: 
                Digital Signature, Key Encipherment
            X509v3 Subject Alternative Name: 
                DNS:team24-server
    Signature Algorithm: sha256WithRSAEncryption
    Signature Value:
        ab:21:2f:66:ba:c4:07:e4:d3:76:9a:93:01:ab:44:f6:1e:90:
        7a:be:d0:18:60:17:ae:51:6a:81:12:82:19:1c:25:c1:bb:03:
        6b:84:d1:1a:d5:05:ba:13:5b:3a:ed:ff:cd:85:81:49:4f:24:
        36:f1:60:fb:93:1a:40:ea:48:0e:08:a8:cd:ca:59:e7:42:fa:
        32:2b:26:83:87:20:3e:d9:5d:96:b0:f8:41:92:06:ea:50:98:
        df:bd:b7:a4:8c:ea:14:85:52:5c:8a:e8:63:27:db:2b:b5:3e:
        22:9c:59:ae:a8:b4:c6:a0:13:e6:62:1f:f0:43:a5:83:6b:c5:
        29:28:4c:68:a2:6a:be:7f:15:d6:9e:14:a2:b8:01:1b:79:e4:
        64:82:d7:50:74:09:54:b9:c9:56:52:58:78:ff:9f:4d:ac:b3:
        be:1e:a9:88:65:61:87:01:6d:d8:4c:10:44:a8:4a:81:e9:2b:
        c1:fd:80:ce:20:76:e1:75:80:71:11:67:1e:65:e6:3d:6d:8e:
        0a:90:45:71:a0:ca:b4:8e:84:25:84:6a:85:7f:96:0c:ed:49:
        d6:c5:f5:93:c9:68:38:c4:38:8e:13:48:cd:44:e3:17:d0:07:
        3b:6f:17:2e:50:88:da:c9:a3:91:8e:15:46:14:7e:26:d6:04:
        f0:78:9b:99
-----BEGIN CERTIFICATE-----
MIIDdDCCAlygAwIBAgIRALyLObVmjnCrw4MBaDg7Oh4wDQYJKoZIhvcNAQELBQAw
FTETMBEGA1UEAwwKdGVhbTI0LW5ldDAeFw0yMzA0MjAyMjU0MDFaFw0yNjA0MDQy
MjU0MDFaMBgxFjAUBgNVBAMMDXRlYW0yNC1zZXJ2ZXIwggEiMA0GCSqGSIb3DQEB
AQUAA4IBDwAwggEKAoIBAQDd5jGexRmkvFXSTc45XfYSTgFkf/RBWkkqeSsoPKo+
KmqJxYZ7DxesdGUi4/holqvuQ3w/IEkD8MFfdiZjeRRHLdSDAvBUNVjQuOtMVN0x
l2hy/55tuAtvrgGyWnUG/1p+QOQKSntxt9k5tGg56w/CZQ36Wbq+aJhZ7WZ8Pucs
Ly7Mi/0t+EkE8hfTrVQYXmRKyNfgf3FUT16akkp0O9jfVodYirOp5UBN2n05qCY1
K/gdgQgL9q3hwIf44jCpVWVtkW9AfWyj/Pmu0xrL++d5s6/TX/TRLDfEVUdfx9BK
fDFHESTk3GUi2pVjjWCem7LGGVVkQ1zNVVN9QIcvj1xHAgMBAAGjgbswgbgwCQYD
VR0TBAIwADAdBgNVHQ4EFgQUtNQ9B3nYLulvXG6Vpzod2QETryEwUAYDVR0jBEkw
R4AUMJW8cuCaWSexnFQoDN2OE6waf9OhGaQXMBUxEzARBgNVBAMMCnRlYW0yNC1u
ZXSCFCO26CEkJAiZ3ZXmt7Gr1SmKI2yuMBMGA1UdJQQMMAoGCCsGAQUFBwMBMAsG
A1UdDwQEAwIFoDAYBgNVHREEETAPgg10ZWFtMjQtc2VydmVyMA0GCSqGSIb3DQEB
CwUAA4IBAQCrIS9musQH5NN2mpMBq0T2HpB6vtAYYBeuUWqBEoIZHCXBuwNrhNEa
1QW6E1s67f/NhYFJTyQ28WD7kxpA6kgOCKjNylnnQvoyKyaDhyA+2V2WsPhBkgbq
UJjfvbekjOoUhVJciuhjJ9srtT4inFmuqLTGoBPmYh/wQ6WDa8UpKExoomq+fxXW
nhSiuAEbeeRkgtdQdAlUuclWUlh4/59NrLO+HqmIZWGHAW3YTBBEqEqB6SvB/YDO
IHbhdYBxEWceZeY9bY4KkEVxoMq0joQlhGqFf5YM7UnWxfWTyWg4xDiOE0jNROMX
0Ac7bxcuUIjayaORjhVGFH4m1gTweJuZ
-----END CERTIFICATE-----
