Certificate:
    Data:
        Version: 3 (0x2)
        Serial Number:
            fe:8f:da:14:eb:ba:2b:47:7a:ca:ac:f3:11:37:c1:cc
        Signature Algorithm: sha256WithRSAEncryption
        Issuer: CN=team24-net
        Validity
            Not Before: Apr 20 22:54:00 2023 GMT
            Not After : Apr  4 22:54:00 2026 GMT
        Subject: CN=team24-client
        Subject Public Key Info:
            Public Key Algorithm: rsaEncryption
                Public-Key: (2048 bit)
                Modulus:
                    00:e8:2a:38:e1:40:95:86:4a:ca:75:1e:36:f6:a4:
                    ee:f6:22:c0:0b:5e:39:1e:f5:4d:6b:7d:eb:8b:5f:
                    fe:f5:23:46:c7:45:68:c7:3f:c9:af:84:d3:74:e6:
                    cf:e9:e4:9b:a3:a6:34:c1:a8:ec:98:c5:ee:df:5c:
                    69:5f:4d:c8:0b:d2:9c:e7:30:62:7b:fb:97:bb:82:
                    79:85:e7:88:98:00:b2:71:7b:71:8f:d1:80:72:12:
                    d2:a4:fb:82:1b:00:91:96:9a:2e:db:d5:c3:3d:45:
                    2e:d7:b9:82:56:e4:01:d3:63:18:b8:f6:2b:1e:5c:
                    28:34:41:3b:2e:ca:f9:73:dc:16:dc:0c:bb:20:dc:
                    e7:cb:81:f7:3c:e9:ca:1d:57:51:a7:c1:8e:41:6c:
                    eb:85:f1:3b:14:de:1a:75:d7:a7:b6:ee:1f:4b:bc:
                    ce:6f:c5:7d:29:71:ea:3d:6c:27:fe:c3:49:f6:07:
                    79:92:4d:cd:ec:9b:b1:7b:d9:bd:62:12:f7:36:3f:
                    11:98:0d:c7:f2:77:ac:81:50:32:ef:ab:c7:9b:84:
                    55:c5:0a:17:e7:b7:9c:a4:1a:4b:06:de:30:d8:96:
                    e9:21:1c:8d:a1:25:9b:0f:3a:1b:9a:dc:9a:76:a8:
                    6f:3e:c3:74:60:07:15:ef:37:67:41:9c:25:21:72:
                    70:13
                Exponent: 65537 (0x10001)
        X509v3 extensions:
            X509v3 Basic Constraints: 
                CA:FALSE
            X509v3 Subject Key Identifier: 
                73:0E:42:80:93:60:D1:5A:E4:43:3C:49:5D:5C:93:EE:5F:18:91:70
            X509v3 Authority Key Identifier: 
                keyid:30:95:BC:72:E0:9A:59:27:B1:9C:54:28:0C:DD:8E:13:AC:1A:7F:D3
                DirName:/CN=team24-net
                serial:23:B6:E8:21:24:24:08:99:DD:95:E6:B7:B1:AB:D5:29:8A:23:6C:AE
            X509v3 Extended Key Usage: 
                TLS Web Client Authentication
            X509v3 Key Usage: 
                Digital Signature
    Signature Algorithm: sha256WithRSAEncryption
    Signature Value:
        53:1d:4a:fb:62:3a:af:49:de:65:78:3b:2d:cb:16:2a:42:94:
        6b:17:a8:3f:99:b5:8b:ae:70:31:5f:ce:04:8c:e5:01:0c:36:
        42:ca:d0:46:d8:b4:2d:d9:67:c0:ba:62:c5:56:5a:9b:cb:e5:
        23:8c:61:95:eb:e1:ca:fb:cb:77:39:bb:ad:e8:46:0c:1d:22:
        33:3f:d8:7f:64:4a:1a:a9:41:90:84:df:5d:0c:f2:84:a2:20:
        09:9e:10:2d:00:b9:0d:fb:86:fe:c8:6e:03:d1:91:59:c8:16:
        b9:c3:29:18:b3:0c:6d:63:63:ef:91:d7:05:15:53:39:02:7d:
        f2:6b:75:fa:c3:ef:88:a9:f3:6c:8a:c3:a9:0d:bb:f9:b1:e9:
        69:b3:9f:43:b9:0d:2e:01:d4:dc:f4:b2:78:1a:4d:91:ce:66:
        94:27:1d:43:9f:72:fb:33:84:2d:7e:dc:23:b9:18:ec:85:c4:
        44:cf:2c:b4:df:a9:71:33:3d:5f:b4:4b:0d:2f:a4:c0:1d:fd:
        13:7e:a8:a1:2a:69:f7:7e:ad:a0:7a:69:d8:47:b8:51:1a:a0:
        fe:3a:e5:a0:8e:19:c4:88:f6:ee:c8:1f:27:19:64:83:ce:48:
        d2:a3:9e:13:7c:e2:63:45:db:71:8b:e8:52:d9:8a:e7:41:9a:
        78:f8:dd:29
-----BEGIN CERTIFICATE-----
MIIDWjCCAkKgAwIBAgIRAP6P2hTruitHesqs8xE3wcwwDQYJKoZIhvcNAQELBQAw
FTETMBEGA1UEAwwKdGVhbTI0LW5ldDAeFw0yMzA0MjAyMjU0MDBaFw0yNjA0MDQy
MjU0MDBaMBgxFjAUBgNVBAMMDXRlYW0yNC1jbGllbnQwggEiMA0GCSqGSIb3DQEB
AQUAA4IBDwAwggEKAoIBAQDoKjjhQJWGSsp1Hjb2pO72IsALXjke9U1rfeuLX/71
I0bHRWjHP8mvhNN05s/p5JujpjTBqOyYxe7fXGlfTcgL0pznMGJ7+5e7gnmF54iY
ALJxe3GP0YByEtKk+4IbAJGWmi7b1cM9RS7XuYJW5AHTYxi49iseXCg0QTsuyvlz
3BbcDLsg3OfLgfc86codV1GnwY5BbOuF8TsU3hp116e27h9LvM5vxX0pceo9bCf+
w0n2B3mSTc3sm7F72b1iEvc2PxGYDcfyd6yBUDLvq8ebhFXFChfnt5ykGksG3jDY
lukhHI2hJZsPOhua3Jp2qG8+w3RgBxXvN2dBnCUhcnATAgMBAAGjgaEwgZ4wCQYD
VR0TBAIwADAdBgNVHQ4EFgQUcw5CgJNg0VrkQzxJXVyT7l8YkXAwUAYDVR0jBEkw
R4AUMJW8cuCaWSexnFQoDN2OE6waf9OhGaQXMBUxEzARBgNVBAMMCnRlYW0yNC1u
ZXSCFCO26CEkJAiZ3ZXmt7Gr1SmKI2yuMBMGA1UdJQQMMAoGCCsGAQUFBwMCMAsG
A1UdDwQEAwIHgDANBgkqhkiG9w0BAQsFAAOCAQEAUx1K+2I6r0neZXg7LcsWKkKU
axeoP5m1i65wMV/OBIzlAQw2QsrQRti0LdlnwLpixVZam8vlI4xhlevhyvvLdzm7
rehGDB0iMz/Yf2RKGqlBkITfXQzyhKIgCZ4QLQC5DfuG/shuA9GRWcgWucMpGLMM
bWNj75HXBRVTOQJ98mt1+sPviKnzbIrDqQ27+bHpabOfQ7kNLgHU3PSyeBpNkc5m
lCcdQ59y+zOELX7cI7kY7IXERM8stN+pcTM9X7RLDS+kwB39E36ooSpp936toHpp
2Ee4URqg/jrloI4ZxIj27sgfJxlkg85I0qOeE3ziY0XbcYvoUtmK50GaePjdKQ==
-----END CERTIFICATE-----
