Certificate:
    Data:
        Version: 3 (0x2)
        Serial Number:
            05:f0:de:6d:73:e6:24:3e:19:7f:00:17:9a:db:e2:b2
        Signature Algorithm: sha256WithRSAEncryption
        Issuer: CN=team6-net
        Validity
            Not Before: Apr 20 22:53:30 2023 GMT
            Not After : Apr  4 22:53:30 2026 GMT
        Subject: CN=team6-client
        Subject Public Key Info:
            Public Key Algorithm: rsaEncryption
                Public-Key: (2048 bit)
                Modulus:
                    00:aa:c5:ad:1f:d6:8e:83:8d:71:49:6e:ac:c1:48:
                    cb:bb:91:ab:bf:92:2d:7d:a5:c4:88:19:f4:0d:d7:
                    c3:f2:ed:2a:63:bf:7e:7c:bc:be:6b:06:ec:3f:54:
                    05:85:fc:cd:64:ba:c6:08:98:16:64:6f:20:14:69:
                    04:3f:1b:c8:1e:38:4c:d0:f5:f7:0f:7c:0c:6e:c6:
                    4d:26:b2:16:cf:fd:eb:98:b3:a9:3e:ee:fc:94:35:
                    8c:f7:a0:fa:9c:1d:57:3d:67:ff:57:9c:0a:2a:2d:
                    2c:b0:09:b6:57:f4:d6:b6:4e:db:49:c0:8f:bd:b9:
                    4a:67:b6:e1:3e:2d:69:c8:04:c4:b1:0e:19:16:77:
                    ee:13:e1:b4:dc:e0:90:31:79:82:49:85:bd:a6:03:
                    77:96:0d:e8:bc:7a:fe:ec:b4:03:69:f1:96:84:4d:
                    f1:df:49:82:19:13:29:54:8a:9b:7a:18:e5:8a:4f:
                    fc:ba:5b:a7:5c:41:8f:f7:6c:1b:04:bd:91:af:c4:
                    32:03:bf:db:2c:05:be:76:e5:b2:e0:27:a0:d9:3c:
                    5b:c8:cb:e8:7d:c8:4a:4d:9f:a5:6a:27:30:81:04:
                    d9:e5:6b:9c:96:62:fe:e0:32:31:c3:26:49:dd:7d:
                    c6:32:90:3e:15:3d:58:33:40:27:7c:e8:fe:9b:f2:
                    e8:c1
                Exponent: 65537 (0x10001)
        X509v3 extensions:
            X509v3 Basic Constraints: 
                CA:FALSE
            X509v3 Subject Key Identifier: 
                D3:B0:03:0E:6C:00:95:33:DE:2D:80:4F:22:18:7B:CA:27:3A:0F:7C
            X509v3 Authority Key Identifier: 
                keyid:4C:EF:CA:FF:A6:A1:73:39:E5:FC:FA:59:8F:D0:E7:F6:49:A4:8B:CB
                DirName:/CN=team6-net
                serial:57:D5:92:36:CD:D6:68:B4:80:74:46:FE:DD:57:A3:70:28:C3:0D:E4
            X509v3 Extended Key Usage: 
                TLS Web Client Authentication
            X509v3 Key Usage: 
                Digital Signature
    Signature Algorithm: sha256WithRSAEncryption
    Signature Value:
        01:3e:7f:1b:03:93:33:04:74:aa:64:40:e9:e8:2c:b9:3d:4a:
        91:65:14:c4:af:db:ee:91:c0:30:9d:43:b3:95:11:93:e9:ae:
        6e:8b:0e:bf:2f:12:30:3e:08:93:5c:62:11:6a:a9:d1:a1:aa:
        e5:1d:84:d5:52:95:e8:68:c6:6b:1d:f3:be:37:8c:30:07:1e:
        3e:a5:9f:01:32:bb:fc:51:94:d0:01:25:23:27:97:50:36:74:
        0a:40:39:1b:4e:e1:83:23:84:3c:12:06:23:3c:0b:9c:f6:10:
        35:32:39:f0:6c:4a:93:04:fc:db:0e:d3:76:44:59:76:ee:27:
        ed:3a:95:2d:d8:7f:24:97:ea:9d:4a:6b:89:b5:b4:64:e1:a3:
        65:9a:07:25:7f:ec:16:10:96:52:87:e5:7b:f1:ac:80:d5:e8:
        55:3d:2b:99:8b:8d:e2:e3:c6:f8:73:8d:f9:a4:37:49:0a:9a:
        95:85:91:d2:33:c5:9a:90:ca:e8:af:37:44:eb:fc:f0:ef:58:
        f7:6c:7a:b9:23:b8:c0:b5:01:3e:21:37:84:d0:46:ff:82:32:
        0e:e6:70:0a:94:1b:c6:f3:52:55:e4:67:ce:11:ac:5d:79:7e:
        9f:e5:1e:a4:ed:24:0e:5b:c1:96:dd:c5:b8:85:11:aa:35:e7:
        d7:5d:29:b6
-----BEGIN CERTIFICATE-----
MIIDVjCCAj6gAwIBAgIQBfDebXPmJD4ZfwAXmtvisjANBgkqhkiG9w0BAQsFADAU
MRIwEAYDVQQDDAl0ZWFtNi1uZXQwHhcNMjMwNDIwMjI1MzMwWhcNMjYwNDA0MjI1
MzMwWjAXMRUwEwYDVQQDDAx0ZWFtNi1jbGllbnQwggEiMA0GCSqGSIb3DQEBAQUA
A4IBDwAwggEKAoIBAQCqxa0f1o6DjXFJbqzBSMu7kau/ki19pcSIGfQN18Py7Spj
v358vL5rBuw/VAWF/M1kusYImBZkbyAUaQQ/G8geOEzQ9fcPfAxuxk0mshbP/euY
s6k+7vyUNYz3oPqcHVc9Z/9XnAoqLSywCbZX9Na2TttJwI+9uUpntuE+LWnIBMSx
DhkWd+4T4bTc4JAxeYJJhb2mA3eWDei8ev7stANp8ZaETfHfSYIZEylUipt6GOWK
T/y6W6dcQY/3bBsEvZGvxDIDv9ssBb525bLgJ6DZPFvIy+h9yEpNn6VqJzCBBNnl
a5yWYv7gMjHDJkndfcYykD4VPVgzQCd86P6b8ujBAgMBAAGjgaAwgZ0wCQYDVR0T
BAIwADAdBgNVHQ4EFgQU07ADDmwAlTPeLYBPIhh7yic6D3wwTwYDVR0jBEgwRoAU
TO/K/6ahcznl/PpZj9Dn9kmki8uhGKQWMBQxEjAQBgNVBAMMCXRlYW02LW5ldIIU
V9WSNs3WaLSAdEb+3VejcCjDDeQwEwYDVR0lBAwwCgYIKwYBBQUHAwIwCwYDVR0P
BAQDAgeAMA0GCSqGSIb3DQEBCwUAA4IBAQABPn8bA5MzBHSqZEDp6Cy5PUqRZRTE
r9vukcAwnUOzlRGT6a5uiw6/LxIwPgiTXGIRaqnRoarlHYTVUpXoaMZrHfO+N4ww
Bx4+pZ8BMrv8UZTQASUjJ5dQNnQKQDkbTuGDI4Q8EgYjPAuc9hA1MjnwbEqTBPzb
DtN2RFl27iftOpUt2H8kl+qdSmuJtbRk4aNlmgclf+wWEJZSh+V78ayA1ehVPSuZ
i43i48b4c435pDdJCpqVhZHSM8WakMrorzdE6/zw71j3bHq5I7jAtQE+ITeE0Eb/
gjIO5nAKlBvG81JV5GfOEaxdeX6f5R6k7SQOW8GW3cW4hRGqNefXXSm2
-----END CERTIFICATE-----
