Certificate:
    Data:
        Version: 3 (0x2)
        Serial Number:
            18:da:79:21:26:37:1e:99:96:d8:f1:f0:3f:08:f5:43
        Signature Algorithm: sha256WithRSAEncryption
        Issuer: CN=team6-net
        Validity
            Not Before: Apr 20 22:53:31 2023 GMT
            Not After : Apr  4 22:53:31 2026 GMT
        Subject: CN=team6-server
        Subject Public Key Info:
            Public Key Algorithm: rsaEncryption
                Public-Key: (2048 bit)
                Modulus:
                    00:98:ed:d3:f2:cd:1d:cb:85:73:11:02:14:4f:39:
                    90:46:3a:5a:80:32:80:70:5a:fc:6b:2c:81:3d:d1:
                    9f:a3:7c:c0:24:0b:2d:0b:2a:e1:77:c7:e8:63:d5:
                    5e:d4:d4:46:7f:28:37:8d:c6:9e:7d:bf:e8:03:83:
                    75:74:91:b8:de:51:71:5b:84:b5:47:69:75:1e:73:
                    89:e4:4c:5f:34:7e:2f:13:7f:27:f8:8a:1d:5e:e5:
                    63:c2:4c:fd:0e:03:8b:b5:4b:81:3a:ed:22:6c:9a:
                    4d:0f:ac:cb:50:97:5a:d1:96:82:ed:3a:d2:09:df:
                    f2:1a:28:4f:17:61:2d:d9:1a:4b:11:01:49:29:3b:
                    75:2f:e0:3c:c7:22:08:83:78:4d:19:08:33:5b:c0:
                    2c:6b:da:40:a0:78:f3:bf:08:56:a1:9d:c9:0d:17:
                    34:f6:25:19:ed:0f:32:fa:52:cb:61:7d:a5:51:05:
                    c3:8b:54:0b:b8:c4:ad:25:d1:f0:dd:ec:a3:a3:aa:
                    cf:f6:b8:5a:39:c9:4b:be:0c:5d:c3:a9:2e:86:ba:
                    94:f4:f0:7d:21:42:9e:86:d0:b6:19:68:62:0e:94:
                    3c:4e:19:82:09:47:1c:b5:b1:b8:22:c9:5e:86:57:
                    9f:a7:d3:fa:1a:a8:ee:08:33:2a:c8:f5:fb:1a:ab:
                    1f:d3
                Exponent: 65537 (0x10001)
        X509v3 extensions:
            X509v3 Basic Constraints: 
                CA:FALSE
            X509v3 Subject Key Identifier: 
                63:26:61:41:65:8D:E6:53:D9:8D:04:48:E0:69:94:2A:DA:C8:AD:F1
            X509v3 Authority Key Identifier: 
                keyid:4C:EF:CA:FF:A6:A1:73:39:E5:FC:FA:59:8F:D0:E7:F6:49:A4:8B:CB
                DirName:/CN=team6-net
                serial:57:D5:92:36:CD:D6:68:B4:80:74:46:FE:DD:57:A3:70:28:C3:0D:E4
            X509v3 Extended Key Usage: 
                TLS Web Server Authentication
            X509v3 Key Usage: 
                Digital Signature, Key Encipherment
            X509v3 Subject Alternative Name: 
                DNS:team6-server
    Signature Algorithm: sha256WithRSAEncryption
    Signature Value:
        08:4b:cf:c0:e6:b6:c9:c5:64:96:c1:f6:61:5a:19:f4:a6:f1:
        72:3c:9c:6a:d0:ad:73:37:08:41:9f:dd:7f:37:03:dd:db:e6:
        f8:03:1b:77:d2:3c:5c:ae:c5:df:3a:2e:ee:11:43:02:f5:4c:
        50:3c:2a:5f:46:cd:78:8e:fe:ed:36:2b:94:95:a0:e1:94:de:
        29:65:cb:b3:96:c4:04:04:7d:db:11:01:ae:bf:17:35:fa:96:
        e8:56:d1:9d:cf:83:bc:a3:71:6a:28:aa:cc:d6:92:f1:42:b2:
        f9:b0:be:45:08:e1:79:ba:58:41:b0:ef:e9:48:f2:3c:57:ac:
        9c:56:9d:f1:4e:da:f7:0b:d7:9d:0e:5b:09:24:6a:03:9c:67:
        c2:06:e8:ec:47:cd:ad:6d:72:49:46:3a:72:26:25:f9:4e:15:
        37:23:be:d3:af:85:01:2d:23:98:3c:ca:1d:51:03:94:bc:bb:
        2c:3e:59:e1:5e:48:ca:4a:28:01:4a:d6:3b:91:17:15:ba:a4:
        0a:79:4a:9d:55:59:44:f5:4f:b8:ef:ff:9a:2c:ba:21:19:85:
        dd:a6:d3:0d:92:59:13:6a:22:68:b0:e1:42:fc:a2:2a:d3:24:
        74:02:6c:18:cf:6a:3c:d0:31:1d:a0:d4:b5:d0:1e:37:00:7d:
        fd:b5:23:f9
-----BEGIN CERTIFICATE-----
MIIDbzCCAlegAwIBAgIQGNp5ISY3HpmW2PHwPwj1QzANBgkqhkiG9w0BAQsFADAU
MRIwEAYDVQQDDAl0ZWFtNi1uZXQwHhcNMjMwNDIwMjI1MzMxWhcNMjYwNDA0MjI1
MzMxWjAXMRUwEwYDVQQDDAx0ZWFtNi1zZXJ2ZXIwggEiMA0GCSqGSIb3DQEBAQUA
A4IBDwAwggEKAoIBAQCY7dPyzR3LhXMRAhRPOZBGOlqAMoBwWvxrLIE90Z+jfMAk
Cy0LKuF3x+hj1V7U1EZ/KDeNxp59v+gDg3V0kbjeUXFbhLVHaXUec4nkTF80fi8T
fyf4ih1e5WPCTP0OA4u1S4E67SJsmk0PrMtQl1rRloLtOtIJ3/IaKE8XYS3ZGksR
AUkpO3Uv4DzHIgiDeE0ZCDNbwCxr2kCgePO/CFahnckNFzT2JRntDzL6UsthfaVR
BcOLVAu4xK0l0fDd7KOjqs/2uFo5yUu+DF3DqS6GupT08H0hQp6G0LYZaGIOlDxO
GYIJRxy1sbgiyV6GV5+n0/oaqO4IMyrI9fsaqx/TAgMBAAGjgbkwgbYwCQYDVR0T
BAIwADAdBgNVHQ4EFgQUYyZhQWWN5lPZjQRI4GmUKtrIrfEwTwYDVR0jBEgwRoAU
TO/K/6ahcznl/PpZj9Dn9kmki8uhGKQWMBQxEjAQBgNVBAMMCXRlYW02LW5ldIIU
V9WSNs3WaLSAdEb+3VejcCjDDeQwEwYDVR0lBAwwCgYIKwYBBQUHAwEwCwYDVR0P
BAQDAgWgMBcGA1UdEQQQMA6CDHRlYW02LXNlcnZlcjANBgkqhkiG9w0BAQsFAAOC
AQEACEvPwOa2ycVklsH2YVoZ9KbxcjycatCtczcIQZ/dfzcD3dvm+AMbd9I8XK7F
3zou7hFDAvVMUDwqX0bNeI7+7TYrlJWg4ZTeKWXLs5bEBAR92xEBrr8XNfqW6FbR
nc+DvKNxaiiqzNaS8UKy+bC+RQjhebpYQbDv6UjyPFesnFad8U7a9wvXnQ5bCSRq
A5xnwgbo7EfNrW1ySUY6ciYl+U4VNyO+06+FAS0jmDzKHVEDlLy7LD5Z4V5Iykoo
AUrWO5EXFbqkCnlKnVVZRPVPuO//miy6IRmF3abTDZJZE2oiaLDhQvyiKtMkdAJs
GM9qPNAxHaDUtdAeNwB9/bUj+Q==
-----END CERTIFICATE-----
