Certificate:
    Data:
        Version: 3 (0x2)
        Serial Number:
            ff:d0:21:5d:ee:76:42:ff:b3:c2:75:1b:60:c9:c7:89
        Signature Algorithm: sha256WithRSAEncryption
        Issuer: CN=team6-net
        Validity
            Not Before: Apr 20 00:10:02 2023 GMT
            Not After : Apr  4 00:10:02 2026 GMT
        Subject: CN=team6-server
        Subject Public Key Info:
            Public Key Algorithm: rsaEncryption
                Public-Key: (2048 bit)
                Modulus:
                    00:c4:f4:6b:7a:06:ad:77:cd:7e:41:13:15:32:33:
                    ed:a9:7d:7c:d0:d7:23:19:ca:62:42:f5:cc:b4:7c:
                    8c:1b:c0:73:25:45:91:ad:eb:ff:89:f1:fb:cd:41:
                    6b:5b:28:82:06:3b:27:72:11:a8:26:2e:7e:01:0b:
                    69:c4:1e:29:3d:1a:e5:60:c8:5c:5f:5a:d4:48:0b:
                    8f:d9:67:5e:36:27:8f:71:12:0d:8d:b1:04:9d:b6:
                    54:83:c4:e0:cc:87:d2:e6:da:71:31:3a:eb:45:0b:
                    85:b4:c9:6f:3f:3c:a0:6a:30:25:13:4c:74:08:41:
                    e3:e2:3d:65:2a:53:1a:1c:57:5d:1c:6c:f0:d3:6d:
                    a2:16:b6:69:96:c4:ce:fc:69:4d:7b:86:5f:e3:59:
                    0a:4a:0f:b4:71:53:1f:ca:39:0b:1b:54:6f:46:4d:
                    9d:b4:6e:cc:29:e8:0f:92:71:70:83:10:d0:5e:f7:
                    19:d4:ab:de:26:38:43:ee:f7:0d:5d:1e:c8:fd:97:
                    77:5e:b6:7a:09:f9:62:25:98:f3:de:8e:cf:1f:d3:
                    3a:92:a6:7b:ff:1e:05:9e:70:98:9a:a5:64:27:8f:
                    00:d0:64:0b:11:0d:33:f1:b8:16:03:e5:2c:47:ca:
                    4e:c8:74:33:81:86:97:52:e7:7f:ba:e2:9f:82:82:
                    e2:a1
                Exponent: 65537 (0x10001)
        X509v3 extensions:
            X509v3 Basic Constraints: 
                CA:FALSE
            X509v3 Subject Key Identifier: 
                D8:03:D5:05:A0:35:7D:C7:E3:B2:01:79:BD:0B:69:35:96:5A:D5:6B
            X509v3 Authority Key Identifier: 
                keyid:8D:88:40:02:BA:C5:CC:13:5A:3B:84:C9:04:7B:A9:23:85:88:63:59
                DirName:/CN=team6-net
                serial:6C:70:9F:91:F5:A8:3D:B2:B0:AD:D9:D9:E5:DB:06:F6:63:C4:A7:E5
            X509v3 Extended Key Usage: 
                TLS Web Server Authentication
            X509v3 Key Usage: 
                Digital Signature, Key Encipherment
            X509v3 Subject Alternative Name: 
                DNS:team6-server
    Signature Algorithm: sha256WithRSAEncryption
    Signature Value:
        60:84:6c:a7:45:21:98:dc:b9:d8:c2:66:a8:ba:dc:fb:bf:f6:
        d6:61:21:da:5f:a7:14:39:d0:e1:df:1a:02:05:2d:a0:98:a4:
        38:73:64:49:08:1e:17:65:27:5e:c2:a0:16:f2:3a:12:41:82:
        f6:d3:b3:8d:98:ae:70:3b:04:a3:21:70:e6:5e:d0:ac:08:12:
        40:b4:82:66:87:8b:b5:ce:c8:d6:3d:27:96:39:f4:27:a6:87:
        10:3f:56:8a:79:67:72:f0:0a:aa:b9:3b:2d:70:d8:5b:cc:ef:
        9f:eb:02:43:8b:4f:bc:2c:a3:89:06:d5:82:fe:1c:6a:70:86:
        b8:db:cb:e9:15:ea:ea:ed:35:db:a4:20:25:04:80:42:d0:28:
        f9:57:9c:86:84:56:e7:fa:75:3d:bf:2c:77:a8:45:7c:7a:13:
        db:c0:ac:1a:11:2e:15:74:a3:39:74:e4:23:7e:27:97:71:ff:
        53:13:f3:7c:86:56:26:c3:69:a6:3e:22:3f:a5:8c:9a:58:e0:
        8e:62:fc:96:17:e1:33:cb:44:da:39:06:a9:35:93:95:ea:23:
        84:ff:04:c9:6d:62:86:61:59:56:b6:a0:91:dc:63:d0:80:3b:
        76:70:aa:99:6c:ae:a0:fe:bc:79:d4:d9:3d:00:2f:85:74:78:
        a3:3d:52:a9
-----BEGIN CERTIFICATE-----
MIIDcDCCAligAwIBAgIRAP/QIV3udkL/s8J1G2DJx4kwDQYJKoZIhvcNAQELBQAw
FDESMBAGA1UEAwwJdGVhbTYtbmV0MB4XDTIzMDQyMDAwMTAwMloXDTI2MDQwNDAw
MTAwMlowFzEVMBMGA1UEAwwMdGVhbTYtc2VydmVyMIIBIjANBgkqhkiG9w0BAQEF
AAOCAQ8AMIIBCgKCAQEAxPRregatd81+QRMVMjPtqX180NcjGcpiQvXMtHyMG8Bz
JUWRrev/ifH7zUFrWyiCBjsnchGoJi5+AQtpxB4pPRrlYMhcX1rUSAuP2WdeNieP
cRINjbEEnbZUg8TgzIfS5tpxMTrrRQuFtMlvPzygajAlE0x0CEHj4j1lKlMaHFdd
HGzw022iFrZplsTO/GlNe4Zf41kKSg+0cVMfyjkLG1RvRk2dtG7MKegPknFwgxDQ
XvcZ1KveJjhD7vcNXR7I/Zd3XrZ6CfliJZjz3o7PH9M6kqZ7/x4FnnCYmqVkJ48A
0GQLEQ0z8bgWA+UsR8pOyHQzgYaXUud/uuKfgoLioQIDAQABo4G5MIG2MAkGA1Ud
EwQCMAAwHQYDVR0OBBYEFNgD1QWgNX3H47IBeb0LaTWWWtVrME8GA1UdIwRIMEaA
FI2IQAK6xcwTWjuEyQR7qSOFiGNZoRikFjAUMRIwEAYDVQQDDAl0ZWFtNi1uZXSC
FGxwn5H1qD2ysK3Z2eXbBvZjxKflMBMGA1UdJQQMMAoGCCsGAQUFBwMBMAsGA1Ud
DwQEAwIFoDAXBgNVHREEEDAOggx0ZWFtNi1zZXJ2ZXIwDQYJKoZIhvcNAQELBQAD
ggEBAGCEbKdFIZjcudjCZqi63Pu/9tZhIdpfpxQ50OHfGgIFLaCYpDhzZEkIHhdl
J17CoBbyOhJBgvbTs42YrnA7BKMhcOZe0KwIEkC0gmaHi7XOyNY9J5Y59CemhxA/
Vop5Z3LwCqq5Oy1w2FvM75/rAkOLT7wso4kG1YL+HGpwhrjby+kV6urtNdukICUE
gELQKPlXnIaEVuf6dT2/LHeoRXx6E9vArBoRLhV0ozl05CN+J5dx/1MT83yGVibD
aaY+Ij+ljJpY4I5i/JYX4TPLRNo5Bqk1k5XqI4T/BMltYoZhWVa2oJHcY9CAO3Zw
qplsrqD+vHnU2T0AL4V0eKM9Uqk=
-----END CERTIFICATE-----
