Certificate:
    Data:
        Version: 3 (0x2)
        Serial Number:
            a7:24:b7:46:a2:0a:65:9c:39:67:e2:cf:ed:e0:56:ca
        Signature Algorithm: sha256WithRSAEncryption
        Issuer: CN=team17-net
        Validity
            Not Before: Apr 20 00:10:20 2023 GMT
            Not After : Apr  4 00:10:20 2026 GMT
        Subject: CN=team17-server
        Subject Public Key Info:
            Public Key Algorithm: rsaEncryption
                Public-Key: (2048 bit)
                Modulus:
                    00:f4:78:c9:e3:27:d0:54:35:f1:22:ce:ac:47:b3:
                    43:5d:ac:a0:4f:91:5d:b0:b9:77:01:66:fe:a6:29:
                    e7:6c:fd:cc:17:98:b6:92:9a:31:d7:7c:ad:8f:ec:
                    f2:9c:ae:8e:a8:48:1f:e1:1d:78:02:d0:68:63:bf:
                    c6:1c:76:83:22:ae:df:ec:f6:22:fc:4f:32:95:9a:
                    60:33:3e:81:91:74:65:46:09:25:40:bf:ab:57:dd:
                    91:a2:30:47:14:d4:18:da:9e:b7:b1:22:65:21:64:
                    32:1b:69:98:82:60:99:51:96:fc:50:c5:9d:a6:83:
                    a8:84:c0:60:98:ff:7e:f7:28:29:20:e9:d9:64:37:
                    e0:94:0e:e3:c8:4b:9d:fc:63:e1:7e:da:8b:ea:d4:
                    87:ec:b1:1d:1e:93:25:70:97:c7:8d:9f:57:4c:c8:
                    e3:e5:cf:bb:31:87:b6:b6:56:e3:d5:44:af:e2:af:
                    76:2b:ad:4e:e4:3d:cf:48:c8:39:41:83:a8:b7:29:
                    8b:00:f7:53:80:bf:62:be:78:1a:19:14:44:43:68:
                    4b:fb:c3:3c:06:9b:a3:ae:6e:59:df:d7:bf:27:31:
                    d4:a5:da:a0:77:0a:c2:a1:cf:eb:9b:2b:83:da:af:
                    4a:5d:f3:d9:f0:00:a6:a1:0f:05:ee:17:18:09:4a:
                    83:2f
                Exponent: 65537 (0x10001)
        X509v3 extensions:
            X509v3 Basic Constraints: 
                CA:FALSE
            X509v3 Subject Key Identifier: 
                3E:39:F9:A2:3D:7A:20:FF:DC:5F:E8:64:77:FB:CD:D6:79:35:9F:4B
            X509v3 Authority Key Identifier: 
                keyid:B8:76:3D:3E:08:3B:30:C4:C0:A0:20:45:DA:72:2F:78:5A:02:C8:3F
                DirName:/CN=team17-net
                serial:2A:1C:F6:44:20:80:D8:92:CA:58:62:B8:7B:30:CB:AB:8A:92:11:34
            X509v3 Extended Key Usage: 
                TLS Web Server Authentication
            X509v3 Key Usage: 
                Digital Signature, Key Encipherment
            X509v3 Subject Alternative Name: 
                DNS:team17-server
    Signature Algorithm: sha256WithRSAEncryption
    Signature Value:
        27:a1:f2:d7:fb:2a:36:f1:ce:2d:2a:d2:e6:c0:4f:59:93:fd:
        59:9f:97:36:8d:9c:cd:ea:7d:75:c5:c5:95:c7:ac:c7:6e:c0:
        28:06:94:1a:84:a3:31:e1:3a:36:5a:19:3c:44:9d:7c:c1:45:
        79:f9:73:75:5e:90:80:39:4a:ce:a9:46:0d:f2:1c:55:9a:b0:
        e3:50:f3:1d:30:22:47:8a:b7:d7:b1:b0:60:cf:ad:0d:a2:f1:
        e6:a1:25:d7:51:f5:93:d3:7b:51:56:7d:38:2a:35:41:72:8d:
        c0:e3:ca:37:40:98:08:f3:2e:62:9b:70:68:a9:24:80:22:a9:
        74:db:02:a4:6d:74:f9:22:1c:0a:d7:ba:76:e3:6d:b1:f1:92:
        9e:ac:4a:fa:8a:55:0d:bd:50:a4:28:18:af:4e:81:d3:67:0a:
        79:5b:3a:b7:ce:57:0b:32:fa:39:8d:49:da:68:bc:79:15:8f:
        a7:16:ae:e8:29:3e:da:13:ce:7b:6a:55:98:d9:58:2a:34:c9:
        cf:8f:2e:93:10:38:c1:6c:80:e7:42:73:ed:b4:21:47:26:19:
        20:51:5d:02:4c:d9:b5:6e:65:4a:5a:0b:3b:05:ca:c8:7a:47:
        d8:0d:7c:4c:06:03:d0:87:6c:23:82:81:3c:37:e5:15:11:cf:
        98:c6:34:dc
-----BEGIN CERTIFICATE-----
MIIDdDCCAlygAwIBAgIRAKckt0aiCmWcOWfiz+3gVsowDQYJKoZIhvcNAQELBQAw
FTETMBEGA1UEAwwKdGVhbTE3LW5ldDAeFw0yMzA0MjAwMDEwMjBaFw0yNjA0MDQw
MDEwMjBaMBgxFjAUBgNVBAMMDXRlYW0xNy1zZXJ2ZXIwggEiMA0GCSqGSIb3DQEB
AQUAA4IBDwAwggEKAoIBAQD0eMnjJ9BUNfEizqxHs0NdrKBPkV2wuXcBZv6mKeds
/cwXmLaSmjHXfK2P7PKcro6oSB/hHXgC0Ghjv8YcdoMirt/s9iL8TzKVmmAzPoGR
dGVGCSVAv6tX3ZGiMEcU1BjanrexImUhZDIbaZiCYJlRlvxQxZ2mg6iEwGCY/373
KCkg6dlkN+CUDuPIS538Y+F+2ovq1IfssR0ekyVwl8eNn1dMyOPlz7sxh7a2VuPV
RK/ir3YrrU7kPc9IyDlBg6i3KYsA91OAv2K+eBoZFERDaEv7wzwGm6Oublnf178n
MdSl2qB3CsKhz+ubK4Par0pd89nwAKahDwXuFxgJSoMvAgMBAAGjgbswgbgwCQYD
VR0TBAIwADAdBgNVHQ4EFgQUPjn5oj16IP/cX+hkd/vN1nk1n0swUAYDVR0jBEkw
R4AUuHY9Pgg7MMTAoCBF2nIveFoCyD+hGaQXMBUxEzARBgNVBAMMCnRlYW0xNy1u
ZXSCFCoc9kQggNiSylhiuHswy6uKkhE0MBMGA1UdJQQMMAoGCCsGAQUFBwMBMAsG
A1UdDwQEAwIFoDAYBgNVHREEETAPgg10ZWFtMTctc2VydmVyMA0GCSqGSIb3DQEB
CwUAA4IBAQAnofLX+yo28c4tKtLmwE9Zk/1Zn5c2jZzN6n11xcWVx6zHbsAoBpQa
hKMx4To2Whk8RJ18wUV5+XN1XpCAOUrOqUYN8hxVmrDjUPMdMCJHirfXsbBgz60N
ovHmoSXXUfWT03tRVn04KjVBco3A48o3QJgI8y5im3BoqSSAIql02wKkbXT5IhwK
17p2422x8ZKerEr6ilUNvVCkKBivToHTZwp5Wzq3zlcLMvo5jUnaaLx5FY+nFq7o
KT7aE857alWY2VgqNMnPjy6TEDjBbIDnQnPttCFHJhkgUV0CTNm1bmVKWgs7BcrI
ekfYDXxMBgPQh2wjgoE8N+UVEc+YxjTc
-----END CERTIFICATE-----
