Certificate:
    Data:
        Version: 3 (0x2)
        Serial Number:
            b1:78:d2:ce:8d:84:79:b0:62:83:ab:04:f2:3a:57:c8
        Signature Algorithm: sha256WithRSAEncryption
        Issuer: CN=team17-net
        Validity
            Not Before: Apr 20 00:10:19 2023 GMT
            Not After : Apr  4 00:10:19 2026 GMT
        Subject: CN=team17-client
        Subject Public Key Info:
            Public Key Algorithm: rsaEncryption
                Public-Key: (2048 bit)
                Modulus:
                    00:a8:0b:af:39:ef:b4:63:d6:42:c9:f2:71:b1:fa:
                    29:6e:e1:b7:f6:30:7d:d5:2d:ff:64:3e:84:17:a5:
                    f7:61:60:93:05:8c:cb:87:2a:ea:13:4b:27:82:2a:
                    34:54:1a:32:53:47:38:22:72:77:87:33:f1:3f:87:
                    45:8c:ca:f9:d2:5d:42:fb:05:6f:b7:2c:85:fa:b2:
                    0f:6c:1e:cd:ba:0b:a4:55:8f:d3:08:23:53:8b:38:
                    03:8e:e7:fd:2a:84:76:ab:77:ac:6a:ff:70:63:f2:
                    4c:2f:75:1e:6e:d0:19:65:cc:e0:df:eb:d9:9a:59:
                    fa:ab:75:90:f8:01:b3:df:e5:d7:53:63:da:2a:56:
                    1e:cd:c9:bf:7b:03:cb:41:8d:2a:71:e9:cd:c8:75:
                    ec:9c:17:5e:aa:ed:0b:1c:50:0b:7a:76:ea:e1:ff:
                    80:eb:9f:dc:43:2b:b6:6e:99:46:ea:58:4d:3b:23:
                    5e:92:5d:0d:95:2c:87:37:80:89:8b:ba:49:73:c5:
                    3d:7a:9b:c2:94:42:bf:9e:04:65:10:b1:0e:f6:b6:
                    5b:2b:0c:b5:30:22:84:9c:cf:e9:8d:35:5f:38:50:
                    03:f4:6d:32:60:6a:d1:ce:92:0c:af:7d:f8:0b:2c:
                    26:64:21:07:0d:a6:b6:da:59:07:a9:55:20:26:18:
                    8b:fb
                Exponent: 65537 (0x10001)
        X509v3 extensions:
            X509v3 Basic Constraints: 
                CA:FALSE
            X509v3 Subject Key Identifier: 
                74:89:35:64:E1:95:6C:9F:39:C6:13:ED:20:25:D6:CA:83:59:55:45
            X509v3 Authority Key Identifier: 
                keyid:B8:76:3D:3E:08:3B:30:C4:C0:A0:20:45:DA:72:2F:78:5A:02:C8:3F
                DirName:/CN=team17-net
                serial:2A:1C:F6:44:20:80:D8:92:CA:58:62:B8:7B:30:CB:AB:8A:92:11:34
            X509v3 Extended Key Usage: 
                TLS Web Client Authentication
            X509v3 Key Usage: 
                Digital Signature
    Signature Algorithm: sha256WithRSAEncryption
    Signature Value:
        8f:b1:73:e2:2b:53:82:11:84:49:98:bc:07:4d:44:a3:c5:05:
        b0:02:fe:50:68:93:2f:10:2b:d1:cd:35:a7:af:6f:cc:d7:91:
        3f:22:9e:57:71:e7:cd:ee:de:31:c3:de:ea:97:1d:fe:93:c7:
        6a:93:f2:66:a8:ed:d8:60:a9:8a:b7:2e:2d:9a:8d:f7:ed:0c:
        f1:12:f4:87:87:5b:91:97:20:0b:4f:7b:54:c1:e4:4d:74:25:
        ad:05:11:95:a3:a7:99:e1:f7:f6:0f:e0:a4:a5:c1:38:84:01:
        a1:0e:aa:86:86:79:db:81:c3:33:3e:6b:ab:86:68:11:8f:cc:
        e5:c6:f4:de:51:59:fe:f7:b3:44:4f:f4:57:9d:39:52:69:fa:
        fb:3d:e1:ee:f0:12:46:7b:59:ad:f9:b8:3c:0b:67:8a:50:e8:
        e0:41:f3:7d:b9:a3:73:d0:a5:8c:21:6f:3c:b8:33:72:37:42:
        e1:56:a7:72:ff:ae:b9:8f:39:67:66:83:52:1d:22:66:dd:f8:
        f1:bc:b8:2f:fa:a3:38:db:94:61:75:9b:be:98:95:f3:58:14:
        e4:55:d4:73:38:19:db:4c:df:06:91:fb:ee:8a:f2:ec:24:40:
        dc:41:d8:fd:68:b0:a4:78:b8:1c:2e:79:4d:7b:16:b6:5e:51:
        9e:30:29:25
-----BEGIN CERTIFICATE-----
MIIDWjCCAkKgAwIBAgIRALF40s6NhHmwYoOrBPI6V8gwDQYJKoZIhvcNAQELBQAw
FTETMBEGA1UEAwwKdGVhbTE3LW5ldDAeFw0yMzA0MjAwMDEwMTlaFw0yNjA0MDQw
MDEwMTlaMBgxFjAUBgNVBAMMDXRlYW0xNy1jbGllbnQwggEiMA0GCSqGSIb3DQEB
AQUAA4IBDwAwggEKAoIBAQCoC68577Rj1kLJ8nGx+ilu4bf2MH3VLf9kPoQXpfdh
YJMFjMuHKuoTSyeCKjRUGjJTRzgicneHM/E/h0WMyvnSXUL7BW+3LIX6sg9sHs26
C6RVj9MII1OLOAOO5/0qhHard6xq/3Bj8kwvdR5u0BllzODf69maWfqrdZD4AbPf
5ddTY9oqVh7Nyb97A8tBjSpx6c3IdeycF16q7QscUAt6durh/4Drn9xDK7ZumUbq
WE07I16SXQ2VLIc3gImLuklzxT16m8KUQr+eBGUQsQ72tlsrDLUwIoScz+mNNV84
UAP0bTJgatHOkgyvffgLLCZkIQcNprbaWQepVSAmGIv7AgMBAAGjgaEwgZ4wCQYD
VR0TBAIwADAdBgNVHQ4EFgQUdIk1ZOGVbJ85xhPtICXWyoNZVUUwUAYDVR0jBEkw
R4AUuHY9Pgg7MMTAoCBF2nIveFoCyD+hGaQXMBUxEzARBgNVBAMMCnRlYW0xNy1u
ZXSCFCoc9kQggNiSylhiuHswy6uKkhE0MBMGA1UdJQQMMAoGCCsGAQUFBwMCMAsG
A1UdDwQEAwIHgDANBgkqhkiG9w0BAQsFAAOCAQEAj7Fz4itTghGESZi8B01Eo8UF
sAL+UGiTLxAr0c01p69vzNeRPyKeV3Hnze7eMcPe6pcd/pPHapPyZqjt2GCpircu
LZqN9+0M8RL0h4dbkZcgC097VMHkTXQlrQURlaOnmeH39g/gpKXBOIQBoQ6qhoZ5
24HDMz5rq4ZoEY/M5cb03lFZ/vezRE/0V505Umn6+z3h7vASRntZrfm4PAtnilDo
4EHzfbmjc9CljCFvPLgzcjdC4Vancv+uuY85Z2aDUh0iZt348by4L/qjONuUYXWb
vpiV81gU5FXUczgZ20zfBpH77ory7CRA3EHY/WiwpHi4HC55TXsWtl5RnjApJQ==
-----END CERTIFICATE-----
