Certificate:
    Data:
        Version: 3 (0x2)
        Serial Number:
            a9:b9:09:e2:c7:ac:1f:72:2f:b6:3a:c1:42:25:4a:a2
        Signature Algorithm: sha256WithRSAEncryption
        Issuer: CN=team38-net
        Validity
            Not Before: Apr 20 00:10:51 2023 GMT
            Not After : Apr  4 00:10:51 2026 GMT
        Subject: CN=team38-server
        Subject Public Key Info:
            Public Key Algorithm: rsaEncryption
                Public-Key: (2048 bit)
                Modulus:
                    00:c2:23:e1:19:bb:64:05:c8:1e:b1:65:76:99:38:
                    19:73:d7:f8:95:47:1e:0c:f8:97:a2:54:a2:c2:b2:
                    bb:10:e9:0d:95:de:29:4e:32:8f:d2:3f:2a:48:ff:
                    73:6d:e4:50:11:d8:89:61:0a:a6:db:0e:f7:5a:16:
                    c0:a7:85:d8:bf:72:0d:29:f4:bd:0a:aa:a3:4c:f3:
                    15:e4:a0:8b:63:28:c9:26:79:47:48:f5:9f:a2:05:
                    a7:8b:07:a7:2c:86:a6:1e:1f:45:6b:79:10:ef:79:
                    d2:4c:99:f0:65:31:47:52:d2:f0:78:5a:86:19:5b:
                    88:6c:11:07:3f:e1:e0:6a:80:81:00:b5:d7:cd:0e:
                    5a:fe:f9:7b:24:ec:cb:8c:0e:7b:06:c5:74:12:2b:
                    70:01:c0:38:32:cc:4a:3f:1b:5e:90:34:f4:a3:3e:
                    52:62:87:82:7c:f3:81:1c:f8:1a:ac:d0:ea:f0:38:
                    1d:17:02:38:c5:ba:4e:5c:65:35:39:90:71:88:8e:
                    be:45:a3:97:c7:71:4c:f7:99:79:39:d7:44:a2:8c:
                    36:3f:39:1c:8d:cb:c6:9c:8e:a2:7d:48:b5:0c:fb:
                    38:3a:6c:2b:9e:f5:87:56:ff:fe:16:b7:5b:57:e7:
                    9b:c2:28:b2:48:96:26:0b:d5:22:b5:ef:6a:f6:ab:
                    a4:2b
                Exponent: 65537 (0x10001)
        X509v3 extensions:
            X509v3 Basic Constraints: 
                CA:FALSE
            X509v3 Subject Key Identifier: 
                3B:B2:8B:D0:86:83:82:BD:2A:FC:D5:49:A0:78:F8:DB:7B:73:90:86
            X509v3 Authority Key Identifier: 
                keyid:16:CE:B7:5F:26:E7:48:07:B4:B2:06:78:6C:5A:CA:A7:D8:A2:A5:18
                DirName:/CN=team38-net
                serial:63:5D:25:0E:20:E4:5A:CE:DB:A3:47:3D:D2:88:D9:29:08:43:28:AB
            X509v3 Extended Key Usage: 
                TLS Web Server Authentication
            X509v3 Key Usage: 
                Digital Signature, Key Encipherment
            X509v3 Subject Alternative Name: 
                DNS:team38-server
    Signature Algorithm: sha256WithRSAEncryption
    Signature Value:
        4b:78:1c:50:bd:92:19:02:6f:6a:58:9a:8e:c8:61:f6:01:ad:
        e3:c9:cb:1e:b8:8d:ee:3b:e1:0c:48:d3:6d:85:c4:4b:5c:82:
        12:5a:9b:42:41:3b:76:9a:e6:9e:ea:72:0f:3e:25:bf:0c:dc:
        c0:f2:37:f5:97:c0:a6:23:9b:21:d3:42:74:65:58:15:15:c1:
        8e:fc:3f:51:4f:a0:b4:68:8b:b4:c8:e5:df:b5:e2:69:0c:47:
        ab:71:ee:a8:29:6c:bc:fe:ff:ab:95:b6:6d:08:25:34:7d:b6:
        f7:2e:c2:fe:8a:7c:2a:b8:66:d3:29:3f:6e:a0:7b:ad:a2:1e:
        6d:c5:ce:f6:0f:c8:a2:87:48:4f:3d:f8:fb:c8:b0:dc:9a:9f:
        86:de:b2:52:bc:11:29:51:b3:b0:7e:33:bc:ad:a9:8a:e2:71:
        16:f4:de:25:e1:b6:a9:87:7f:19:02:90:b7:fd:b5:45:97:ea:
        ea:e4:88:f6:bd:0e:39:91:54:7e:f4:b5:c6:1b:bb:87:11:5d:
        79:dc:a6:4f:3a:0e:9c:21:ab:6d:5f:61:58:58:11:49:70:28:
        d1:0a:6a:80:cb:48:a7:1e:ac:a1:be:9e:c2:d0:79:6d:c9:d6:
        68:20:0b:99:24:48:b2:f9:78:be:b4:9b:a7:d6:fe:8d:45:5b:
        7d:bc:65:0d
-----BEGIN CERTIFICATE-----
MIIDdDCCAlygAwIBAgIRAKm5CeLHrB9yL7Y6wUIlSqIwDQYJKoZIhvcNAQELBQAw
FTETMBEGA1UEAwwKdGVhbTM4LW5ldDAeFw0yMzA0MjAwMDEwNTFaFw0yNjA0MDQw
MDEwNTFaMBgxFjAUBgNVBAMMDXRlYW0zOC1zZXJ2ZXIwggEiMA0GCSqGSIb3DQEB
AQUAA4IBDwAwggEKAoIBAQDCI+EZu2QFyB6xZXaZOBlz1/iVRx4M+JeiVKLCsrsQ
6Q2V3ilOMo/SPypI/3Nt5FAR2IlhCqbbDvdaFsCnhdi/cg0p9L0KqqNM8xXkoItj
KMkmeUdI9Z+iBaeLB6cshqYeH0VreRDvedJMmfBlMUdS0vB4WoYZW4hsEQc/4eBq
gIEAtdfNDlr++Xsk7MuMDnsGxXQSK3ABwDgyzEo/G16QNPSjPlJih4J884Ec+Bqs
0OrwOB0XAjjFuk5cZTU5kHGIjr5Fo5fHcUz3mXk510SijDY/ORyNy8acjqJ9SLUM
+zg6bCue9YdW//4Wt1tX55vCKLJIliYL1SK172r2q6QrAgMBAAGjgbswgbgwCQYD
VR0TBAIwADAdBgNVHQ4EFgQUO7KL0IaDgr0q/NVJoHj423tzkIYwUAYDVR0jBEkw
R4AUFs63XybnSAe0sgZ4bFrKp9iipRihGaQXMBUxEzARBgNVBAMMCnRlYW0zOC1u
ZXSCFGNdJQ4g5FrO26NHPdKI2SkIQyirMBMGA1UdJQQMMAoGCCsGAQUFBwMBMAsG
A1UdDwQEAwIFoDAYBgNVHREEETAPgg10ZWFtMzgtc2VydmVyMA0GCSqGSIb3DQEB
CwUAA4IBAQBLeBxQvZIZAm9qWJqOyGH2Aa3jycseuI3uO+EMSNNthcRLXIISWptC
QTt2muae6nIPPiW/DNzA8jf1l8CmI5sh00J0ZVgVFcGO/D9RT6C0aIu0yOXfteJp
DEerce6oKWy8/v+rlbZtCCU0fbb3LsL+inwquGbTKT9uoHutoh5txc72D8iih0hP
Pfj7yLDcmp+G3rJSvBEpUbOwfjO8ramK4nEW9N4l4baph38ZApC3/bVFl+rq5Ij2
vQ45kVR+9LXGG7uHEV153KZPOg6cIattX2FYWBFJcCjRCmqAy0inHqyhvp7C0Hlt
ydZoIAuZJEiy+Xi+tJun1v6NRVt9vGUN
-----END CERTIFICATE-----
