Certificate:
    Data:
        Version: 3 (0x2)
        Serial Number:
            23:c3:7a:68:a7:04:de:e9:90:19:92:57:25:3c:0c:49
        Signature Algorithm: sha256WithRSAEncryption
        Issuer: CN=team9-net
        Validity
            Not Before: Apr 20 00:10:05 2023 GMT
            Not After : Apr  4 00:10:05 2026 GMT
        Subject: CN=team9-client
        Subject Public Key Info:
            Public Key Algorithm: rsaEncryption
                Public-Key: (2048 bit)
                Modulus:
                    00:b1:da:7d:32:f6:60:0b:54:17:6a:56:e2:7c:e8:
                    09:56:06:34:3f:8a:c3:4e:c1:b4:ea:04:9c:60:12:
                    69:09:e2:23:b8:c5:d5:51:3b:79:a0:f4:9e:7d:b8:
                    5f:7c:c0:94:c7:c8:76:b8:c3:64:63:a5:cd:19:23:
                    92:00:25:c1:95:cd:6a:f9:39:64:9f:ca:ca:77:69:
                    ce:a4:5c:54:e4:67:a1:12:72:81:ae:c7:3a:bd:5e:
                    59:dd:ee:d7:52:b8:8b:17:1a:70:9d:84:47:aa:56:
                    79:66:c1:4e:1f:fe:fc:bf:11:8a:f5:52:df:49:3f:
                    cd:78:72:dc:2f:0d:ad:16:ef:dd:c4:16:14:cd:73:
                    9a:f7:71:35:9a:93:af:8e:67:21:ca:50:51:43:4a:
                    a5:96:42:58:06:6d:d3:1f:99:3a:ad:01:34:f3:2e:
                    55:69:f8:65:c8:5c:d0:3c:7e:03:1b:5b:f6:e3:27:
                    35:25:f1:94:a4:2f:2c:3d:f9:94:49:36:0d:14:ce:
                    40:a3:10:dd:63:54:c8:4c:fa:ec:f8:84:09:aa:d1:
                    e2:43:f5:df:d8:85:e0:42:d1:42:ff:52:67:30:fb:
                    41:c1:b4:98:92:f6:23:2e:4a:25:ca:1c:ef:44:a6:
                    23:5f:12:36:67:4e:b4:bd:d7:30:04:7d:fd:e4:a6:
                    37:8f
                Exponent: 65537 (0x10001)
        X509v3 extensions:
            X509v3 Basic Constraints: 
                CA:FALSE
            X509v3 Subject Key Identifier: 
                8B:F5:AF:45:62:B1:8F:F2:84:67:32:92:14:84:F4:50:13:6D:93:9C
            X509v3 Authority Key Identifier: 
                keyid:82:7D:AE:29:5A:FF:AD:33:24:2B:33:23:D8:39:C0:07:D7:D2:44:F3
                DirName:/CN=team9-net
                serial:46:92:C8:59:E9:F7:D5:F1:73:96:F2:67:EC:11:17:AD:DE:A9:4B:2E
            X509v3 Extended Key Usage: 
                TLS Web Client Authentication
            X509v3 Key Usage: 
                Digital Signature
    Signature Algorithm: sha256WithRSAEncryption
    Signature Value:
        2a:7a:7d:79:8c:5d:3e:db:64:f8:e6:6a:76:e1:ab:4f:e7:95:
        56:a8:81:2e:1e:0f:b7:45:bd:eb:e6:c1:1f:44:6c:11:72:1e:
        b6:f1:f5:08:10:34:e2:60:e3:3c:29:99:e5:fb:91:ef:e5:2f:
        87:f1:f7:08:98:4d:fd:d9:c7:2c:70:e1:2c:9c:a3:57:b0:8e:
        cd:17:46:00:fa:b7:f1:6d:09:3c:3c:6a:d1:31:59:d7:80:7c:
        3a:3f:7c:da:14:e1:a3:3b:5b:c7:19:db:75:75:50:df:7c:00:
        5c:8e:54:74:f1:eb:76:41:bd:bf:5a:45:3b:05:1c:fc:d8:92:
        17:af:b3:84:c5:50:d2:26:d0:91:60:44:6d:fa:01:db:24:ec:
        d7:9a:b3:95:5d:99:cb:94:73:f4:02:3d:85:73:13:6a:b3:87:
        fe:f0:42:89:74:da:0a:1d:46:d4:2d:92:31:57:6e:44:bf:fc:
        95:26:f7:f7:a4:a9:4d:72:8f:60:c3:47:00:29:3a:1a:9d:66:
        7f:5f:14:ca:f3:d0:71:1b:a6:e1:fa:c9:07:c2:0d:05:dd:ca:
        7a:0d:cf:8b:c6:99:be:a3:db:ab:da:4d:9b:ea:c3:f5:dc:6c:
        87:d2:86:b4:d2:ce:4b:45:fe:d7:0b:59:3e:ae:e0:94:fb:e8:
        af:b0:5a:32
-----BEGIN CERTIFICATE-----
MIIDVjCCAj6gAwIBAgIQI8N6aKcE3umQGZJXJTwMSTANBgkqhkiG9w0BAQsFADAU
MRIwEAYDVQQDDAl0ZWFtOS1uZXQwHhcNMjMwNDIwMDAxMDA1WhcNMjYwNDA0MDAx
MDA1WjAXMRUwEwYDVQQDDAx0ZWFtOS1jbGllbnQwggEiMA0GCSqGSIb3DQEBAQUA
A4IBDwAwggEKAoIBAQCx2n0y9mALVBdqVuJ86AlWBjQ/isNOwbTqBJxgEmkJ4iO4
xdVRO3mg9J59uF98wJTHyHa4w2Rjpc0ZI5IAJcGVzWr5OWSfysp3ac6kXFTkZ6ES
coGuxzq9Xlnd7tdSuIsXGnCdhEeqVnlmwU4f/vy/EYr1Ut9JP814ctwvDa0W793E
FhTNc5r3cTWak6+OZyHKUFFDSqWWQlgGbdMfmTqtATTzLlVp+GXIXNA8fgMbW/bj
JzUl8ZSkLyw9+ZRJNg0UzkCjEN1jVMhM+uz4hAmq0eJD9d/YheBC0UL/Umcw+0HB
tJiS9iMuSiXKHO9EpiNfEjZnTrS91zAEff3kpjePAgMBAAGjgaAwgZ0wCQYDVR0T
BAIwADAdBgNVHQ4EFgQUi/WvRWKxj/KEZzKSFIT0UBNtk5wwTwYDVR0jBEgwRoAU
gn2uKVr/rTMkKzMj2DnAB9fSRPOhGKQWMBQxEjAQBgNVBAMMCXRlYW05LW5ldIIU
RpLIWen31fFzlvJn7BEXrd6pSy4wEwYDVR0lBAwwCgYIKwYBBQUHAwIwCwYDVR0P
BAQDAgeAMA0GCSqGSIb3DQEBCwUAA4IBAQAqen15jF0+22T45mp24atP55VWqIEu
Hg+3Rb3r5sEfRGwRch628fUIEDTiYOM8KZnl+5Hv5S+H8fcImE392ccscOEsnKNX
sI7NF0YA+rfxbQk8PGrRMVnXgHw6P3zaFOGjO1vHGdt1dVDffABcjlR08et2Qb2/
WkU7BRz82JIXr7OExVDSJtCRYERt+gHbJOzXmrOVXZnLlHP0Aj2FcxNqs4f+8EKJ
dNoKHUbULZIxV25Ev/yVJvf3pKlNco9gw0cAKToanWZ/XxTK89BxG6bh+skHwg0F
3cp6Dc+Lxpm+o9ur2k2b6sP13GyH0oa00s5LRf7XC1k+ruCU++ivsFoy
-----END CERTIFICATE-----
