Certificate:
    Data:
        Version: 3 (0x2)
        Serial Number:
            ac:e0:6a:62:cd:0f:d5:df:a2:4b:37:e2:5b:ba:f5:71
        Signature Algorithm: sha256WithRSAEncryption
        Issuer: CN=team9-net
        Validity
            Not Before: Apr 20 22:53:35 2023 GMT
            Not After : Apr  4 22:53:35 2026 GMT
        Subject: CN=team9-client
        Subject Public Key Info:
            Public Key Algorithm: rsaEncryption
                Public-Key: (2048 bit)
                Modulus:
                    00:d4:4a:a9:d8:e0:58:90:03:e3:0e:61:ff:8f:e7:
                    be:02:76:5e:74:1a:8f:fd:09:eb:fe:58:64:4c:e6:
                    6b:7b:5f:77:55:28:99:6b:20:9b:b7:55:fd:94:be:
                    81:7e:8e:b3:7b:70:fd:79:ea:19:9f:7b:ab:72:89:
                    ff:a1:5f:40:7f:0f:6b:f1:d9:b6:fd:96:b1:b2:5a:
                    59:aa:aa:68:6e:79:e7:ac:21:8d:d2:1a:c4:de:09:
                    88:53:03:2d:77:08:70:d5:57:3a:ec:c4:e5:d7:a3:
                    b7:92:92:bd:e1:95:45:6f:43:9d:2d:64:4a:bb:12:
                    20:56:02:4a:e4:65:ad:ec:4b:3f:b3:26:c2:21:db:
                    10:e9:a6:9f:3c:bd:94:cb:75:b1:f3:66:36:79:b8:
                    74:f2:38:66:ed:95:a7:95:d8:cf:6b:89:24:e4:b8:
                    4c:6e:d7:a0:ab:7d:03:b8:3c:9c:19:ca:b1:2e:6d:
                    1c:7b:e1:dc:95:1f:66:d2:bd:d5:92:9f:d2:17:d3:
                    d9:a5:e1:5d:cb:16:5f:16:15:d5:34:24:1a:4b:8b:
                    e1:5e:24:7d:f8:0a:df:e0:90:03:42:09:73:de:a1:
                    a2:97:6c:dc:95:49:36:42:25:33:9e:c3:9b:cf:41:
                    3f:d3:17:66:c8:99:d4:db:2b:b9:84:47:a1:f0:88:
                    eb:a1
                Exponent: 65537 (0x10001)
        X509v3 extensions:
            X509v3 Basic Constraints: 
                CA:FALSE
            X509v3 Subject Key Identifier: 
                49:EB:E0:47:02:4C:A2:A7:40:3B:9A:26:34:95:2B:D1:85:C4:EB:A0
            X509v3 Authority Key Identifier: 
                keyid:F2:C3:30:D9:88:A3:68:F9:95:E7:E9:15:F0:58:30:16:6A:85:FF:55
                DirName:/CN=team9-net
                serial:2B:39:E2:DC:6E:84:F8:99:DE:73:9A:C6:FF:C5:43:20:92:77:F8:43
            X509v3 Extended Key Usage: 
                TLS Web Client Authentication
            X509v3 Key Usage: 
                Digital Signature
    Signature Algorithm: sha256WithRSAEncryption
    Signature Value:
        9f:0b:02:fa:3b:4e:02:c9:13:47:87:18:b1:0d:20:93:16:65:
        d9:3b:51:d9:19:35:22:58:ea:9e:b8:e2:d0:e2:26:75:c1:6d:
        5f:fc:ff:42:6b:d7:13:4d:2f:18:b4:c0:98:ab:75:64:b8:ea:
        25:3b:54:36:0b:42:7f:a1:4c:36:ba:83:e1:76:74:d7:ba:30:
        96:b6:cd:48:f8:ec:c0:36:92:7d:ff:f2:35:fc:5e:b2:39:d5:
        b6:0e:95:41:14:a5:b4:0a:13:9b:3f:2e:18:98:6f:c1:a3:9a:
        1f:b4:38:db:7f:7d:15:33:25:a5:8b:d3:03:ee:f6:81:46:3b:
        68:26:71:c3:03:c4:98:3c:59:5e:28:6a:b9:b9:00:f5:8d:df:
        14:1b:b5:60:be:2c:91:81:8c:b7:33:33:bf:48:3a:1d:14:7c:
        47:c9:8f:69:30:d6:b7:7c:8f:45:bf:8c:46:62:32:28:7c:e1:
        1a:18:51:9b:3f:63:8f:53:6c:18:30:af:4e:b8:27:a2:04:8b:
        31:b8:50:04:a1:09:ab:4a:f6:f5:d0:05:28:80:da:e8:6a:a3:
        a9:b5:8b:80:45:1d:a0:d1:f1:0d:4c:33:45:10:b5:66:38:cc:
        e1:f5:85:38:3c:85:eb:0d:c9:78:5a:d8:0e:e0:75:e8:e0:8d:
        97:45:22:98
-----BEGIN CERTIFICATE-----
MIIDVzCCAj+gAwIBAgIRAKzgamLND9Xfoks34lu69XEwDQYJKoZIhvcNAQELBQAw
FDESMBAGA1UEAwwJdGVhbTktbmV0MB4XDTIzMDQyMDIyNTMzNVoXDTI2MDQwNDIy
NTMzNVowFzEVMBMGA1UEAwwMdGVhbTktY2xpZW50MIIBIjANBgkqhkiG9w0BAQEF
AAOCAQ8AMIIBCgKCAQEA1Eqp2OBYkAPjDmH/j+e+AnZedBqP/Qnr/lhkTOZre193
VSiZayCbt1X9lL6Bfo6ze3D9eeoZn3urcon/oV9Afw9r8dm2/ZaxslpZqqpobnnn
rCGN0hrE3gmIUwMtdwhw1Vc67MTl16O3kpK94ZVFb0OdLWRKuxIgVgJK5GWt7Es/
sybCIdsQ6aafPL2Uy3Wx82Y2ebh08jhm7ZWnldjPa4kk5LhMbtegq30DuDycGcqx
Lm0ce+HclR9m0r3Vkp/SF9PZpeFdyxZfFhXVNCQaS4vhXiR9+Arf4JADQglz3qGi
l2zclUk2QiUznsObz0E/0xdmyJnU2yu5hEeh8IjroQIDAQABo4GgMIGdMAkGA1Ud
EwQCMAAwHQYDVR0OBBYEFEnr4EcCTKKnQDuaJjSVK9GFxOugME8GA1UdIwRIMEaA
FPLDMNmIo2j5lefpFfBYMBZqhf9VoRikFjAUMRIwEAYDVQQDDAl0ZWFtOS1uZXSC
FCs54txuhPiZ3nOaxv/FQyCSd/hDMBMGA1UdJQQMMAoGCCsGAQUFBwMCMAsGA1Ud
DwQEAwIHgDANBgkqhkiG9w0BAQsFAAOCAQEAnwsC+jtOAskTR4cYsQ0gkxZl2TtR
2Rk1Iljqnrji0OImdcFtX/z/QmvXE00vGLTAmKt1ZLjqJTtUNgtCf6FMNrqD4XZ0
17owlrbNSPjswDaSff/yNfxesjnVtg6VQRSltAoTmz8uGJhvwaOaH7Q42399FTMl
pYvTA+72gUY7aCZxwwPEmDxZXihqubkA9Y3fFBu1YL4skYGMtzMzv0g6HRR8R8mP
aTDWt3yPRb+MRmIyKHzhGhhRmz9jj1NsGDCvTrgnogSLMbhQBKEJq0r29dAFKIDa
6GqjqbWLgEUdoNHxDUwzRRC1ZjjM4fWFODyF6w3JeFrYDuB16OCNl0UimA==
-----END CERTIFICATE-----
