Certificate:
    Data:
        Version: 3 (0x2)
        Serial Number:
            e3:b3:d1:31:80:39:4b:3c:19:77:28:db:50:52:87:73
        Signature Algorithm: sha256WithRSAEncryption
        Issuer: CN=team9-net
        Validity
            Not Before: Apr 20 22:53:35 2023 GMT
            Not After : Apr  4 22:53:35 2026 GMT
        Subject: CN=team9-server
        Subject Public Key Info:
            Public Key Algorithm: rsaEncryption
                Public-Key: (2048 bit)
                Modulus:
                    00:b5:57:84:aa:fc:35:55:e4:2b:0a:c8:e5:5f:f7:
                    dc:ff:0c:a5:f3:97:f7:f7:f2:fc:50:56:e0:71:44:
                    0e:ea:72:56:9e:f0:07:3e:c3:b9:f5:98:d5:da:27:
                    8d:15:43:be:52:71:e0:04:bf:c2:2e:90:0d:63:ed:
                    4c:81:82:aa:ca:ad:d7:f5:64:60:15:e7:26:a7:3c:
                    4f:97:97:15:49:ff:db:f4:8b:8a:9a:fd:63:fa:6f:
                    22:57:8d:d0:b7:f7:ae:be:ab:47:15:23:15:73:aa:
                    0a:3e:85:fe:5c:a4:f2:ab:fa:3d:aa:ac:01:40:f1:
                    b3:33:02:27:8c:41:62:9b:46:2b:8b:79:92:db:fb:
                    62:82:3f:7e:aa:6c:30:8c:9f:06:77:6b:92:ea:78:
                    6e:1c:9c:b4:ec:2e:b5:a0:a3:6f:d2:58:a8:6f:cc:
                    f8:38:e6:02:05:43:da:33:1d:82:c4:ef:d3:75:fa:
                    37:48:65:00:cb:19:4d:8e:aa:26:5e:7c:0a:9e:91:
                    83:54:98:3b:63:98:6d:54:b6:d9:03:4a:4e:c0:71:
                    3a:fd:70:01:ac:dd:44:81:e5:fe:76:cf:8e:ce:b4:
                    5f:36:28:5f:24:dd:af:08:ad:62:9d:2f:9b:da:52:
                    e5:84:78:9b:a0:23:36:12:7a:9f:9b:d2:dc:03:4f:
                    41:33
                Exponent: 65537 (0x10001)
        X509v3 extensions:
            X509v3 Basic Constraints: 
                CA:FALSE
            X509v3 Subject Key Identifier: 
                21:08:43:52:1C:8A:CA:57:CF:B4:B7:14:8D:BF:6B:0E:4A:B0:A1:4F
            X509v3 Authority Key Identifier: 
                keyid:F2:C3:30:D9:88:A3:68:F9:95:E7:E9:15:F0:58:30:16:6A:85:FF:55
                DirName:/CN=team9-net
                serial:2B:39:E2:DC:6E:84:F8:99:DE:73:9A:C6:FF:C5:43:20:92:77:F8:43
            X509v3 Extended Key Usage: 
                TLS Web Server Authentication
            X509v3 Key Usage: 
                Digital Signature, Key Encipherment
            X509v3 Subject Alternative Name: 
                DNS:team9-server
    Signature Algorithm: sha256WithRSAEncryption
    Signature Value:
        39:45:3b:ab:5e:39:c1:98:2a:3a:2a:20:9d:af:5c:6f:cb:1e:
        29:8f:67:11:42:7b:24:4f:2d:68:b3:dd:31:4b:79:40:46:61:
        6e:53:29:58:1a:f6:b8:f9:eb:3a:07:ac:72:1d:f2:12:dd:34:
        ef:e5:c2:fd:d5:17:de:40:12:9a:dc:11:ea:84:65:ce:2d:f5:
        db:c9:12:a3:a9:8d:be:85:11:7d:06:11:5f:3d:4d:af:d7:21:
        78:a0:25:2f:8c:cd:29:ab:61:8f:c5:f4:94:c7:72:a5:f7:17:
        bf:06:a6:f1:77:79:df:01:f3:1f:36:f8:d5:22:01:8e:81:9a:
        5e:3a:3f:7a:25:ca:7e:03:c9:bb:f9:7e:1f:4b:55:48:4c:d1:
        15:0a:de:c6:54:2a:be:8c:01:a0:d7:20:65:15:8e:2b:54:45:
        f8:00:7a:c3:95:7a:9f:30:42:d1:3b:d5:d1:e6:c9:eb:d9:47:
        bf:37:ed:ef:16:14:61:c5:6c:c7:d3:de:e0:b5:c7:87:10:38:
        bf:05:9b:1d:de:e4:fd:12:28:a5:0c:db:5a:6b:7d:68:01:f2:
        14:df:50:5d:2e:32:07:c9:e4:1a:c0:f7:8e:a9:65:ed:95:5c:
        4a:a1:fa:5c:e8:bb:1b:89:2b:38:96:12:5b:6c:23:64:dc:2a:
        1c:d2:d1:6a
-----BEGIN CERTIFICATE-----
MIIDcDCCAligAwIBAgIRAOOz0TGAOUs8GXco21BSh3MwDQYJKoZIhvcNAQELBQAw
FDESMBAGA1UEAwwJdGVhbTktbmV0MB4XDTIzMDQyMDIyNTMzNVoXDTI2MDQwNDIy
NTMzNVowFzEVMBMGA1UEAwwMdGVhbTktc2VydmVyMIIBIjANBgkqhkiG9w0BAQEF
AAOCAQ8AMIIBCgKCAQEAtVeEqvw1VeQrCsjlX/fc/wyl85f39/L8UFbgcUQO6nJW
nvAHPsO59ZjV2ieNFUO+UnHgBL/CLpANY+1MgYKqyq3X9WRgFecmpzxPl5cVSf/b
9IuKmv1j+m8iV43Qt/euvqtHFSMVc6oKPoX+XKTyq/o9qqwBQPGzMwInjEFim0Yr
i3mS2/tigj9+qmwwjJ8Gd2uS6nhuHJy07C61oKNv0liob8z4OOYCBUPaMx2CxO/T
dfo3SGUAyxlNjqomXnwKnpGDVJg7Y5htVLbZA0pOwHE6/XABrN1EgeX+ds+OzrRf
NihfJN2vCK1inS+b2lLlhHiboCM2Enqfm9LcA09BMwIDAQABo4G5MIG2MAkGA1Ud
EwQCMAAwHQYDVR0OBBYEFCEIQ1IcispXz7S3FI2/aw5KsKFPME8GA1UdIwRIMEaA
FPLDMNmIo2j5lefpFfBYMBZqhf9VoRikFjAUMRIwEAYDVQQDDAl0ZWFtOS1uZXSC
FCs54txuhPiZ3nOaxv/FQyCSd/hDMBMGA1UdJQQMMAoGCCsGAQUFBwMBMAsGA1Ud
DwQEAwIFoDAXBgNVHREEEDAOggx0ZWFtOS1zZXJ2ZXIwDQYJKoZIhvcNAQELBQAD
ggEBADlFO6teOcGYKjoqIJ2vXG/LHimPZxFCeyRPLWiz3TFLeUBGYW5TKVga9rj5
6zoHrHId8hLdNO/lwv3VF95AEprcEeqEZc4t9dvJEqOpjb6FEX0GEV89Ta/XIXig
JS+MzSmrYY/F9JTHcqX3F78GpvF3ed8B8x82+NUiAY6Bml46P3olyn4Dybv5fh9L
VUhM0RUK3sZUKr6MAaDXIGUVjitURfgAesOVep8wQtE71dHmyevZR7837e8WFGHF
bMfT3uC1x4cQOL8Fmx3e5P0SKKUM21prfWgB8hTfUF0uMgfJ5BrA946pZe2VXEqh
+lzouxuJKziWEltsI2TcKhzS0Wo=
-----END CERTIFICATE-----
