Certificate:
    Data:
        Version: 3 (0x2)
        Serial Number:
            4a:a7:b1:84:b9:91:f2:76:62:16:bf:4e:59:34:12:7c
        Signature Algorithm: sha256WithRSAEncryption
        Issuer: CN=team13-net
        Validity
            Not Before: Apr 20 00:10:12 2023 GMT
            Not After : Apr  4 00:10:12 2026 GMT
        Subject: CN=team13-client
        Subject Public Key Info:
            Public Key Algorithm: rsaEncryption
                Public-Key: (2048 bit)
                Modulus:
                    00:c1:92:76:4b:77:b8:39:8e:92:9f:6a:29:0e:78:
                    0a:b6:40:21:56:f6:15:69:3a:10:aa:23:3e:56:4e:
                    b8:62:0e:ef:95:ad:68:b2:cf:bc:06:7b:fc:35:ed:
                    02:8c:95:a6:72:b1:c5:73:cd:6b:de:a6:c5:a7:d5:
                    74:0e:92:d0:ae:d6:d5:a5:8a:9d:ae:14:be:e3:cc:
                    da:be:f2:6b:72:67:4a:97:33:ec:99:89:17:e6:55:
                    97:2b:75:f6:74:69:82:12:9f:8d:b9:74:4d:47:96:
                    42:bb:b8:2f:52:68:ac:3e:15:58:8a:c0:79:05:4e:
                    9c:bd:87:cc:49:e3:40:04:09:f8:0b:72:b6:d9:c5:
                    23:52:1e:ee:89:02:63:7c:57:41:42:ce:e5:69:ca:
                    74:d5:33:e6:91:a6:08:1f:0b:44:05:35:de:95:d5:
                    48:4b:49:19:86:c1:ca:c6:d5:f6:2d:72:55:e1:ca:
                    f7:72:a4:9a:87:78:8b:62:2c:cc:8e:0d:d9:53:fb:
                    8f:1c:8b:b3:0c:da:89:c0:22:25:b1:38:1b:5c:e7:
                    32:1f:ce:8c:fa:2c:2f:2c:5c:f4:c6:21:7e:68:ba:
                    fa:fe:3f:75:a2:50:6b:16:b8:e6:28:6a:bb:38:9b:
                    0b:0e:23:b7:2c:85:30:fe:a5:90:52:1f:9e:e4:9f:
                    f9:09
                Exponent: 65537 (0x10001)
        X509v3 extensions:
            X509v3 Basic Constraints: 
                CA:FALSE
            X509v3 Subject Key Identifier: 
                7A:D6:5F:8D:9A:89:0A:A3:5B:73:FF:66:0E:B4:48:87:19:54:97:F5
            X509v3 Authority Key Identifier: 
                keyid:06:4D:D5:65:85:0E:A6:52:12:59:F2:16:F1:33:C6:B0:8B:F6:2B:04
                DirName:/CN=team13-net
                serial:74:44:3B:5E:A9:5F:AB:ED:7C:56:F5:0D:3C:67:22:AD:52:DD:52:78
            X509v3 Extended Key Usage: 
                TLS Web Client Authentication
            X509v3 Key Usage: 
                Digital Signature
    Signature Algorithm: sha256WithRSAEncryption
    Signature Value:
        62:1a:bc:d0:47:d1:72:05:b4:5f:53:4d:51:ed:92:20:d9:69:
        d0:e1:bb:5f:3f:4e:bd:47:2a:64:d7:1c:b4:e1:30:cd:9e:4c:
        77:af:46:34:4c:9c:4c:d2:4e:8d:f4:68:92:da:05:e9:d8:b5:
        6e:61:c5:55:1e:3e:d0:a4:df:c5:ba:1b:c7:c4:8b:a8:7b:5a:
        af:39:7c:a7:c9:1e:93:98:27:a7:16:c8:5b:62:72:c7:cd:57:
        8f:e1:aa:78:fe:03:4d:58:87:95:11:70:49:4c:fe:4f:be:f5:
        11:2b:89:84:f9:1e:39:a9:fe:13:b4:d8:ba:da:ec:b4:34:ce:
        a0:1b:da:b7:78:28:e7:f0:99:87:e3:9d:1b:f8:db:c0:da:c5:
        a2:b0:4d:ad:c7:ca:1b:4a:ae:00:27:63:72:92:d6:bb:1b:5e:
        55:67:18:f3:4e:61:18:a0:04:64:eb:98:8f:8a:04:77:f1:2c:
        d1:48:a9:e7:8c:31:22:f2:8a:7c:54:3b:e3:55:00:3b:80:a4:
        f7:00:c2:ba:4e:a7:48:f6:44:70:69:ef:d6:0c:05:f9:48:0d:
        65:6a:fa:0a:99:5b:f4:23:82:27:ca:24:2f:dc:4b:84:9e:ad:
        42:11:a0:13:d4:74:9a:49:08:7b:d9:a1:75:23:f4:3d:34:c3:
        06:71:f5:c6
-----BEGIN CERTIFICATE-----
MIIDWTCCAkGgAwIBAgIQSqexhLmR8nZiFr9OWTQSfDANBgkqhkiG9w0BAQsFADAV
MRMwEQYDVQQDDAp0ZWFtMTMtbmV0MB4XDTIzMDQyMDAwMTAxMloXDTI2MDQwNDAw
MTAxMlowGDEWMBQGA1UEAwwNdGVhbTEzLWNsaWVudDCCASIwDQYJKoZIhvcNAQEB
BQADggEPADCCAQoCggEBAMGSdkt3uDmOkp9qKQ54CrZAIVb2FWk6EKojPlZOuGIO
75WtaLLPvAZ7/DXtAoyVpnKxxXPNa96mxafVdA6S0K7W1aWKna4UvuPM2r7ya3Jn
Spcz7JmJF+ZVlyt19nRpghKfjbl0TUeWQru4L1JorD4VWIrAeQVOnL2HzEnjQAQJ
+AtyttnFI1Ie7okCY3xXQULO5WnKdNUz5pGmCB8LRAU13pXVSEtJGYbBysbV9i1y
VeHK93Kkmod4i2IszI4N2VP7jxyLswzaicAiJbE4G1znMh/OjPosLyxc9MYhfmi6
+v4/daJQaxa45ihquzibCw4jtyyFMP6lkFIfnuSf+QkCAwEAAaOBoTCBnjAJBgNV
HRMEAjAAMB0GA1UdDgQWBBR61l+NmokKo1tz/2YOtEiHGVSX9TBQBgNVHSMESTBH
gBQGTdVlhQ6mUhJZ8hbxM8awi/YrBKEZpBcwFTETMBEGA1UEAwwKdGVhbTEzLW5l
dIIUdEQ7Xqlfq+18VvUNPGcirVLdUngwEwYDVR0lBAwwCgYIKwYBBQUHAwIwCwYD
VR0PBAQDAgeAMA0GCSqGSIb3DQEBCwUAA4IBAQBiGrzQR9FyBbRfU01R7ZIg2WnQ
4btfP069Rypk1xy04TDNnkx3r0Y0TJxM0k6N9GiS2gXp2LVuYcVVHj7QpN/FuhvH
xIuoe1qvOXynyR6TmCenFshbYnLHzVeP4ap4/gNNWIeVEXBJTP5PvvURK4mE+R45
qf4TtNi62uy0NM6gG9q3eCjn8JmH450b+NvA2sWisE2tx8obSq4AJ2Nykta7G15V
ZxjzTmEYoARk65iPigR38SzRSKnnjDEi8op8VDvjVQA7gKT3AMK6TqdI9kRwae/W
DAX5SA1lavoKmVv0I4InyiQv3EuEnq1CEaAT1HSaSQh72aF1I/Q9NMMGcfXG
-----END CERTIFICATE-----
