Certificate:
    Data:
        Version: 3 (0x2)
        Serial Number:
            38:e0:e6:87:93:0d:c4:4c:fd:1e:c7:66:e3:0a:d1:c8
        Signature Algorithm: sha256WithRSAEncryption
        Issuer: CN=team11-net
        Validity
            Not Before: Apr 20 00:10:09 2023 GMT
            Not After : Apr  4 00:10:09 2026 GMT
        Subject: CN=team11-server
        Subject Public Key Info:
            Public Key Algorithm: rsaEncryption
                Public-Key: (2048 bit)
                Modulus:
                    00:94:37:3a:a4:b5:50:93:e1:ff:96:c0:ca:59:f7:
                    4a:50:80:31:89:e4:9d:a2:4a:f1:af:ec:24:71:83:
                    b2:a6:01:78:7e:ab:30:98:92:35:1d:09:3a:90:09:
                    f5:3c:7d:59:b4:5d:0d:5f:2d:17:cd:8b:82:4e:b2:
                    d3:15:1c:d2:ca:ec:47:d5:c2:6e:d5:16:a4:2e:73:
                    9a:6a:c8:c5:91:77:da:c4:1d:b1:c8:73:d9:6f:3e:
                    00:5f:96:9a:79:ce:9c:33:9e:b7:5e:ef:7e:ae:3a:
                    5e:22:32:f8:ae:a4:b8:9f:25:77:f6:b0:be:ef:30:
                    bd:e0:bd:9a:32:e1:4c:50:65:0d:a2:16:ce:c4:7c:
                    93:8d:bc:51:ed:21:78:bb:f9:73:5c:65:3b:78:82:
                    b4:ac:f9:6d:1e:df:4d:96:77:8d:b2:93:a6:78:f0:
                    0e:b1:59:ef:42:8b:65:12:62:a5:95:e5:10:6b:b6:
                    ec:27:7c:d5:24:80:6d:df:79:9c:1d:cd:7a:3e:ed:
                    19:38:25:80:c5:eb:d4:f7:2d:6e:b3:a8:78:a8:89:
                    bf:40:b5:97:c1:2f:ff:01:b9:84:ab:41:01:9e:94:
                    c3:08:ae:2d:8a:39:52:d0:6b:69:0a:30:22:42:d4:
                    7e:33:80:5d:54:4a:c3:aa:06:3b:9d:c4:45:58:a0:
                    cc:3f
                Exponent: 65537 (0x10001)
        X509v3 extensions:
            X509v3 Basic Constraints: 
                CA:FALSE
            X509v3 Subject Key Identifier: 
                36:9A:9A:C9:F7:5D:87:5B:73:EA:12:F3:14:C9:00:11:B0:FD:77:9C
            X509v3 Authority Key Identifier: 
                keyid:AB:6B:75:FB:26:28:34:9E:CC:B5:67:09:AF:1E:F4:E7:25:B5:CC:B3
                DirName:/CN=team11-net
                serial:09:1D:56:FF:16:37:FD:F1:D8:7E:9E:36:D4:44:6C:54:A4:AF:5B:45
            X509v3 Extended Key Usage: 
                TLS Web Server Authentication
            X509v3 Key Usage: 
                Digital Signature, Key Encipherment
            X509v3 Subject Alternative Name: 
                DNS:team11-server
    Signature Algorithm: sha256WithRSAEncryption
    Signature Value:
        1c:4a:75:5c:19:ab:f8:b3:8c:41:41:c4:6a:bf:98:1b:1f:f1:
        dd:ee:64:e7:d2:88:03:90:89:2c:da:98:76:26:15:68:66:17:
        20:a1:a5:f3:39:5e:8b:01:57:43:11:6a:1e:c2:f5:6a:9e:b6:
        59:77:0a:80:09:7a:b9:74:1b:a4:6d:a0:b2:36:3a:c1:b2:8d:
        44:16:4a:fb:c9:c9:ce:5b:74:fe:88:86:f9:23:8a:8c:b2:bb:
        08:6c:0c:d8:8c:6a:c0:4e:32:f2:9f:6d:0e:60:da:38:f4:66:
        bc:7a:5c:37:03:c1:b9:f7:9d:99:90:8f:1c:09:36:cc:01:bd:
        a6:8b:24:08:97:28:9f:04:82:cb:5b:de:13:24:f9:03:bd:99:
        af:7c:26:af:e4:17:51:fe:58:33:61:65:a3:8e:86:59:0c:a3:
        1d:4c:70:ee:98:4a:f0:69:54:58:be:46:e1:3d:2f:b9:77:39:
        34:7a:f2:bd:08:78:e9:3e:7a:c2:28:bb:da:ca:d4:e3:9f:f7:
        00:b4:5d:38:d2:d0:b9:13:e9:42:e0:0b:34:ab:09:76:01:6d:
        7c:74:67:03:c3:09:0e:31:d2:43:ca:c1:d3:23:4f:61:85:78:
        6b:a3:da:f4:50:7c:e2:39:58:b3:b2:7f:73:0d:a6:7d:32:53:
        e8:0a:91:78
-----BEGIN CERTIFICATE-----
MIIDczCCAlugAwIBAgIQOODmh5MNxEz9Hsdm4wrRyDANBgkqhkiG9w0BAQsFADAV
MRMwEQYDVQQDDAp0ZWFtMTEtbmV0MB4XDTIzMDQyMDAwMTAwOVoXDTI2MDQwNDAw
MTAwOVowGDEWMBQGA1UEAwwNdGVhbTExLXNlcnZlcjCCASIwDQYJKoZIhvcNAQEB
BQADggEPADCCAQoCggEBAJQ3OqS1UJPh/5bAyln3SlCAMYnknaJK8a/sJHGDsqYB
eH6rMJiSNR0JOpAJ9Tx9WbRdDV8tF82Lgk6y0xUc0srsR9XCbtUWpC5zmmrIxZF3
2sQdschz2W8+AF+WmnnOnDOet17vfq46XiIy+K6kuJ8ld/awvu8wveC9mjLhTFBl
DaIWzsR8k428Ue0heLv5c1xlO3iCtKz5bR7fTZZ3jbKTpnjwDrFZ70KLZRJipZXl
EGu27Cd81SSAbd95nB3Nej7tGTglgMXr1PctbrOoeKiJv0C1l8Ev/wG5hKtBAZ6U
wwiuLYo5UtBraQowIkLUfjOAXVRKw6oGO53ERVigzD8CAwEAAaOBuzCBuDAJBgNV
HRMEAjAAMB0GA1UdDgQWBBQ2mprJ912HW3PqEvMUyQARsP13nDBQBgNVHSMESTBH
gBSra3X7Jig0nsy1ZwmvHvTnJbXMs6EZpBcwFTETMBEGA1UEAwwKdGVhbTExLW5l
dIIUCR1W/xY3/fHYfp421ERsVKSvW0UwEwYDVR0lBAwwCgYIKwYBBQUHAwEwCwYD
VR0PBAQDAgWgMBgGA1UdEQQRMA+CDXRlYW0xMS1zZXJ2ZXIwDQYJKoZIhvcNAQEL
BQADggEBABxKdVwZq/izjEFBxGq/mBsf8d3uZOfSiAOQiSzamHYmFWhmFyChpfM5
XosBV0MRah7C9Wqetll3CoAJerl0G6RtoLI2OsGyjUQWSvvJyc5bdP6Ihvkjioyy
uwhsDNiMasBOMvKfbQ5g2jj0Zrx6XDcDwbn3nZmQjxwJNswBvaaLJAiXKJ8Egstb
3hMk+QO9ma98Jq/kF1H+WDNhZaOOhlkMox1McO6YSvBpVFi+RuE9L7l3OTR68r0I
eOk+esIou9rK1OOf9wC0XTjS0LkT6ULgCzSrCXYBbXx0ZwPDCQ4x0kPKwdMjT2GF
eGuj2vRQfOI5WLOyf3MNpn0yU+gKkXg=
-----END CERTIFICATE-----
