Certificate:
    Data:
        Version: 3 (0x2)
        Serial Number:
            21:98:d4:77:29:c1:7a:5f:f6:97:80:a2:c9:46:d4:f7
        Signature Algorithm: sha256WithRSAEncryption
        Issuer: CN=team34-net
        Validity
            Not Before: Apr 20 22:54:18 2023 GMT
            Not After : Apr  4 22:54:18 2026 GMT
        Subject: CN=team34-server
        Subject Public Key Info:
            Public Key Algorithm: rsaEncryption
                Public-Key: (2048 bit)
                Modulus:
                    00:8f:50:03:4c:d1:16:b9:fc:97:6b:60:da:b8:0c:
                    86:a8:ab:86:64:40:0b:be:a8:01:3f:e5:be:84:e3:
                    7d:b5:41:1c:47:be:54:99:23:0c:c2:0a:fd:19:2b:
                    bd:c8:93:e0:99:bd:5e:16:13:08:af:9d:8b:39:cc:
                    bc:46:fc:b5:8d:db:f0:b7:da:19:31:e6:71:40:c2:
                    a9:3d:09:87:8c:7d:ab:bb:b2:2b:50:40:6b:0e:16:
                    e8:5d:69:bd:0b:aa:29:96:ff:7e:71:43:43:03:9b:
                    23:a8:21:b9:1d:5c:29:6b:25:ad:d3:f7:3d:10:93:
                    2d:54:c6:67:c2:ad:d0:9b:3a:16:51:56:66:c1:4d:
                    2d:0c:61:ce:d4:7f:2b:7e:3f:b0:33:c4:69:7d:d7:
                    2e:1f:1a:4c:27:95:7b:38:98:d9:90:10:19:22:f9:
                    55:9a:22:cd:62:24:8b:be:e8:c9:47:b7:2d:21:2c:
                    bd:24:b1:59:49:11:aa:ca:30:73:e8:24:53:1c:91:
                    27:72:57:90:64:a6:40:f1:ac:2d:89:6f:0e:4c:b1:
                    1d:f5:fa:13:40:91:57:ff:9a:48:78:5a:ee:2b:89:
                    3e:5f:95:0e:99:e9:37:4f:88:83:6d:2f:cf:7f:e1:
                    91:d3:28:20:8a:86:30:50:e1:6a:26:0a:7c:54:be:
                    85:53
                Exponent: 65537 (0x10001)
        X509v3 extensions:
            X509v3 Basic Constraints: 
                CA:FALSE
            X509v3 Subject Key Identifier: 
                82:B3:B7:60:C2:C5:EE:D9:68:D1:65:54:60:AF:7D:9C:A8:20:87:F5
            X509v3 Authority Key Identifier: 
                keyid:B4:8B:51:2D:6D:66:FE:E4:78:6E:5F:F9:27:B4:D1:7A:7C:75:1C:F0
                DirName:/CN=team34-net
                serial:5A:B8:C0:E8:A0:57:C9:AA:5C:13:20:D4:9C:DB:B5:F8:60:53:C1:E5
            X509v3 Extended Key Usage: 
                TLS Web Server Authentication
            X509v3 Key Usage: 
                Digital Signature, Key Encipherment
            X509v3 Subject Alternative Name: 
                DNS:team34-server
    Signature Algorithm: sha256WithRSAEncryption
    Signature Value:
        a7:14:36:d5:c5:ba:65:64:95:26:dd:4b:a3:24:6d:b1:7a:ca:
        de:47:54:51:7b:3a:3a:e5:06:3c:72:1f:3c:62:99:1d:00:09:
        1c:b1:98:ba:2f:4a:99:79:b3:9d:f0:b4:8a:5c:82:4b:0b:14:
        cc:2e:95:b4:94:57:f6:b6:c6:4b:43:97:f7:96:c4:82:66:8d:
        0d:59:1d:7b:fc:d1:78:37:b0:74:50:70:25:eb:44:9a:3b:1b:
        84:b9:fa:8f:32:e2:7a:23:ac:99:81:9d:d9:c6:4e:4e:7b:1f:
        2c:41:01:36:7b:6b:9a:8d:13:d7:be:cd:83:fa:b1:5c:91:eb:
        bc:02:5b:19:0a:54:77:a3:82:e4:7d:da:98:51:28:bc:c2:9a:
        3b:ec:33:b3:d1:98:bd:34:ad:f9:d1:e9:29:3d:be:00:a6:ed:
        c5:20:4e:73:68:bf:6b:9e:7e:a4:6f:89:14:64:80:f4:66:9d:
        31:1c:11:7f:81:be:77:c4:5c:b0:8a:d5:8a:d5:6c:78:de:86:
        12:89:76:ac:85:86:40:fe:97:ad:87:9a:1b:3a:47:62:01:b8:
        1d:fa:3c:f3:a9:c4:f8:3c:b2:32:17:ef:9a:2a:58:c3:a2:ab:
        2d:9b:02:a8:b8:04:fd:ae:5e:c1:68:6a:f0:32:a2:2f:5a:a0:
        ae:ae:0d:9d
-----BEGIN CERTIFICATE-----
MIIDczCCAlugAwIBAgIQIZjUdynBel/2l4CiyUbU9zANBgkqhkiG9w0BAQsFADAV
MRMwEQYDVQQDDAp0ZWFtMzQtbmV0MB4XDTIzMDQyMDIyNTQxOFoXDTI2MDQwNDIy
NTQxOFowGDEWMBQGA1UEAwwNdGVhbTM0LXNlcnZlcjCCASIwDQYJKoZIhvcNAQEB
BQADggEPADCCAQoCggEBAI9QA0zRFrn8l2tg2rgMhqirhmRAC76oAT/lvoTjfbVB
HEe+VJkjDMIK/RkrvciT4Jm9XhYTCK+diznMvEb8tY3b8LfaGTHmcUDCqT0Jh4x9
q7uyK1BAaw4W6F1pvQuqKZb/fnFDQwObI6ghuR1cKWslrdP3PRCTLVTGZ8Kt0Js6
FlFWZsFNLQxhztR/K34/sDPEaX3XLh8aTCeVeziY2ZAQGSL5VZoizWIki77oyUe3
LSEsvSSxWUkRqsowc+gkUxyRJ3JXkGSmQPGsLYlvDkyxHfX6E0CRV/+aSHha7iuJ
Pl+VDpnpN0+Ig20vz3/hkdMoIIqGMFDhaiYKfFS+hVMCAwEAAaOBuzCBuDAJBgNV
HRMEAjAAMB0GA1UdDgQWBBSCs7dgwsXu2WjRZVRgr32cqCCH9TBQBgNVHSMESTBH
gBS0i1EtbWb+5HhuX/kntNF6fHUc8KEZpBcwFTETMBEGA1UEAwwKdGVhbTM0LW5l
dIIUWrjA6KBXyapcEyDUnNu1+GBTweUwEwYDVR0lBAwwCgYIKwYBBQUHAwEwCwYD
VR0PBAQDAgWgMBgGA1UdEQQRMA+CDXRlYW0zNC1zZXJ2ZXIwDQYJKoZIhvcNAQEL
BQADggEBAKcUNtXFumVklSbdS6MkbbF6yt5HVFF7OjrlBjxyHzximR0ACRyxmLov
Spl5s53wtIpcgksLFMwulbSUV/a2xktDl/eWxIJmjQ1ZHXv80Xg3sHRQcCXrRJo7
G4S5+o8y4nojrJmBndnGTk57HyxBATZ7a5qNE9e+zYP6sVyR67wCWxkKVHejguR9
2phRKLzCmjvsM7PRmL00rfnR6Sk9vgCm7cUgTnNov2uefqRviRRkgPRmnTEcEX+B
vnfEXLCK1YrVbHjehhKJdqyFhkD+l62Hmhs6R2IBuB36PPOpxPg8sjIX75oqWMOi
qy2bAqi4BP2uXsFoavAyoi9aoK6uDZ0=
-----END CERTIFICATE-----
