Certificate:
    Data:
        Version: 3 (0x2)
        Serial Number:
            2d:81:d3:17:db:a9:cb:cf:49:c3:da:38:db:75:15:85
        Signature Algorithm: sha256WithRSAEncryption
        Issuer: CN=team34-net
        Validity
            Not Before: Apr 20 22:54:17 2023 GMT
            Not After : Apr  4 22:54:17 2026 GMT
        Subject: CN=team34-client
        Subject Public Key Info:
            Public Key Algorithm: rsaEncryption
                Public-Key: (2048 bit)
                Modulus:
                    00:de:89:31:7a:cf:8d:7d:52:1f:f7:2b:05:ca:32:
                    fa:7a:be:e9:21:cb:37:ef:f9:9b:d6:c8:59:b9:57:
                    0c:e4:72:ce:85:19:fe:e5:18:d3:3e:36:46:47:ee:
                    66:48:04:ae:68:cc:22:a6:35:8f:91:e3:d5:ff:f9:
                    91:0b:28:63:a4:99:b3:cc:9e:a6:07:2b:4a:d8:c8:
                    55:56:c6:b4:7b:63:e4:ce:34:dc:96:74:eb:7f:bd:
                    a0:4e:99:03:9f:19:23:c8:19:18:0d:24:fa:4e:da:
                    bd:2b:8c:d0:cf:b1:7c:af:fe:ba:c8:32:4a:e4:ba:
                    53:f4:42:2a:0b:4d:26:5c:97:0c:5f:88:c9:d1:27:
                    65:b1:32:29:04:4a:f2:c6:38:ca:36:da:b4:f6:22:
                    27:3d:c8:10:0b:59:a7:79:26:d2:b7:a5:14:6a:ad:
                    11:4d:32:e1:f8:e4:f2:3f:73:4f:22:61:22:ed:8c:
                    26:00:cc:9b:98:19:2a:e1:69:7e:8d:dd:c4:a3:a2:
                    5e:46:8a:86:c6:2e:a5:65:4e:11:1b:99:f5:92:9c:
                    06:35:83:d7:1b:8f:4b:91:f3:f4:4c:c1:f5:43:01:
                    5b:7b:9d:e3:87:22:3d:ac:d0:89:0f:04:dc:9d:54:
                    81:b5:f0:bf:0d:04:2c:c1:c7:67:e8:0e:f6:c8:0c:
                    30:77
                Exponent: 65537 (0x10001)
        X509v3 extensions:
            X509v3 Basic Constraints: 
                CA:FALSE
            X509v3 Subject Key Identifier: 
                2B:9F:5E:27:DA:9D:28:DE:BB:CE:6F:50:04:6E:30:00:8F:EA:20:1E
            X509v3 Authority Key Identifier: 
                keyid:B4:8B:51:2D:6D:66:FE:E4:78:6E:5F:F9:27:B4:D1:7A:7C:75:1C:F0
                DirName:/CN=team34-net
                serial:5A:B8:C0:E8:A0:57:C9:AA:5C:13:20:D4:9C:DB:B5:F8:60:53:C1:E5
            X509v3 Extended Key Usage: 
                TLS Web Client Authentication
            X509v3 Key Usage: 
                Digital Signature
    Signature Algorithm: sha256WithRSAEncryption
    Signature Value:
        7e:af:f1:8a:0d:a6:db:53:46:db:d5:d6:c7:7f:ce:cd:22:31:
        95:59:e7:a2:06:2b:50:3c:e2:a4:0a:f8:9f:4c:71:80:15:09:
        f1:fe:a0:2f:d7:22:87:3b:9a:d6:6e:5a:36:ea:67:80:55:c4:
        7e:e4:b1:54:55:fd:32:ff:12:95:90:5c:ca:d0:e2:3d:91:56:
        71:8d:2d:d8:0f:bb:2e:22:24:ae:24:04:58:c5:b2:61:d1:7d:
        10:33:01:79:a2:3f:ed:d4:2a:2f:38:aa:1f:39:d5:0d:b3:9d:
        17:a3:03:32:42:a1:5f:d0:e7:ac:b2:2e:04:b4:29:04:7c:1f:
        57:f3:68:a2:73:ae:f6:4d:f5:77:d8:f4:16:72:47:d6:97:34:
        e2:b4:45:f4:83:9f:be:2c:10:ca:5c:76:c1:91:c1:10:a7:3c:
        d5:93:81:98:97:9e:c1:69:d3:02:8a:b9:ec:03:fc:4d:db:62:
        9e:ec:0f:53:b4:a7:cf:70:6a:c5:99:92:30:cc:3d:64:c1:a7:
        31:18:ad:a3:8f:51:9d:ac:06:45:7c:56:6f:13:3c:54:e1:a6:
        cc:b0:18:5e:19:ae:b7:58:04:79:b8:12:c0:f2:16:fb:91:2a:
        e4:31:67:02:7c:59:6c:25:42:b4:49:6c:6b:fc:a2:9d:f1:fa:
        d8:31:52:41
-----BEGIN CERTIFICATE-----
MIIDWTCCAkGgAwIBAgIQLYHTF9upy89Jw9o423UVhTANBgkqhkiG9w0BAQsFADAV
MRMwEQYDVQQDDAp0ZWFtMzQtbmV0MB4XDTIzMDQyMDIyNTQxN1oXDTI2MDQwNDIy
NTQxN1owGDEWMBQGA1UEAwwNdGVhbTM0LWNsaWVudDCCASIwDQYJKoZIhvcNAQEB
BQADggEPADCCAQoCggEBAN6JMXrPjX1SH/crBcoy+nq+6SHLN+/5m9bIWblXDORy
zoUZ/uUY0z42RkfuZkgErmjMIqY1j5Hj1f/5kQsoY6SZs8yepgcrStjIVVbGtHtj
5M403JZ063+9oE6ZA58ZI8gZGA0k+k7avSuM0M+xfK/+usgySuS6U/RCKgtNJlyX
DF+IydEnZbEyKQRK8sY4yjbatPYiJz3IEAtZp3km0relFGqtEU0y4fjk8j9zTyJh
Iu2MJgDMm5gZKuFpfo3dxKOiXkaKhsYupWVOERuZ9ZKcBjWD1xuPS5Hz9EzB9UMB
W3ud44ciPazQiQ8E3J1UgbXwvw0ELMHHZ+gO9sgMMHcCAwEAAaOBoTCBnjAJBgNV
HRMEAjAAMB0GA1UdDgQWBBQrn14n2p0o3rvOb1AEbjAAj+ogHjBQBgNVHSMESTBH
gBS0i1EtbWb+5HhuX/kntNF6fHUc8KEZpBcwFTETMBEGA1UEAwwKdGVhbTM0LW5l
dIIUWrjA6KBXyapcEyDUnNu1+GBTweUwEwYDVR0lBAwwCgYIKwYBBQUHAwIwCwYD
VR0PBAQDAgeAMA0GCSqGSIb3DQEBCwUAA4IBAQB+r/GKDabbU0bb1dbHf87NIjGV
WeeiBitQPOKkCvifTHGAFQnx/qAv1yKHO5rWblo26meAVcR+5LFUVf0y/xKVkFzK
0OI9kVZxjS3YD7suIiSuJARYxbJh0X0QMwF5oj/t1CovOKofOdUNs50XowMyQqFf
0Oessi4EtCkEfB9X82iic672TfV32PQWckfWlzTitEX0g5++LBDKXHbBkcEQpzzV
k4GYl57BadMCirnsA/xN22Ke7A9TtKfPcGrFmZIwzD1kwacxGK2jj1GdrAZFfFZv
EzxU4abMsBheGa63WAR5uBLA8hb7kSrkMWcCfFlsJUK0SWxr/KKd8frYMVJB
-----END CERTIFICATE-----
