Certificate:
    Data:
        Version: 3 (0x2)
        Serial Number:
            b2:f0:2f:7d:a7:a3:73:77:a5:1e:ed:e0:34:3e:e1:d3
        Signature Algorithm: sha256WithRSAEncryption
        Issuer: CN=team34-net
        Validity
            Not Before: Apr 20 00:10:44 2023 GMT
            Not After : Apr  4 00:10:44 2026 GMT
        Subject: CN=team34-client
        Subject Public Key Info:
            Public Key Algorithm: rsaEncryption
                Public-Key: (2048 bit)
                Modulus:
                    00:8e:11:e3:03:84:e9:c5:df:69:68:4f:89:19:5f:
                    71:44:38:88:64:7f:60:fc:ab:26:35:2e:c1:cd:33:
                    15:60:37:70:e5:75:c5:a6:ef:ac:86:0f:7c:9b:ce:
                    30:d1:00:9d:b1:df:a9:fc:92:c6:74:bb:7c:80:a9:
                    b8:aa:d8:1c:0b:a2:e2:fe:68:5a:21:ac:35:d8:61:
                    23:67:42:5c:ba:6d:94:91:76:a9:29:4e:57:23:86:
                    6f:52:92:e7:3f:bd:d2:b6:6c:20:31:f7:ef:36:cc:
                    2a:fe:6c:f7:23:dc:a2:b0:be:19:f7:0b:08:4a:ef:
                    b1:00:1b:f2:72:d5:91:f6:3a:2b:ef:ae:af:9e:5f:
                    1c:35:f2:d8:52:9d:fe:a1:31:a5:85:04:f0:22:e2:
                    39:cb:a1:ee:21:8b:28:0a:52:3d:2f:51:02:bb:35:
                    83:72:a6:5c:06:e8:8a:1f:ab:1e:c0:cd:7f:81:78:
                    91:c4:23:88:d6:cd:65:87:69:63:af:46:13:2c:79:
                    76:39:e5:eb:72:af:bb:9e:c8:45:3e:ca:04:7f:f6:
                    81:eb:50:93:cf:b8:39:4b:b9:ca:f1:9d:90:d2:6b:
                    35:e4:d4:85:52:de:c4:74:e8:64:17:65:a9:d9:54:
                    c4:00:b1:a3:42:07:79:e5:a2:c8:97:cd:46:62:2c:
                    f9:45
                Exponent: 65537 (0x10001)
        X509v3 extensions:
            X509v3 Basic Constraints: 
                CA:FALSE
            X509v3 Subject Key Identifier: 
                8F:10:AC:F5:AC:47:CE:2E:CF:4A:41:E6:7C:85:07:A7:0D:E6:18:44
            X509v3 Authority Key Identifier: 
                keyid:0F:46:5B:E6:B6:B3:13:96:21:8F:DE:12:1B:0E:52:7D:75:AB:83:A6
                DirName:/CN=team34-net
                serial:63:7F:B1:FD:57:20:AB:79:12:72:B6:6E:5C:3E:57:CE:5A:04:B1:08
            X509v3 Extended Key Usage: 
                TLS Web Client Authentication
            X509v3 Key Usage: 
                Digital Signature
    Signature Algorithm: sha256WithRSAEncryption
    Signature Value:
        6e:cb:be:5a:d5:e4:86:77:49:e5:b8:e0:4a:e8:e0:0c:50:b5:
        3e:5d:19:c5:fa:dc:5e:b2:38:94:c9:21:e4:1e:de:2d:ce:8f:
        33:32:3d:20:e4:f4:c4:6e:b9:15:25:fb:8f:55:18:9a:68:2b:
        97:da:66:05:ca:9d:94:4c:5d:8e:85:a8:6d:7a:bb:ed:63:67:
        f1:47:c3:9a:47:80:0b:da:b4:b0:d1:e0:a9:66:b0:2b:fc:a1:
        c6:e3:e1:59:c3:5f:29:b6:3f:b2:57:f5:b3:fe:34:fd:3b:24:
        a9:3c:bc:c4:a2:fe:88:60:d0:07:9c:18:79:2c:47:56:fc:68:
        86:70:49:80:c1:10:5a:b4:d4:f2:36:f7:1f:b2:7c:ff:10:a5:
        d9:f1:e7:36:c7:ab:77:81:dc:94:9a:85:7c:4f:ed:73:d3:b2:
        e6:87:70:94:48:68:2a:5b:01:78:7e:2b:c3:59:21:1f:12:0d:
        0d:8c:64:38:56:cb:98:76:29:36:a0:21:17:dc:d9:fd:59:ec:
        05:d6:0d:15:6c:44:60:fa:07:d1:1e:46:4b:cd:3a:2e:93:ca:
        c9:c6:12:30:ba:76:cf:e3:bf:25:65:1a:a0:aa:f7:6c:43:db:
        10:70:1d:3b:94:a0:39:55:b3:fd:e3:ff:19:eb:70:a3:44:fd:
        36:e1:03:b0
-----BEGIN CERTIFICATE-----
MIIDWjCCAkKgAwIBAgIRALLwL32no3N3pR7t4DQ+4dMwDQYJKoZIhvcNAQELBQAw
FTETMBEGA1UEAwwKdGVhbTM0LW5ldDAeFw0yMzA0MjAwMDEwNDRaFw0yNjA0MDQw
MDEwNDRaMBgxFjAUBgNVBAMMDXRlYW0zNC1jbGllbnQwggEiMA0GCSqGSIb3DQEB
AQUAA4IBDwAwggEKAoIBAQCOEeMDhOnF32loT4kZX3FEOIhkf2D8qyY1LsHNMxVg
N3DldcWm76yGD3ybzjDRAJ2x36n8ksZ0u3yAqbiq2BwLouL+aFohrDXYYSNnQly6
bZSRdqkpTlcjhm9Skuc/vdK2bCAx9+82zCr+bPcj3KKwvhn3CwhK77EAG/Jy1ZH2
Oivvrq+eXxw18thSnf6hMaWFBPAi4jnLoe4hiygKUj0vUQK7NYNyplwG6Iofqx7A
zX+BeJHEI4jWzWWHaWOvRhMseXY55etyr7ueyEU+ygR/9oHrUJPPuDlLucrxnZDS
azXk1IVS3sR06GQXZanZVMQAsaNCB3nlosiXzUZiLPlFAgMBAAGjgaEwgZ4wCQYD
VR0TBAIwADAdBgNVHQ4EFgQUjxCs9axHzi7PSkHmfIUHpw3mGEQwUAYDVR0jBEkw
R4AUD0Zb5razE5Yhj94SGw5SfXWrg6ahGaQXMBUxEzARBgNVBAMMCnRlYW0zNC1u
ZXSCFGN/sf1XIKt5EnK2blw+V85aBLEIMBMGA1UdJQQMMAoGCCsGAQUFBwMCMAsG
A1UdDwQEAwIHgDANBgkqhkiG9w0BAQsFAAOCAQEAbsu+WtXkhndJ5bjgSujgDFC1
Pl0ZxfrcXrI4lMkh5B7eLc6PMzI9IOT0xG65FSX7j1UYmmgrl9pmBcqdlExdjoWo
bXq77WNn8UfDmkeAC9q0sNHgqWawK/yhxuPhWcNfKbY/slf1s/40/TskqTy8xKL+
iGDQB5wYeSxHVvxohnBJgMEQWrTU8jb3H7J8/xCl2fHnNserd4HclJqFfE/tc9Oy
5odwlEhoKlsBeH4rw1khHxINDYxkOFbLmHYpNqAhF9zZ/VnsBdYNFWxEYPoH0R5G
S806LpPKycYSMLp2z+O/JWUaoKr3bEPbEHAdO5SgOVWz/eP/Getwo0T9NuEDsA==
-----END CERTIFICATE-----
