Certificate:
    Data:
        Version: 3 (0x2)
        Serial Number:
            45:a9:60:64:e5:74:66:54:40:c5:0b:cd:63:c5:fb:4f
        Signature Algorithm: sha256WithRSAEncryption
        Issuer: CN=team45-net
        Validity
            Not Before: Apr 20 00:10:59 2023 GMT
            Not After : Apr  4 00:10:59 2026 GMT
        Subject: CN=team45-client
        Subject Public Key Info:
            Public Key Algorithm: rsaEncryption
                Public-Key: (2048 bit)
                Modulus:
                    00:b0:f5:b5:29:ed:87:31:ca:75:a3:77:d1:d5:fc:
                    8c:38:7d:4d:7a:8c:a7:50:56:fb:fc:a9:9a:5a:25:
                    3e:bc:37:ed:37:b9:59:38:21:d3:83:97:ca:93:31:
                    44:85:20:55:f5:42:36:91:a5:08:1d:b2:5b:4b:d5:
                    c9:7c:67:08:25:51:8d:da:00:35:2d:ec:c6:fa:3f:
                    f5:9a:a7:cf:aa:34:23:c6:c4:04:e3:6e:f3:29:1d:
                    64:b2:6d:dc:fa:3e:23:32:da:52:aa:b1:59:30:37:
                    ce:be:9f:6d:db:d5:67:f9:12:92:58:71:64:31:f3:
                    54:c0:2e:21:be:26:18:81:ec:89:ef:6f:f9:26:e6:
                    f3:98:8f:d8:a3:64:01:01:54:a6:d1:aa:8e:1b:9f:
                    26:d7:b4:d7:8d:96:77:33:1c:07:97:84:b2:78:eb:
                    3a:21:b2:80:d7:30:2a:91:0d:92:e2:74:8e:aa:5c:
                    5c:fb:81:0a:7f:6d:b9:05:71:73:64:02:de:b2:49:
                    be:33:cf:02:06:c6:ca:db:cf:0e:ce:3e:38:2a:2a:
                    f2:19:b2:f8:60:40:ae:97:89:36:81:a3:a7:9b:17:
                    2e:a2:ac:d4:86:a7:03:be:68:b5:75:00:36:fd:cb:
                    0f:8b:56:78:9e:f2:61:1c:f7:5a:0a:63:75:8c:ef:
                    a3:c1
                Exponent: 65537 (0x10001)
        X509v3 extensions:
            X509v3 Basic Constraints: 
                CA:FALSE
            X509v3 Subject Key Identifier: 
                26:D7:5B:F3:CE:87:CA:E8:F3:9C:81:16:F9:41:FF:7B:53:5A:1A:4A
            X509v3 Authority Key Identifier: 
                keyid:BC:29:5C:9B:2D:D4:BD:1A:FA:8C:74:AF:08:52:DF:1E:8A:62:FE:5B
                DirName:/CN=team45-net
                serial:53:C8:67:6B:F4:B3:5B:5B:E6:A3:0F:BD:4B:43:5C:17:D9:F0:BC:4C
            X509v3 Extended Key Usage: 
                TLS Web Client Authentication
            X509v3 Key Usage: 
                Digital Signature
    Signature Algorithm: sha256WithRSAEncryption
    Signature Value:
        77:1f:25:e0:d1:70:90:89:4c:aa:ee:9c:bd:63:dc:10:04:4a:
        6e:42:82:65:67:87:23:ff:88:b6:14:56:07:a0:40:b5:33:51:
        7e:e8:99:97:95:e6:63:6b:e6:a8:e0:1c:b6:a5:5e:0e:af:76:
        f4:5d:d6:97:9e:bc:a6:51:2a:20:4f:c1:64:e5:9e:e5:ee:a9:
        b8:35:d3:c1:d6:84:09:07:09:9e:73:72:48:8f:37:12:28:e5:
        93:13:f1:07:cf:6f:1e:bc:25:4c:a7:21:36:21:bc:1e:3c:0a:
        00:af:77:cb:51:17:70:5c:c2:72:89:e3:3e:5e:dc:4f:63:1e:
        ab:47:31:49:95:8c:e9:c2:de:21:68:5d:45:2d:3c:06:44:11:
        19:b7:9e:30:f1:fd:24:b4:35:e2:ca:ae:2d:d1:1b:2c:f1:88:
        ca:37:48:6d:f4:f1:cd:26:54:32:74:00:0d:3d:e5:f7:a1:6f:
        3c:f8:a2:4e:b1:f5:5e:3f:d6:e2:23:2d:27:c6:d9:ec:bf:8a:
        e8:27:23:04:c7:5e:3a:28:ef:8f:17:78:ed:7e:65:b9:3e:8c:
        b3:3b:18:9e:0a:7f:e2:be:a9:fc:50:e3:66:ea:6d:49:7f:f5:
        53:09:a3:d1:4c:85:bd:7e:f1:07:20:a4:2e:59:34:f1:f7:30:
        42:f2:20:ee
-----BEGIN CERTIFICATE-----
MIIDWTCCAkGgAwIBAgIQRalgZOV0ZlRAxQvNY8X7TzANBgkqhkiG9w0BAQsFADAV
MRMwEQYDVQQDDAp0ZWFtNDUtbmV0MB4XDTIzMDQyMDAwMTA1OVoXDTI2MDQwNDAw
MTA1OVowGDEWMBQGA1UEAwwNdGVhbTQ1LWNsaWVudDCCASIwDQYJKoZIhvcNAQEB
BQADggEPADCCAQoCggEBALD1tSnthzHKdaN30dX8jDh9TXqMp1BW+/ypmlolPrw3
7Te5WTgh04OXypMxRIUgVfVCNpGlCB2yW0vVyXxnCCVRjdoANS3sxvo/9Zqnz6o0
I8bEBONu8ykdZLJt3Po+IzLaUqqxWTA3zr6fbdvVZ/kSklhxZDHzVMAuIb4mGIHs
ie9v+Sbm85iP2KNkAQFUptGqjhufJte0142WdzMcB5eEsnjrOiGygNcwKpENkuJ0
jqpcXPuBCn9tuQVxc2QC3rJJvjPPAgbGytvPDs4+OCoq8hmy+GBArpeJNoGjp5sX
LqKs1IanA75otXUANv3LD4tWeJ7yYRz3WgpjdYzvo8ECAwEAAaOBoTCBnjAJBgNV
HRMEAjAAMB0GA1UdDgQWBBQm11vzzofK6POcgRb5Qf97U1oaSjBQBgNVHSMESTBH
gBS8KVybLdS9GvqMdK8IUt8eimL+W6EZpBcwFTETMBEGA1UEAwwKdGVhbTQ1LW5l
dIIUU8hna/SzW1vmow+9S0NcF9nwvEwwEwYDVR0lBAwwCgYIKwYBBQUHAwIwCwYD
VR0PBAQDAgeAMA0GCSqGSIb3DQEBCwUAA4IBAQB3HyXg0XCQiUyq7py9Y9wQBEpu
QoJlZ4cj/4i2FFYHoEC1M1F+6JmXleZja+ao4By2pV4Or3b0XdaXnrymUSogT8Fk
5Z7l7qm4NdPB1oQJBwmec3JIjzcSKOWTE/EHz28evCVMpyE2IbwePAoAr3fLURdw
XMJyieM+XtxPYx6rRzFJlYzpwt4haF1FLTwGRBEZt54w8f0ktDXiyq4t0Rss8YjK
N0ht9PHNJlQydAANPeX3oW88+KJOsfVeP9biIy0nxtnsv4roJyMEx146KO+PF3jt
fmW5PoyzOxieCn/ivqn8UONm6m1Jf/VTCaPRTIW9fvEHIKQuWTTx9zBC8iDu
-----END CERTIFICATE-----
