Certificate:
    Data:
        Version: 3 (0x2)
        Serial Number:
            89:8c:0e:72:7d:be:99:25:a6:ba:4d:3f:95:11:26:b6
        Signature Algorithm: sha256WithRSAEncryption
        Issuer: CN=team45-net
        Validity
            Not Before: Apr 20 00:11:00 2023 GMT
            Not After : Apr  4 00:11:00 2026 GMT
        Subject: CN=team45-server
        Subject Public Key Info:
            Public Key Algorithm: rsaEncryption
                Public-Key: (2048 bit)
                Modulus:
                    00:d8:dd:ea:8a:19:b9:1e:37:55:0a:84:55:e1:ec:
                    a4:4f:d4:e3:7f:4b:cf:23:48:0c:2f:0d:df:9e:b4:
                    44:b1:02:bb:6f:f1:5f:64:78:35:fd:26:c3:c6:42:
                    ea:5a:8e:48:e8:80:d1:33:12:a9:4a:a8:e9:36:37:
                    da:d5:a5:da:7e:32:3f:68:ee:1a:39:0c:6a:c2:34:
                    b8:96:fa:67:53:ea:dd:76:55:27:27:e5:d1:96:b9:
                    5a:3c:2d:69:5d:b9:f1:24:7f:23:11:17:99:5e:b0:
                    b5:13:58:20:83:4c:86:93:7e:4f:ab:b5:fc:db:ca:
                    1c:c6:31:2f:55:7a:dd:3e:3e:3f:4c:17:2c:8f:17:
                    52:67:77:83:b7:ed:35:6f:ac:2f:05:70:84:8f:00:
                    31:4d:f1:e6:bd:c9:f8:4f:fe:49:38:cf:e1:ed:e4:
                    d9:3c:d8:6f:af:6c:1f:75:7e:a2:1c:b2:a1:06:4a:
                    65:32:ab:ac:e9:d7:ef:08:90:03:b2:de:01:c6:be:
                    f8:4a:a5:15:7a:93:f8:e4:f7:b6:8b:88:1f:2a:9f:
                    25:89:bf:98:ef:28:8b:5e:56:5f:0d:92:48:09:17:
                    c8:e2:2e:c6:f5:26:db:c5:fb:39:17:65:03:d0:35:
                    09:9e:9d:5c:49:f2:51:bf:e9:3d:cd:fe:c6:b4:69:
                    1e:0d
                Exponent: 65537 (0x10001)
        X509v3 extensions:
            X509v3 Basic Constraints: 
                CA:FALSE
            X509v3 Subject Key Identifier: 
                72:FF:FD:D4:37:9E:31:44:9E:5A:0A:89:D6:53:7D:7A:E1:A3:13:55
            X509v3 Authority Key Identifier: 
                keyid:BC:29:5C:9B:2D:D4:BD:1A:FA:8C:74:AF:08:52:DF:1E:8A:62:FE:5B
                DirName:/CN=team45-net
                serial:53:C8:67:6B:F4:B3:5B:5B:E6:A3:0F:BD:4B:43:5C:17:D9:F0:BC:4C
            X509v3 Extended Key Usage: 
                TLS Web Server Authentication
            X509v3 Key Usage: 
                Digital Signature, Key Encipherment
            X509v3 Subject Alternative Name: 
                DNS:team45-server
    Signature Algorithm: sha256WithRSAEncryption
    Signature Value:
        70:30:a5:62:fe:4d:4f:93:1f:85:61:4e:3e:a7:84:be:4d:57:
        bc:b8:fb:31:0a:06:8d:f8:90:a8:b9:5d:d8:bc:98:73:c1:64:
        9b:d7:de:a7:7b:49:cf:f5:b2:1a:fb:8e:94:51:f0:ee:49:5e:
        2f:11:19:b5:10:6b:2d:85:24:fc:61:87:a3:01:3f:ea:f1:4a:
        73:62:ae:36:59:e5:d5:a1:1c:4b:60:7b:14:86:98:e4:aa:5a:
        0c:d9:c0:b1:f7:91:bf:38:35:da:bb:4e:93:d2:fc:df:5e:74:
        3f:56:3f:91:85:b4:2e:da:f3:9b:36:8d:42:be:b9:e6:85:79:
        19:5a:6d:aa:81:61:d9:02:2e:be:db:f1:4b:03:38:c1:c0:22:
        0e:fd:da:8d:b4:f2:88:ac:ec:a2:5e:4f:de:ba:70:65:66:11:
        fc:2f:e3:0a:4d:08:c6:45:d0:f3:ec:99:d5:a8:77:f6:e4:7f:
        74:3e:bc:0d:27:63:3f:fe:10:07:89:51:d3:7f:cb:74:18:33:
        c3:db:f5:47:cd:32:73:36:9a:7e:24:02:57:0f:bb:4d:15:74:
        a6:da:0b:bd:35:79:dc:a2:7a:8b:82:c1:3c:41:96:bb:10:79:
        85:82:4e:2e:be:98:ef:fa:64:4c:de:da:6e:27:89:49:8e:fa:
        6f:bb:b8:67
-----BEGIN CERTIFICATE-----
MIIDdDCCAlygAwIBAgIRAImMDnJ9vpklprpNP5URJrYwDQYJKoZIhvcNAQELBQAw
FTETMBEGA1UEAwwKdGVhbTQ1LW5ldDAeFw0yMzA0MjAwMDExMDBaFw0yNjA0MDQw
MDExMDBaMBgxFjAUBgNVBAMMDXRlYW00NS1zZXJ2ZXIwggEiMA0GCSqGSIb3DQEB
AQUAA4IBDwAwggEKAoIBAQDY3eqKGbkeN1UKhFXh7KRP1ON/S88jSAwvDd+etESx
Artv8V9keDX9JsPGQupajkjogNEzEqlKqOk2N9rVpdp+Mj9o7ho5DGrCNLiW+mdT
6t12VScn5dGWuVo8LWldufEkfyMRF5lesLUTWCCDTIaTfk+rtfzbyhzGMS9Vet0+
Pj9MFyyPF1Jnd4O37TVvrC8FcISPADFN8ea9yfhP/kk4z+Ht5Nk82G+vbB91fqIc
sqEGSmUyq6zp1+8IkAOy3gHGvvhKpRV6k/jk97aLiB8qnyWJv5jvKIteVl8NkkgJ
F8jiLsb1JtvF+zkXZQPQNQmenVxJ8lG/6T3N/sa0aR4NAgMBAAGjgbswgbgwCQYD
VR0TBAIwADAdBgNVHQ4EFgQUcv/91DeeMUSeWgqJ1lN9euGjE1UwUAYDVR0jBEkw
R4AUvClcmy3UvRr6jHSvCFLfHopi/luhGaQXMBUxEzARBgNVBAMMCnRlYW00NS1u
ZXSCFFPIZ2v0s1tb5qMPvUtDXBfZ8LxMMBMGA1UdJQQMMAoGCCsGAQUFBwMBMAsG
A1UdDwQEAwIFoDAYBgNVHREEETAPgg10ZWFtNDUtc2VydmVyMA0GCSqGSIb3DQEB
CwUAA4IBAQBwMKVi/k1Pkx+FYU4+p4S+TVe8uPsxCgaN+JCouV3YvJhzwWSb196n
e0nP9bIa+46UUfDuSV4vERm1EGsthST8YYejAT/q8UpzYq42WeXVoRxLYHsUhpjk
qloM2cCx95G/ODXau06T0vzfXnQ/Vj+RhbQu2vObNo1CvrnmhXkZWm2qgWHZAi6+
2/FLAzjBwCIO/dqNtPKIrOyiXk/eunBlZhH8L+MKTQjGRdDz7JnVqHf25H90PrwN
J2M//hAHiVHTf8t0GDPD2/VHzTJzNpp+JAJXD7tNFXSm2gu9NXnconqLgsE8QZa7
EHmFgk4uvpjv+mRM3tpuJ4lJjvpvu7hn
-----END CERTIFICATE-----
