Certificate:
    Data:
        Version: 3 (0x2)
        Serial Number:
            05:a5:9d:bd:c2:60:d8:a2:63:2a:65:8d:09:b2:e9:be
        Signature Algorithm: sha256WithRSAEncryption
        Issuer: CN=team46-net
        Validity
            Not Before: Apr 20 00:11:01 2023 GMT
            Not After : Apr  4 00:11:01 2026 GMT
        Subject: CN=team46-server
        Subject Public Key Info:
            Public Key Algorithm: rsaEncryption
                Public-Key: (2048 bit)
                Modulus:
                    00:bf:00:70:b2:16:c9:39:15:d6:e6:ce:bc:8d:50:
                    21:01:77:b4:d3:f2:d4:bd:47:2d:83:7b:26:73:d0:
                    51:77:fa:e8:d2:f4:0b:02:ad:02:39:7c:24:f7:60:
                    92:a1:e6:1f:94:15:a0:5c:8f:0f:8f:63:75:46:b7:
                    89:b3:fc:9c:f3:56:12:86:10:01:e4:a8:a8:ca:22:
                    9d:87:d7:1e:b9:4d:8e:69:72:b9:70:8f:48:09:d0:
                    0e:ff:60:ee:22:82:1b:56:da:c6:34:ab:1b:fe:50:
                    b5:48:fb:4f:3b:0d:a5:d3:e9:60:e2:21:a9:26:62:
                    d7:e1:c5:2d:bf:18:c3:f3:ef:a6:09:f2:11:23:54:
                    c1:8d:f2:5a:b7:c2:bc:ab:fa:ba:85:76:7f:4f:89:
                    10:64:ea:c0:91:e0:ee:44:d6:89:57:c8:4a:9a:e0:
                    1a:ec:8c:59:03:40:f0:44:74:44:30:79:69:0e:d5:
                    4f:d0:f0:e4:f9:20:84:dc:f8:e8:05:13:90:c6:10:
                    0d:06:3d:0b:c4:8a:54:47:f2:f3:af:ca:10:b0:a2:
                    d4:be:90:df:5e:3d:c9:8a:ed:84:a0:ee:d2:db:63:
                    d1:d3:c5:93:71:e0:94:26:f2:8d:16:a1:fd:6d:d5:
                    f1:ac:66:73:32:b6:19:f0:c8:aa:1c:36:bc:ba:6f:
                    a3:99
                Exponent: 65537 (0x10001)
        X509v3 extensions:
            X509v3 Basic Constraints: 
                CA:FALSE
            X509v3 Subject Key Identifier: 
                82:CB:ED:22:36:85:96:4D:B0:D7:99:06:9A:DF:2E:53:3C:20:6C:48
            X509v3 Authority Key Identifier: 
                keyid:E6:01:DE:B8:DF:65:14:65:C1:66:BC:28:14:E3:6A:18:E5:23:BC:A1
                DirName:/CN=team46-net
                serial:75:39:9E:FE:96:0F:59:A3:7B:1F:06:12:3E:BF:8C:85:35:6D:98:80
            X509v3 Extended Key Usage: 
                TLS Web Server Authentication
            X509v3 Key Usage: 
                Digital Signature, Key Encipherment
            X509v3 Subject Alternative Name: 
                DNS:team46-server
    Signature Algorithm: sha256WithRSAEncryption
    Signature Value:
        77:f8:ac:ff:09:c0:ea:09:24:3a:7d:05:cc:5f:86:c3:27:9c:
        39:b8:dd:53:62:52:90:58:6f:0b:48:e5:77:c7:f9:64:87:e8:
        26:c9:d0:6b:66:fa:80:6f:45:5c:e1:d9:08:c6:12:1e:64:93:
        1e:c1:ec:6f:bb:b0:c1:b1:b4:3b:59:f2:8d:42:a6:60:85:65:
        1a:d5:8e:e1:cc:b1:b1:0e:ba:f1:04:49:f2:67:4f:af:fe:3c:
        69:8f:92:1e:60:5d:f4:83:2d:4a:b0:df:03:de:86:38:6c:cc:
        49:bb:a5:05:44:8d:08:04:94:b5:1a:ee:a1:64:84:bc:62:ca:
        85:16:a9:bc:89:82:7f:c2:c1:23:56:d1:97:1c:f9:e4:0f:76:
        bd:df:d6:c6:6a:3f:f0:4b:ef:0b:48:e8:be:8f:48:f9:04:35:
        1d:3d:69:93:c5:b2:62:85:1d:f7:19:34:df:6f:5f:dd:a3:88:
        c2:6e:ac:db:92:72:15:40:9e:d7:dc:1c:9e:d3:34:d4:3b:b5:
        f8:eb:d6:cf:a6:d3:4d:c7:ae:54:be:49:0f:a7:46:fe:f3:99:
        16:a5:ff:3e:10:3b:29:e3:24:c0:f8:a4:0a:d2:d2:8a:1d:94:
        ae:5c:98:d1:17:f8:d6:55:44:ae:cb:e2:07:fc:3d:79:7b:2d:
        5b:3a:fb:5f
-----BEGIN CERTIFICATE-----
MIIDczCCAlugAwIBAgIQBaWdvcJg2KJjKmWNCbLpvjANBgkqhkiG9w0BAQsFADAV
MRMwEQYDVQQDDAp0ZWFtNDYtbmV0MB4XDTIzMDQyMDAwMTEwMVoXDTI2MDQwNDAw
MTEwMVowGDEWMBQGA1UEAwwNdGVhbTQ2LXNlcnZlcjCCASIwDQYJKoZIhvcNAQEB
BQADggEPADCCAQoCggEBAL8AcLIWyTkV1ubOvI1QIQF3tNPy1L1HLYN7JnPQUXf6
6NL0CwKtAjl8JPdgkqHmH5QVoFyPD49jdUa3ibP8nPNWEoYQAeSoqMoinYfXHrlN
jmlyuXCPSAnQDv9g7iKCG1baxjSrG/5QtUj7TzsNpdPpYOIhqSZi1+HFLb8Yw/Pv
pgnyESNUwY3yWrfCvKv6uoV2f0+JEGTqwJHg7kTWiVfISprgGuyMWQNA8ER0RDB5
aQ7VT9Dw5PkghNz46AUTkMYQDQY9C8SKVEfy86/KELCi1L6Q3149yYrthKDu0ttj
0dPFk3HglCbyjRah/W3V8axmczK2GfDIqhw2vLpvo5kCAwEAAaOBuzCBuDAJBgNV
HRMEAjAAMB0GA1UdDgQWBBSCy+0iNoWWTbDXmQaa3y5TPCBsSDBQBgNVHSMESTBH
gBTmAd6432UUZcFmvCgU42oY5SO8oaEZpBcwFTETMBEGA1UEAwwKdGVhbTQ2LW5l
dIIUdTme/pYPWaN7HwYSPr+MhTVtmIAwEwYDVR0lBAwwCgYIKwYBBQUHAwEwCwYD
VR0PBAQDAgWgMBgGA1UdEQQRMA+CDXRlYW00Ni1zZXJ2ZXIwDQYJKoZIhvcNAQEL
BQADggEBAHf4rP8JwOoJJDp9BcxfhsMnnDm43VNiUpBYbwtI5XfH+WSH6CbJ0Gtm
+oBvRVzh2QjGEh5kkx7B7G+7sMGxtDtZ8o1CpmCFZRrVjuHMsbEOuvEESfJnT6/+
PGmPkh5gXfSDLUqw3wPehjhszEm7pQVEjQgElLUa7qFkhLxiyoUWqbyJgn/CwSNW
0Zcc+eQPdr3f1sZqP/BL7wtI6L6PSPkENR09aZPFsmKFHfcZNN9vX92jiMJurNuS
chVAntfcHJ7TNNQ7tfjr1s+m003HrlS+SQ+nRv7zmRal/z4QOynjJMD4pArS0ood
lK5cmNEX+NZVRK7L4gf8PXl7LVs6+18=
-----END CERTIFICATE-----
