Certificate:
    Data:
        Version: 3 (0x2)
        Serial Number:
            1f:2f:fc:9a:7a:0f:4f:69:7c:85:d7:0c:b1:77:8c:16
        Signature Algorithm: sha256WithRSAEncryption
        Issuer: CN=team46-net
        Validity
            Not Before: Apr 20 00:11:00 2023 GMT
            Not After : Apr  4 00:11:00 2026 GMT
        Subject: CN=team46-client
        Subject Public Key Info:
            Public Key Algorithm: rsaEncryption
                Public-Key: (2048 bit)
                Modulus:
                    00:a5:28:ba:5a:e3:99:11:31:12:90:d6:8a:cc:b1:
                    99:98:32:ee:c2:6c:f8:d1:0a:00:47:db:94:f4:81:
                    84:94:79:96:d7:26:eb:27:97:46:62:46:e3:08:a6:
                    cb:ae:9a:85:82:5b:b1:d5:53:e4:4d:1f:0d:76:7e:
                    60:b5:cc:7a:8f:a9:64:d6:44:fe:df:c0:22:c6:44:
                    de:cb:45:ce:d3:be:1b:67:9c:78:8d:38:6a:08:bc:
                    81:78:03:ed:32:6e:aa:3d:cc:98:92:a3:ac:6b:9c:
                    1e:33:18:bf:9f:9c:7a:c1:88:8e:da:ba:3e:0a:7e:
                    3f:84:62:6b:74:28:63:22:bd:7a:6e:2d:22:c6:ae:
                    da:2d:fd:43:77:41:21:e3:de:c6:3c:6c:3a:48:87:
                    8c:a0:35:82:3b:2a:96:e7:c2:92:a1:ef:7f:c8:de:
                    75:bf:1c:5a:ff:8b:3c:a2:83:07:fe:b9:c2:5c:8b:
                    c5:76:54:32:8a:bf:58:74:42:42:cf:d8:83:43:ed:
                    55:06:50:3e:eb:bd:8b:a7:b4:32:8a:14:cb:83:15:
                    92:b0:4c:3e:de:e2:6b:d0:8d:c9:15:cf:3c:79:7a:
                    d5:4f:16:15:c1:02:fe:3c:55:de:ff:a0:19:29:6e:
                    78:2e:05:9c:28:c1:cc:4f:59:86:f2:1b:ec:c9:ed:
                    e5:c9
                Exponent: 65537 (0x10001)
        X509v3 extensions:
            X509v3 Basic Constraints: 
                CA:FALSE
            X509v3 Subject Key Identifier: 
                E9:DD:2E:42:C4:11:3A:07:D6:F0:5B:08:21:FD:EB:2E:56:15:0E:63
            X509v3 Authority Key Identifier: 
                keyid:E6:01:DE:B8:DF:65:14:65:C1:66:BC:28:14:E3:6A:18:E5:23:BC:A1
                DirName:/CN=team46-net
                serial:75:39:9E:FE:96:0F:59:A3:7B:1F:06:12:3E:BF:8C:85:35:6D:98:80
            X509v3 Extended Key Usage: 
                TLS Web Client Authentication
            X509v3 Key Usage: 
                Digital Signature
    Signature Algorithm: sha256WithRSAEncryption
    Signature Value:
        33:7f:be:b1:9f:9f:3a:25:fd:3f:6b:cc:9f:3d:8b:9c:27:1b:
        71:8f:b9:ae:cd:5d:fb:99:a5:0a:1a:9e:a9:35:b0:2a:8d:ed:
        06:78:67:69:e7:e8:2f:7c:61:3d:30:fd:d8:f3:df:fa:7b:d1:
        20:11:44:a2:33:b6:20:28:ea:9e:e5:78:2e:b6:43:0a:b5:51:
        51:30:18:13:e4:7b:59:1f:dd:48:f2:2c:db:a1:35:f3:d5:03:
        27:ee:94:dd:95:3d:c2:ea:e9:c7:36:7b:95:11:3a:43:42:2c:
        8b:8e:67:97:c1:c4:88:4f:a6:cc:bb:cc:13:a4:5e:a2:82:6f:
        91:a8:3f:2b:d9:dc:38:8f:38:d5:55:bb:13:cb:b8:87:9f:2b:
        b7:cc:04:fa:15:db:66:85:22:32:a3:7b:db:36:bb:e3:48:a7:
        da:4a:fd:88:2b:be:30:f5:f4:64:d3:e2:69:43:89:fe:3d:67:
        9e:ec:df:43:e1:b6:9a:b6:c5:40:4d:48:cb:fb:8c:5d:c8:6c:
        e3:f6:3e:d1:fb:b4:4c:44:7b:7f:f9:79:f2:73:b2:e8:e3:8f:
        73:f2:60:52:17:e9:6e:7b:b1:d1:ba:8e:99:ac:6e:61:9b:80:
        2f:04:c0:ca:33:d5:34:19:50:78:42:e1:e3:60:92:57:7c:be:
        45:74:4a:d9
-----BEGIN CERTIFICATE-----
MIIDWTCCAkGgAwIBAgIQHy/8mnoPT2l8hdcMsXeMFjANBgkqhkiG9w0BAQsFADAV
MRMwEQYDVQQDDAp0ZWFtNDYtbmV0MB4XDTIzMDQyMDAwMTEwMFoXDTI2MDQwNDAw
MTEwMFowGDEWMBQGA1UEAwwNdGVhbTQ2LWNsaWVudDCCASIwDQYJKoZIhvcNAQEB
BQADggEPADCCAQoCggEBAKUoulrjmRExEpDWisyxmZgy7sJs+NEKAEfblPSBhJR5
ltcm6yeXRmJG4wimy66ahYJbsdVT5E0fDXZ+YLXMeo+pZNZE/t/AIsZE3stFztO+
G2eceI04agi8gXgD7TJuqj3MmJKjrGucHjMYv5+cesGIjtq6Pgp+P4Ria3QoYyK9
em4tIsau2i39Q3dBIePexjxsOkiHjKA1gjsqlufCkqHvf8jedb8cWv+LPKKDB/65
wlyLxXZUMoq/WHRCQs/Yg0PtVQZQPuu9i6e0MooUy4MVkrBMPt7ia9CNyRXPPHl6
1U8WFcEC/jxV3v+gGSlueC4FnCjBzE9ZhvIb7Mnt5ckCAwEAAaOBoTCBnjAJBgNV
HRMEAjAAMB0GA1UdDgQWBBTp3S5CxBE6B9bwWwgh/esuVhUOYzBQBgNVHSMESTBH
gBTmAd6432UUZcFmvCgU42oY5SO8oaEZpBcwFTETMBEGA1UEAwwKdGVhbTQ2LW5l
dIIUdTme/pYPWaN7HwYSPr+MhTVtmIAwEwYDVR0lBAwwCgYIKwYBBQUHAwIwCwYD
VR0PBAQDAgeAMA0GCSqGSIb3DQEBCwUAA4IBAQAzf76xn586Jf0/a8yfPYucJxtx
j7muzV37maUKGp6pNbAqje0GeGdp5+gvfGE9MP3Y89/6e9EgEUSiM7YgKOqe5Xgu
tkMKtVFRMBgT5HtZH91I8izboTXz1QMn7pTdlT3C6unHNnuVETpDQiyLjmeXwcSI
T6bMu8wTpF6igm+RqD8r2dw4jzjVVbsTy7iHnyu3zAT6FdtmhSIyo3vbNrvjSKfa
Sv2IK74w9fRk0+JpQ4n+PWee7N9D4baatsVATUjL+4xdyGzj9j7R+7RMRHt/+Xny
c7Lo449z8mBSF+lue7HRuo6ZrG5hm4AvBMDKM9U0GVB4QuHjYJJXfL5FdErZ
-----END CERTIFICATE-----
