Certificate:
    Data:
        Version: 3 (0x2)
        Serial Number:
            3e:26:46:ff:24:85:f8:e5:18:01:a1:d9:da:3b:55:b1
        Signature Algorithm: sha256WithRSAEncryption
        Issuer: CN=team46-net
        Validity
            Not Before: Apr 20 22:54:36 2023 GMT
            Not After : Apr  4 22:54:36 2026 GMT
        Subject: CN=team46-server
        Subject Public Key Info:
            Public Key Algorithm: rsaEncryption
                Public-Key: (2048 bit)
                Modulus:
                    00:d5:dc:8a:a5:83:38:e0:a2:f6:c7:d1:12:68:d4:
                    ed:61:9b:d5:87:4d:9e:55:b4:33:41:e9:3c:1b:9d:
                    c0:45:9d:f0:e2:a0:e3:6b:33:47:02:da:28:2f:00:
                    a7:58:76:3e:2e:2f:19:75:b0:78:29:d3:d0:ad:25:
                    a2:e9:ca:38:de:6f:a8:f9:6b:5b:1a:fa:51:ac:81:
                    a3:ae:b2:87:6d:5c:81:7f:fb:cd:b6:1e:42:f8:40:
                    8c:ae:f1:60:22:e0:a1:16:90:90:27:6a:74:74:3e:
                    ed:0b:28:0f:b4:2b:51:f5:d6:c0:eb:8d:fb:4c:0a:
                    e8:dd:72:89:1c:06:5d:8d:14:5c:50:78:31:ac:bb:
                    f5:00:57:2d:1a:d1:20:d2:a6:04:43:8a:aa:28:22:
                    68:7a:91:f3:fe:74:10:48:f5:c9:0b:4d:47:9c:72:
                    88:b0:7d:a1:7b:58:58:f7:26:49:47:ab:7a:01:ae:
                    c7:1f:57:26:fa:77:49:58:e0:2b:01:30:80:b1:f5:
                    97:ca:6b:69:aa:0b:47:24:35:68:d4:93:dc:62:9c:
                    2f:a2:36:1d:e9:65:44:54:33:6a:89:c9:fa:81:05:
                    52:0b:1d:63:13:a3:8b:59:0e:3a:d3:7e:b8:b6:62:
                    e3:5e:36:18:1b:66:8b:ab:c0:df:48:91:ed:6d:79:
                    37:7b
                Exponent: 65537 (0x10001)
        X509v3 extensions:
            X509v3 Basic Constraints: 
                CA:FALSE
            X509v3 Subject Key Identifier: 
                CE:3A:D8:0D:5C:9E:39:C7:EA:69:1C:18:1A:58:95:D3:1D:2A:93:A8
            X509v3 Authority Key Identifier: 
                keyid:BB:41:DB:39:3C:97:B7:DD:F8:5F:C7:25:00:71:8C:1D:EB:39:37:E8
                DirName:/CN=team46-net
                serial:1A:51:BD:D7:52:60:55:4C:8E:FA:AA:02:9E:1F:00:CA:ED:39:D4:05
            X509v3 Extended Key Usage: 
                TLS Web Server Authentication
            X509v3 Key Usage: 
                Digital Signature, Key Encipherment
            X509v3 Subject Alternative Name: 
                DNS:team46-server
    Signature Algorithm: sha256WithRSAEncryption
    Signature Value:
        75:b3:a5:e6:5f:1e:75:3c:da:53:3d:0d:59:32:84:8f:bb:fe:
        e7:3d:c0:bc:d7:12:20:69:cd:7b:24:73:24:0e:4c:01:98:93:
        54:de:8b:ce:15:5b:27:2d:3a:ee:8c:c4:0b:0b:f4:a8:2f:ec:
        c1:eb:aa:07:4e:58:40:80:a4:bf:9a:e3:2a:e9:89:14:db:2f:
        d1:ee:2f:01:0a:14:c4:70:fc:82:1a:c8:27:ba:70:b6:cf:4b:
        f8:d8:61:11:8c:07:a2:1a:e6:97:8d:c2:4f:45:90:ba:de:a5:
        f3:53:83:8d:ab:ad:4d:92:59:00:a6:7d:3f:ff:e1:f6:de:b2:
        90:f1:61:90:8e:7a:09:ef:14:79:40:b1:a4:71:26:c9:c0:23:
        b9:7e:35:c2:d8:d5:15:d9:dc:88:5f:a3:6b:91:c4:99:85:28:
        00:5c:4a:1c:db:d0:23:c0:11:90:2b:08:de:31:c7:f5:9c:fc:
        2d:a3:00:b7:74:4b:c4:f7:8d:57:04:c8:f6:5f:d3:88:83:31:
        61:5d:02:26:46:1c:e9:a4:e0:58:f4:90:59:ce:aa:44:1d:65:
        08:17:c5:19:b0:f8:cc:ea:0d:b5:0f:26:b4:61:32:6a:ac:23:
        ce:2e:4d:96:4b:12:76:b4:6e:29:72:f2:81:03:17:5c:2e:de:
        5d:b7:3f:c3
-----BEGIN CERTIFICATE-----
MIIDczCCAlugAwIBAgIQPiZG/ySF+OUYAaHZ2jtVsTANBgkqhkiG9w0BAQsFADAV
MRMwEQYDVQQDDAp0ZWFtNDYtbmV0MB4XDTIzMDQyMDIyNTQzNloXDTI2MDQwNDIy
NTQzNlowGDEWMBQGA1UEAwwNdGVhbTQ2LXNlcnZlcjCCASIwDQYJKoZIhvcNAQEB
BQADggEPADCCAQoCggEBANXciqWDOOCi9sfREmjU7WGb1YdNnlW0M0HpPBudwEWd
8OKg42szRwLaKC8Ap1h2Pi4vGXWweCnT0K0lounKON5vqPlrWxr6UayBo66yh21c
gX/7zbYeQvhAjK7xYCLgoRaQkCdqdHQ+7QsoD7QrUfXWwOuN+0wK6N1yiRwGXY0U
XFB4May79QBXLRrRINKmBEOKqigiaHqR8/50EEj1yQtNR5xyiLB9oXtYWPcmSUer
egGuxx9XJvp3SVjgKwEwgLH1l8praaoLRyQ1aNST3GKcL6I2HellRFQzaonJ+oEF
UgsdYxOji1kOOtN+uLZi4142GBtmi6vA30iR7W15N3sCAwEAAaOBuzCBuDAJBgNV
HRMEAjAAMB0GA1UdDgQWBBTOOtgNXJ45x+ppHBgaWJXTHSqTqDBQBgNVHSMESTBH
gBS7Qds5PJe33fhfxyUAcYwd6zk36KEZpBcwFTETMBEGA1UEAwwKdGVhbTQ2LW5l
dIIUGlG911JgVUyO+qoCnh8Ayu051AUwEwYDVR0lBAwwCgYIKwYBBQUHAwEwCwYD
VR0PBAQDAgWgMBgGA1UdEQQRMA+CDXRlYW00Ni1zZXJ2ZXIwDQYJKoZIhvcNAQEL
BQADggEBAHWzpeZfHnU82lM9DVkyhI+7/uc9wLzXEiBpzXskcyQOTAGYk1Tei84V
WyctOu6MxAsL9Kgv7MHrqgdOWECApL+a4yrpiRTbL9HuLwEKFMRw/IIayCe6cLbP
S/jYYRGMB6Ia5peNwk9FkLrepfNTg42rrU2SWQCmfT//4fbespDxYZCOegnvFHlA
saRxJsnAI7l+NcLY1RXZ3Ihfo2uRxJmFKABcShzb0CPAEZArCN4xx/Wc/C2jALd0
S8T3jVcEyPZf04iDMWFdAiZGHOmk4Fj0kFnOqkQdZQgXxRmw+MzqDbUPJrRhMmqs
I84uTZZLEna0bily8oEDF1wu3l23P8M=
-----END CERTIFICATE-----
