Certificate:
    Data:
        Version: 3 (0x2)
        Serial Number:
            96:ee:af:5a:7d:1d:29:84:82:3b:47:ef:c3:a4:c9:cd
        Signature Algorithm: sha256WithRSAEncryption
        Issuer: CN=team46-net
        Validity
            Not Before: Apr 20 22:54:36 2023 GMT
            Not After : Apr  4 22:54:36 2026 GMT
        Subject: CN=team46-client
        Subject Public Key Info:
            Public Key Algorithm: rsaEncryption
                Public-Key: (2048 bit)
                Modulus:
                    00:e2:16:2d:2f:17:37:30:a0:de:93:4e:44:fe:f9:
                    5e:b3:13:d4:e8:65:d1:a8:9f:f1:4d:4e:68:b1:41:
                    44:47:67:5a:6b:83:39:6e:1a:ff:b2:16:33:08:2e:
                    d4:59:b7:8f:dc:84:9d:b5:7d:78:97:03:19:23:0f:
                    bd:8e:a7:18:7f:f4:97:e4:d1:d9:77:48:7c:28:75:
                    d3:e9:17:6e:e2:6d:0a:09:1c:00:d0:d6:a9:80:13:
                    e3:c9:88:12:04:88:48:51:3b:4e:9b:a4:86:94:29:
                    3f:89:11:e7:ca:a7:5d:ed:c8:47:d5:4e:95:07:83:
                    ca:ee:c9:38:d1:10:af:86:9c:c5:1f:7b:46:3c:0f:
                    79:e9:b5:a4:d0:3c:61:0d:39:6f:9d:d0:41:d7:d9:
                    fe:cf:17:47:38:aa:f0:6c:5c:73:c9:ba:cc:c7:40:
                    62:b5:cd:a9:0c:8b:3d:10:43:73:3d:a7:fe:64:a3:
                    22:b4:12:37:3d:5d:39:2b:56:1b:fc:f8:de:b2:a6:
                    65:8c:21:7c:03:43:f2:bb:a2:5a:2f:f8:70:a3:8c:
                    bb:3b:1f:fb:25:20:61:ea:c5:0c:7c:bf:1b:d0:da:
                    88:f4:94:cd:25:1a:d0:c7:37:cf:e2:e3:80:22:7f:
                    2e:6c:36:51:23:0d:f9:a2:19:d5:60:b8:a8:21:9f:
                    bf:83
                Exponent: 65537 (0x10001)
        X509v3 extensions:
            X509v3 Basic Constraints: 
                CA:FALSE
            X509v3 Subject Key Identifier: 
                CD:E0:86:36:5C:0E:21:03:B2:36:2A:36:9C:13:5E:EF:E2:6B:12:98
            X509v3 Authority Key Identifier: 
                keyid:BB:41:DB:39:3C:97:B7:DD:F8:5F:C7:25:00:71:8C:1D:EB:39:37:E8
                DirName:/CN=team46-net
                serial:1A:51:BD:D7:52:60:55:4C:8E:FA:AA:02:9E:1F:00:CA:ED:39:D4:05
            X509v3 Extended Key Usage: 
                TLS Web Client Authentication
            X509v3 Key Usage: 
                Digital Signature
    Signature Algorithm: sha256WithRSAEncryption
    Signature Value:
        21:65:7a:65:3e:74:bf:cf:4d:2c:de:0d:04:8a:d2:00:d6:46:
        f9:80:9a:c1:e6:fb:d2:15:70:53:9c:6a:62:31:b2:24:2d:7e:
        a0:0e:48:99:ec:cb:3a:98:ed:e0:bb:d4:f8:5b:04:6b:cd:c3:
        d4:85:9c:08:9b:34:f5:44:65:6b:d0:29:33:10:c7:77:8d:4b:
        f1:24:5b:96:1c:f9:61:d7:f1:11:08:79:f1:b2:dc:3e:9c:72:
        ff:55:d0:c5:e2:b4:4a:7b:f7:af:a7:95:bf:2e:55:f2:af:97:
        5b:4d:22:00:fc:c0:f0:a9:48:0b:b2:c2:61:58:d5:32:b1:57:
        f8:16:03:7e:07:45:44:a9:6a:fb:66:28:ff:b1:a0:5a:37:ed:
        88:eb:4b:14:9c:02:4b:1d:29:e8:5e:b9:b5:3e:88:9a:33:1b:
        03:62:17:a0:84:87:55:12:e5:cc:59:dd:a0:46:ed:36:4b:66:
        74:d7:9b:1e:99:02:c9:2b:86:e4:0d:cc:b4:28:30:83:62:db:
        07:58:9b:3c:ce:2c:f1:d4:38:9c:bc:ad:ef:20:89:42:85:01:
        50:69:f7:60:dc:c0:e1:8a:a3:1e:cb:91:0e:d2:6e:93:20:b8:
        4a:e7:03:76:6b:9f:88:be:28:27:1a:a0:73:e6:10:53:8b:44:
        a2:5a:88:fe
-----BEGIN CERTIFICATE-----
MIIDWjCCAkKgAwIBAgIRAJbur1p9HSmEgjtH78Okyc0wDQYJKoZIhvcNAQELBQAw
FTETMBEGA1UEAwwKdGVhbTQ2LW5ldDAeFw0yMzA0MjAyMjU0MzZaFw0yNjA0MDQy
MjU0MzZaMBgxFjAUBgNVBAMMDXRlYW00Ni1jbGllbnQwggEiMA0GCSqGSIb3DQEB
AQUAA4IBDwAwggEKAoIBAQDiFi0vFzcwoN6TTkT++V6zE9ToZdGon/FNTmixQURH
Z1prgzluGv+yFjMILtRZt4/chJ21fXiXAxkjD72Opxh/9Jfk0dl3SHwoddPpF27i
bQoJHADQ1qmAE+PJiBIEiEhRO06bpIaUKT+JEefKp13tyEfVTpUHg8ruyTjREK+G
nMUfe0Y8D3nptaTQPGENOW+d0EHX2f7PF0c4qvBsXHPJuszHQGK1zakMiz0QQ3M9
p/5koyK0Ejc9XTkrVhv8+N6ypmWMIXwDQ/K7olov+HCjjLs7H/slIGHqxQx8vxvQ
2oj0lM0lGtDHN8/i44Aify5sNlEjDfmiGdVguKghn7+DAgMBAAGjgaEwgZ4wCQYD
VR0TBAIwADAdBgNVHQ4EFgQUzeCGNlwOIQOyNio2nBNe7+JrEpgwUAYDVR0jBEkw
R4AUu0HbOTyXt934X8clAHGMHes5N+ihGaQXMBUxEzARBgNVBAMMCnRlYW00Ni1u
ZXSCFBpRvddSYFVMjvqqAp4fAMrtOdQFMBMGA1UdJQQMMAoGCCsGAQUFBwMCMAsG
A1UdDwQEAwIHgDANBgkqhkiG9w0BAQsFAAOCAQEAIWV6ZT50v89NLN4NBIrSANZG
+YCaweb70hVwU5xqYjGyJC1+oA5ImezLOpjt4LvU+FsEa83D1IWcCJs09URla9Ap
MxDHd41L8SRblhz5YdfxEQh58bLcPpxy/1XQxeK0Snv3r6eVvy5V8q+XW00iAPzA
8KlIC7LCYVjVMrFX+BYDfgdFRKlq+2Yo/7GgWjftiOtLFJwCSx0p6F65tT6ImjMb
A2IXoISHVRLlzFndoEbtNktmdNebHpkCySuG5A3MtCgwg2LbB1ibPM4s8dQ4nLyt
7yCJQoUBUGn3YNzA4YqjHsuRDtJukyC4SucDdmufiL4oJxqgc+YQU4tEolqI/g==
-----END CERTIFICATE-----
