Certificate:
    Data:
        Version: 3 (0x2)
        Serial Number:
            6d:6f:aa:de:d0:bb:f1:df:1f:33:6e:fc:9f:91:04:0d
        Signature Algorithm: sha256WithRSAEncryption
        Issuer: CN=team1-net
        Validity
            Not Before: Apr 20 00:09:54 2023 GMT
            Not After : Apr  4 00:09:54 2026 GMT
        Subject: CN=team1-client
        Subject Public Key Info:
            Public Key Algorithm: rsaEncryption
                Public-Key: (2048 bit)
                Modulus:
                    00:b6:39:61:6b:dd:46:a6:32:a0:81:63:a8:2e:26:
                    6e:ce:6a:11:76:70:e0:99:2a:ee:61:95:5e:8d:df:
                    a2:17:91:3d:db:19:f2:9c:db:36:1f:10:3a:0c:70:
                    41:88:e0:14:f2:77:fe:17:e9:3b:8b:2e:e0:60:6c:
                    e9:e5:86:56:e0:37:f6:93:d3:f6:dd:fd:d8:03:9b:
                    fc:6f:b0:40:7c:a3:6d:de:8e:41:a8:2b:83:5b:cd:
                    86:18:48:6f:fb:a9:aa:6d:a2:fb:b2:b1:99:40:24:
                    79:66:6c:35:fa:f5:33:ed:ef:60:1e:2d:99:be:b3:
                    68:2e:96:26:26:b0:57:8e:5d:e7:32:b2:e9:9a:ce:
                    9d:95:5c:9d:69:ca:bb:d0:ae:5d:c7:68:77:14:0d:
                    6e:f5:5b:dd:9d:57:1b:35:bc:61:1f:12:db:53:59:
                    00:25:21:0f:1c:3d:7f:8c:fb:0d:ca:6d:45:8f:41:
                    20:8f:2c:70:00:93:b0:df:7d:ca:c0:b8:d1:1e:81:
                    93:77:5e:f2:76:c4:2b:03:ac:92:52:52:67:d9:f2:
                    ed:67:2e:c4:62:18:75:79:a3:fa:b6:68:f3:5b:4d:
                    78:4d:23:23:e5:d9:8f:d8:69:b2:b0:1b:4a:43:6c:
                    30:08:49:35:a0:07:f8:da:f8:86:29:60:13:90:ce:
                    05:8b
                Exponent: 65537 (0x10001)
        X509v3 extensions:
            X509v3 Basic Constraints: 
                CA:FALSE
            X509v3 Subject Key Identifier: 
                92:56:49:7D:CE:56:78:E7:22:DE:B6:92:4F:DF:04:15:F8:60:CE:82
            X509v3 Authority Key Identifier: 
                keyid:2F:BC:63:14:D9:96:3A:EC:DF:EB:4E:E4:44:B7:F6:C3:FA:EA:73:9A
                DirName:/CN=team1-net
                serial:35:34:DA:DA:49:49:49:C4:05:11:D8:15:B6:CB:CF:8C:DF:9F:36:D1
            X509v3 Extended Key Usage: 
                TLS Web Client Authentication
            X509v3 Key Usage: 
                Digital Signature
    Signature Algorithm: sha256WithRSAEncryption
    Signature Value:
        66:95:de:cc:d7:56:81:37:8d:d9:af:ee:79:c8:06:a3:84:41:
        2f:f5:ef:a3:0b:82:02:58:7c:eb:b7:52:c6:0f:3b:17:5a:f4:
        9d:c8:e5:93:eb:06:a3:19:4a:0c:71:ae:65:9c:59:e7:0a:6b:
        2c:b4:10:dd:67:15:a3:71:af:99:42:c5:dc:2f:0a:f5:81:66:
        3b:da:b3:99:d3:5b:4f:ea:c4:43:14:c7:c3:7c:a8:3c:71:5a:
        04:3f:e3:e6:cb:1a:e6:1d:74:8f:32:b9:df:61:b0:d6:48:b5:
        16:ce:a0:74:80:a7:94:61:5f:86:1e:02:62:33:a5:b0:a8:fc:
        4d:f5:75:7a:07:e9:d1:5b:b9:06:5a:2b:55:58:72:5e:bf:18:
        f9:37:4e:85:02:e2:48:35:72:95:95:27:51:af:bf:55:53:da:
        e5:1d:3a:ce:76:e1:4c:03:ed:5c:ec:07:60:53:60:99:c3:86:
        28:24:7e:44:b2:5c:7d:cb:de:bb:20:aa:c0:e6:8a:75:87:61:
        39:17:97:64:b6:4a:6a:7c:2a:3d:ca:6e:d9:bc:16:5f:b1:9b:
        c9:fa:fa:a1:44:7d:05:1f:0a:89:1e:8f:af:a3:ac:99:a5:2e:
        66:5d:b2:a3:69:3a:80:e5:37:34:5e:16:5d:8f:e2:6a:77:40:
        23:96:f8:dc
-----BEGIN CERTIFICATE-----
MIIDVjCCAj6gAwIBAgIQbW+q3tC78d8fM278n5EEDTANBgkqhkiG9w0BAQsFADAU
MRIwEAYDVQQDDAl0ZWFtMS1uZXQwHhcNMjMwNDIwMDAwOTU0WhcNMjYwNDA0MDAw
OTU0WjAXMRUwEwYDVQQDDAx0ZWFtMS1jbGllbnQwggEiMA0GCSqGSIb3DQEBAQUA
A4IBDwAwggEKAoIBAQC2OWFr3UamMqCBY6guJm7OahF2cOCZKu5hlV6N36IXkT3b
GfKc2zYfEDoMcEGI4BTyd/4X6TuLLuBgbOnlhlbgN/aT0/bd/dgDm/xvsEB8o23e
jkGoK4NbzYYYSG/7qaptovuysZlAJHlmbDX69TPt72AeLZm+s2guliYmsFeOXecy
sumazp2VXJ1pyrvQrl3HaHcUDW71W92dVxs1vGEfEttTWQAlIQ8cPX+M+w3KbUWP
QSCPLHAAk7DffcrAuNEegZN3XvJ2xCsDrJJSUmfZ8u1nLsRiGHV5o/q2aPNbTXhN
IyPl2Y/YabKwG0pDbDAISTWgB/ja+IYpYBOQzgWLAgMBAAGjgaAwgZ0wCQYDVR0T
BAIwADAdBgNVHQ4EFgQUklZJfc5WeOci3raST98EFfhgzoIwTwYDVR0jBEgwRoAU
L7xjFNmWOuzf607kRLf2w/rqc5qhGKQWMBQxEjAQBgNVBAMMCXRlYW0xLW5ldIIU
NTTa2klJScQFEdgVtsvPjN+fNtEwEwYDVR0lBAwwCgYIKwYBBQUHAwIwCwYDVR0P
BAQDAgeAMA0GCSqGSIb3DQEBCwUAA4IBAQBmld7M11aBN43Zr+55yAajhEEv9e+j
C4ICWHzrt1LGDzsXWvSdyOWT6wajGUoMca5lnFnnCmsstBDdZxWjca+ZQsXcLwr1
gWY72rOZ01tP6sRDFMfDfKg8cVoEP+PmyxrmHXSPMrnfYbDWSLUWzqB0gKeUYV+G
HgJiM6WwqPxN9XV6B+nRW7kGWitVWHJevxj5N06FAuJINXKVlSdRr79VU9rlHTrO
duFMA+1c7AdgU2CZw4YoJH5Eslx9y967IKrA5op1h2E5F5dktkpqfCo9ym7ZvBZf
sZvJ+vqhRH0FHwqJHo+vo6yZpS5mXbKjaTqA5Tc0XhZdj+Jqd0Ajlvjc
-----END CERTIFICATE-----
