Certificate:
    Data:
        Version: 3 (0x2)
        Serial Number:
            20:f9:f4:cd:40:ca:9a:58:c6:1f:18:7c:b3:22:66:a5
        Signature Algorithm: sha256WithRSAEncryption
        Issuer: CN=team1-net
        Validity
            Not Before: Apr 20 00:09:55 2023 GMT
            Not After : Apr  4 00:09:55 2026 GMT
        Subject: CN=team1-server
        Subject Public Key Info:
            Public Key Algorithm: rsaEncryption
                Public-Key: (2048 bit)
                Modulus:
                    00:a7:b8:cb:81:4c:94:67:5c:cf:51:52:1b:93:99:
                    0d:16:19:d1:a2:b3:48:4d:7d:03:54:f3:3d:f4:27:
                    7b:32:27:11:10:95:63:bc:92:25:e7:81:81:9b:2d:
                    93:bf:50:d1:3d:c4:b5:94:4e:3f:40:2e:9b:8f:c3:
                    b9:67:1e:48:f3:c9:35:38:28:9c:85:03:d3:e9:50:
                    55:c7:e0:d5:da:39:af:46:9b:40:e5:af:e2:a2:c9:
                    3e:08:72:f7:3c:94:4e:0f:79:9d:3f:b5:09:34:8b:
                    c5:2d:33:f7:35:06:49:bb:df:a9:82:bd:92:05:30:
                    1a:43:7c:ad:a8:54:40:ec:34:d5:8b:27:ac:02:ac:
                    08:cb:6e:7d:31:6d:67:41:61:86:2a:38:58:58:0b:
                    54:5e:82:e6:8a:02:1d:0a:5b:1f:f6:07:4f:b1:7a:
                    94:a6:00:89:9a:c5:9a:00:60:5d:0f:ca:e7:c7:b2:
                    ff:08:ab:22:5e:44:34:b2:b0:45:5d:6d:3b:9c:a6:
                    6f:d6:44:fc:1a:ec:ca:96:e8:d2:76:e4:98:c2:ac:
                    5e:53:34:5a:2c:19:ed:1d:7b:18:72:28:2a:ae:de:
                    af:b9:50:77:f6:0c:f4:33:97:f0:83:d3:22:ed:2a:
                    3f:32:22:4f:88:4b:57:8e:6b:75:72:9f:e5:4b:15:
                    51:c1
                Exponent: 65537 (0x10001)
        X509v3 extensions:
            X509v3 Basic Constraints: 
                CA:FALSE
            X509v3 Subject Key Identifier: 
                05:EC:0F:DC:8A:D2:E3:AF:4C:3C:9F:37:46:3A:C5:3A:71:34:61:12
            X509v3 Authority Key Identifier: 
                keyid:2F:BC:63:14:D9:96:3A:EC:DF:EB:4E:E4:44:B7:F6:C3:FA:EA:73:9A
                DirName:/CN=team1-net
                serial:35:34:DA:DA:49:49:49:C4:05:11:D8:15:B6:CB:CF:8C:DF:9F:36:D1
            X509v3 Extended Key Usage: 
                TLS Web Server Authentication
            X509v3 Key Usage: 
                Digital Signature, Key Encipherment
            X509v3 Subject Alternative Name: 
                DNS:team1-server
    Signature Algorithm: sha256WithRSAEncryption
    Signature Value:
        75:ec:16:15:9d:dc:4c:30:96:e1:22:ca:b0:e0:1f:3e:19:2d:
        0b:45:70:4a:b5:07:a9:83:f6:58:7d:a6:28:63:93:4e:47:9d:
        c8:5e:08:27:a5:82:3a:d4:14:59:f9:59:84:c7:78:36:bb:e1:
        b6:ef:3b:ba:bb:f4:07:08:5f:4e:59:44:33:b5:9d:e7:7b:be:
        78:e5:83:3f:8e:5f:ee:78:19:71:90:c7:66:94:b3:f0:c3:e0:
        3b:59:87:21:23:99:ba:e3:b4:b0:3a:cb:22:0e:2a:77:3e:1e:
        ab:83:df:ae:8e:83:bb:6a:c3:0f:0e:4e:b0:23:df:e6:24:83:
        90:2f:a2:ce:e8:5c:4e:3f:8d:16:71:bf:f3:c2:b6:37:00:24:
        a7:96:49:d0:05:00:93:c1:dc:69:a8:c6:c5:57:31:19:d8:63:
        52:7b:c4:31:1b:6a:32:ae:0e:0b:32:ae:89:88:ca:96:f6:1d:
        97:78:c9:11:8a:95:e2:c1:f5:06:4a:c1:48:fc:9e:25:5a:54:
        18:ff:a3:52:ae:fd:8b:ed:10:ae:a1:3c:97:00:43:d7:3e:16:
        c4:a6:a2:5c:f6:1f:ae:b4:8f:15:26:60:7b:19:f2:50:7b:06:
        1b:39:9b:43:2f:44:30:d3:f2:5b:14:e9:7b:db:d1:45:3f:10:
        a0:9b:df:73
-----BEGIN CERTIFICATE-----
MIIDbzCCAlegAwIBAgIQIPn0zUDKmljGHxh8syJmpTANBgkqhkiG9w0BAQsFADAU
MRIwEAYDVQQDDAl0ZWFtMS1uZXQwHhcNMjMwNDIwMDAwOTU1WhcNMjYwNDA0MDAw
OTU1WjAXMRUwEwYDVQQDDAx0ZWFtMS1zZXJ2ZXIwggEiMA0GCSqGSIb3DQEBAQUA
A4IBDwAwggEKAoIBAQCnuMuBTJRnXM9RUhuTmQ0WGdGis0hNfQNU8z30J3syJxEQ
lWO8kiXngYGbLZO/UNE9xLWUTj9ALpuPw7lnHkjzyTU4KJyFA9PpUFXH4NXaOa9G
m0Dlr+KiyT4Icvc8lE4PeZ0/tQk0i8UtM/c1Bkm736mCvZIFMBpDfK2oVEDsNNWL
J6wCrAjLbn0xbWdBYYYqOFhYC1ReguaKAh0KWx/2B0+xepSmAImaxZoAYF0PyufH
sv8IqyJeRDSysEVdbTucpm/WRPwa7MqW6NJ25JjCrF5TNFosGe0dexhyKCqu3q+5
UHf2DPQzl/CD0yLtKj8yIk+IS1eOa3Vyn+VLFVHBAgMBAAGjgbkwgbYwCQYDVR0T
BAIwADAdBgNVHQ4EFgQUBewP3IrS469MPJ83RjrFOnE0YRIwTwYDVR0jBEgwRoAU
L7xjFNmWOuzf607kRLf2w/rqc5qhGKQWMBQxEjAQBgNVBAMMCXRlYW0xLW5ldIIU
NTTa2klJScQFEdgVtsvPjN+fNtEwEwYDVR0lBAwwCgYIKwYBBQUHAwEwCwYDVR0P
BAQDAgWgMBcGA1UdEQQQMA6CDHRlYW0xLXNlcnZlcjANBgkqhkiG9w0BAQsFAAOC
AQEAdewWFZ3cTDCW4SLKsOAfPhktC0VwSrUHqYP2WH2mKGOTTkedyF4IJ6WCOtQU
WflZhMd4Nrvhtu87urv0BwhfTllEM7Wd53u+eOWDP45f7ngZcZDHZpSz8MPgO1mH
ISOZuuO0sDrLIg4qdz4eq4Pfro6Du2rDDw5OsCPf5iSDkC+izuhcTj+NFnG/88K2
NwAkp5ZJ0AUAk8HcaajGxVcxGdhjUnvEMRtqMq4OCzKuiYjKlvYdl3jJEYqV4sH1
BkrBSPyeJVpUGP+jUq79i+0QrqE8lwBD1z4WxKaiXPYfrrSPFSZgexnyUHsGGzmb
Qy9EMNPyWxTpe9vRRT8QoJvfcw==
-----END CERTIFICATE-----
