Certificate:
    Data:
        Version: 3 (0x2)
        Serial Number:
            5d:23:2e:0e:72:5a:b3:78:65:7f:16:df:b8:55:7f:84
        Signature Algorithm: sha256WithRSAEncryption
        Issuer: CN=team32-net
        Validity
            Not Before: Apr 20 00:10:42 2023 GMT
            Not After : Apr  4 00:10:42 2026 GMT
        Subject: CN=team32-server
        Subject Public Key Info:
            Public Key Algorithm: rsaEncryption
                Public-Key: (2048 bit)
                Modulus:
                    00:ca:e0:2f:06:9e:3f:8c:78:1a:1d:29:b0:74:90:
                    f0:6e:c6:a8:9d:4f:80:8e:30:e1:19:27:fb:ba:4f:
                    7f:4e:1f:69:33:a0:73:0d:e1:90:60:6d:14:bb:40:
                    8d:01:42:e2:11:7a:39:25:d5:bb:3b:cc:4b:4a:c5:
                    e5:eb:b6:1f:aa:67:fd:33:77:c7:62:04:4b:b1:1b:
                    ec:e9:46:43:e5:6f:18:f6:03:24:4c:3a:32:0d:a6:
                    9a:61:99:e6:5e:13:d1:19:17:7a:30:cc:98:55:f4:
                    e0:e7:0b:f4:50:1c:9e:89:97:0e:16:1f:ea:3d:75:
                    97:94:e1:35:c3:f3:a5:f3:36:bf:66:31:b8:36:03:
                    8d:ae:4e:62:e9:6e:ca:5a:0e:2d:ed:9e:d7:0b:80:
                    98:72:f7:2a:98:d4:89:24:17:fe:cc:e1:e4:5c:7f:
                    9c:36:59:c6:e4:92:61:39:61:a2:8a:60:f7:db:5a:
                    dd:39:91:ba:25:f7:9b:8f:25:fb:9c:39:71:26:2f:
                    ea:4f:4d:bb:79:9f:76:bc:0d:0b:56:08:9f:22:64:
                    e9:28:1b:37:8c:f9:3a:43:ad:dd:f0:e2:2a:c7:dd:
                    94:89:4d:db:26:fe:d7:1c:ee:4b:40:47:45:f5:54:
                    bc:0a:1f:52:35:0c:33:8e:49:64:77:8f:c7:04:88:
                    61:41
                Exponent: 65537 (0x10001)
        X509v3 extensions:
            X509v3 Basic Constraints: 
                CA:FALSE
            X509v3 Subject Key Identifier: 
                74:90:55:FD:40:AC:91:7C:5D:E0:8F:ED:6D:AB:0A:7D:6C:C8:33:69
            X509v3 Authority Key Identifier: 
                keyid:C8:DA:1A:F1:EE:91:1A:D5:41:A1:F1:5C:82:36:B9:CF:7A:2D:CF:91
                DirName:/CN=team32-net
                serial:15:9F:A1:E4:7C:83:B9:76:7A:28:ED:82:2E:AC:4E:9D:5E:6B:2F:4E
            X509v3 Extended Key Usage: 
                TLS Web Server Authentication
            X509v3 Key Usage: 
                Digital Signature, Key Encipherment
            X509v3 Subject Alternative Name: 
                DNS:team32-server
    Signature Algorithm: sha256WithRSAEncryption
    Signature Value:
        91:ea:84:01:84:e4:31:bf:a9:1e:a6:a8:a2:b9:6d:c6:fa:e6:
        0a:d0:f0:95:74:42:c2:a6:50:93:2b:93:ff:1b:a9:ca:be:d4:
        42:51:0c:31:b9:94:9f:05:48:e6:96:73:71:c2:07:7b:38:d5:
        dd:7b:53:58:16:46:96:81:fa:b2:be:63:69:58:d3:b4:d9:cb:
        3b:80:51:28:49:60:ea:80:ba:d1:34:35:bd:49:1d:a6:49:42:
        e5:44:e8:05:68:45:10:47:ac:3f:a1:43:17:08:09:e2:4e:85:
        ad:25:d1:de:d3:0d:e7:17:7c:6e:57:ee:ac:6c:a0:c9:bb:ed:
        65:69:d1:36:8f:39:f1:59:79:ba:c8:30:c1:7d:bd:02:be:44:
        d8:be:2d:60:18:6f:81:35:ed:0f:c5:fc:48:4c:47:a0:cc:64:
        b1:63:63:a9:95:25:6e:65:1c:1b:b6:9f:60:58:d3:a7:6b:c8:
        af:eb:04:48:cb:a4:cc:97:45:ab:a8:fb:86:40:64:0f:7c:0a:
        2c:b6:8b:53:17:b9:3c:ef:30:a5:b0:d9:98:a4:18:ff:8e:bb:
        d6:84:d7:7c:75:30:4e:c3:a4:f4:fa:1e:16:6d:59:08:5e:a3:
        2f:a7:b4:a6:0a:c9:b4:a4:ec:c4:b8:62:82:2b:4e:de:e4:03:
        2f:19:ec:b4
-----BEGIN CERTIFICATE-----
MIIDczCCAlugAwIBAgIQXSMuDnJas3hlfxbfuFV/hDANBgkqhkiG9w0BAQsFADAV
MRMwEQYDVQQDDAp0ZWFtMzItbmV0MB4XDTIzMDQyMDAwMTA0MloXDTI2MDQwNDAw
MTA0MlowGDEWMBQGA1UEAwwNdGVhbTMyLXNlcnZlcjCCASIwDQYJKoZIhvcNAQEB
BQADggEPADCCAQoCggEBAMrgLwaeP4x4Gh0psHSQ8G7GqJ1PgI4w4Rkn+7pPf04f
aTOgcw3hkGBtFLtAjQFC4hF6OSXVuzvMS0rF5eu2H6pn/TN3x2IES7Eb7OlGQ+Vv
GPYDJEw6Mg2mmmGZ5l4T0RkXejDMmFX04OcL9FAcnomXDhYf6j11l5ThNcPzpfM2
v2YxuDYDja5OYuluyloOLe2e1wuAmHL3KpjUiSQX/szh5Fx/nDZZxuSSYTlhoopg
99ta3TmRuiX3m48l+5w5cSYv6k9Nu3mfdrwNC1YInyJk6SgbN4z5OkOt3fDiKsfd
lIlN2yb+1xzuS0BHRfVUvAofUjUMM45JZHePxwSIYUECAwEAAaOBuzCBuDAJBgNV
HRMEAjAAMB0GA1UdDgQWBBR0kFX9QKyRfF3gj+1tqwp9bMgzaTBQBgNVHSMESTBH
gBTI2hrx7pEa1UGh8VyCNrnPei3PkaEZpBcwFTETMBEGA1UEAwwKdGVhbTMyLW5l
dIIUFZ+h5HyDuXZ6KO2CLqxOnV5rL04wEwYDVR0lBAwwCgYIKwYBBQUHAwEwCwYD
VR0PBAQDAgWgMBgGA1UdEQQRMA+CDXRlYW0zMi1zZXJ2ZXIwDQYJKoZIhvcNAQEL
BQADggEBAJHqhAGE5DG/qR6mqKK5bcb65grQ8JV0QsKmUJMrk/8bqcq+1EJRDDG5
lJ8FSOaWc3HCB3s41d17U1gWRpaB+rK+Y2lY07TZyzuAUShJYOqAutE0Nb1JHaZJ
QuVE6AVoRRBHrD+hQxcICeJOha0l0d7TDecXfG5X7qxsoMm77WVp0TaPOfFZebrI
MMF9vQK+RNi+LWAYb4E17Q/F/EhMR6DMZLFjY6mVJW5lHBu2n2BY06dryK/rBEjL
pMyXRauo+4ZAZA98Ciy2i1MXuTzvMKWw2ZikGP+Ou9aE13x1ME7DpPT6HhZtWQhe
oy+ntKYKybSk7MS4YoIrTt7kAy8Z7LQ=
-----END CERTIFICATE-----
