Certificate:
    Data:
        Version: 3 (0x2)
        Serial Number:
            31:be:6d:c6:92:97:99:9c:12:de:44:25:f3:2c:e6:1e
        Signature Algorithm: sha256WithRSAEncryption
        Issuer: CN=team32-net
        Validity
            Not Before: Apr 20 00:10:42 2023 GMT
            Not After : Apr  4 00:10:42 2026 GMT
        Subject: CN=team32-client
        Subject Public Key Info:
            Public Key Algorithm: rsaEncryption
                Public-Key: (2048 bit)
                Modulus:
                    00:ac:bc:32:4f:8a:8a:31:c6:87:60:4a:02:e9:b1:
                    15:bb:da:aa:10:1a:c5:9f:e7:50:be:d4:01:87:1b:
                    93:d3:9f:f3:a4:de:8e:45:91:e2:99:50:35:8f:cc:
                    e8:de:a7:7d:5a:fa:0c:c9:e9:89:c2:a8:b9:5b:d8:
                    67:66:8a:4c:cb:a6:05:2a:c6:33:52:6c:ea:84:8c:
                    fd:a8:4c:9a:b1:b0:f0:6d:79:c3:6a:75:a1:f1:98:
                    89:14:ba:e1:8e:ca:a7:14:0b:95:4a:7b:b2:28:be:
                    45:7b:e8:50:8f:e9:9b:37:d9:d9:38:1b:90:f4:3f:
                    d8:36:7c:32:a2:d6:d7:ec:31:7a:6e:e7:dc:9c:68:
                    24:a3:7b:72:e6:f9:67:c5:e7:2f:ba:af:c6:88:e5:
                    f0:c3:8c:fc:50:77:18:54:5a:e1:74:bd:de:5a:8a:
                    24:9c:9b:02:7a:65:52:f9:fc:39:9a:a9:43:d6:28:
                    17:f5:40:cb:bc:6e:6c:9a:34:e8:eb:93:e8:c3:12:
                    3a:a7:10:72:e4:b0:eb:92:fd:db:11:a9:80:9f:e6:
                    5b:c8:66:52:51:ad:cb:18:b9:e7:cc:2b:73:25:b9:
                    a4:da:1e:b4:07:2a:e0:9f:0e:71:b3:b8:a4:c7:03:
                    76:32:2f:72:68:a1:da:d8:e2:f0:8d:ae:3d:61:3f:
                    bb:c9
                Exponent: 65537 (0x10001)
        X509v3 extensions:
            X509v3 Basic Constraints: 
                CA:FALSE
            X509v3 Subject Key Identifier: 
                DB:BB:F5:2E:A5:B9:83:03:05:8A:2A:0F:DD:12:DA:68:2B:E7:C9:94
            X509v3 Authority Key Identifier: 
                keyid:C8:DA:1A:F1:EE:91:1A:D5:41:A1:F1:5C:82:36:B9:CF:7A:2D:CF:91
                DirName:/CN=team32-net
                serial:15:9F:A1:E4:7C:83:B9:76:7A:28:ED:82:2E:AC:4E:9D:5E:6B:2F:4E
            X509v3 Extended Key Usage: 
                TLS Web Client Authentication
            X509v3 Key Usage: 
                Digital Signature
    Signature Algorithm: sha256WithRSAEncryption
    Signature Value:
        2e:2c:7d:10:f6:79:19:3b:19:d4:c5:8a:1f:3f:56:64:d8:81:
        f3:94:18:f6:ee:dd:ce:e9:b5:73:bc:86:2f:62:92:b9:cf:d3:
        14:6b:c0:2f:f8:62:cb:e0:92:e1:0a:27:c9:41:ff:a6:c0:4c:
        bd:90:d3:ef:4e:e9:e5:c3:81:a3:d4:72:2a:5c:70:c0:1f:bf:
        67:ca:d0:51:73:b5:a2:c4:38:4c:db:34:90:2d:9c:cd:c6:ac:
        e6:0d:a5:9b:63:12:25:61:23:c6:63:e6:ed:09:35:94:85:e5:
        79:2d:16:51:28:13:20:8b:a0:ca:cd:a2:b3:8a:b1:82:68:e9:
        6f:82:6e:eb:44:e0:55:fe:16:9b:06:a9:b2:53:6e:3b:b6:2e:
        1f:cc:5c:83:ba:ff:52:31:eb:e8:e5:3e:d0:3d:fd:3e:5f:43:
        23:f0:92:24:1e:c2:e5:7d:cd:c5:7d:3b:06:67:14:9f:b1:09:
        c3:12:dc:d5:6e:f4:ee:c8:20:11:7b:c8:65:ac:d6:e2:f6:d0:
        c9:05:c9:46:8c:b8:59:90:3c:fd:de:dd:dc:3f:0f:2c:2d:c5:
        4e:60:5d:76:69:da:a6:fd:ca:c9:04:9d:8d:5c:ab:f6:12:00:
        4c:19:f3:3b:d4:58:72:2f:8d:57:33:d2:c6:e8:57:32:c2:80:
        12:2e:db:ab
-----BEGIN CERTIFICATE-----
MIIDWTCCAkGgAwIBAgIQMb5txpKXmZwS3kQl8yzmHjANBgkqhkiG9w0BAQsFADAV
MRMwEQYDVQQDDAp0ZWFtMzItbmV0MB4XDTIzMDQyMDAwMTA0MloXDTI2MDQwNDAw
MTA0MlowGDEWMBQGA1UEAwwNdGVhbTMyLWNsaWVudDCCASIwDQYJKoZIhvcNAQEB
BQADggEPADCCAQoCggEBAKy8Mk+KijHGh2BKAumxFbvaqhAaxZ/nUL7UAYcbk9Of
86TejkWR4plQNY/M6N6nfVr6DMnpicKouVvYZ2aKTMumBSrGM1Js6oSM/ahMmrGw
8G15w2p1ofGYiRS64Y7KpxQLlUp7sii+RXvoUI/pmzfZ2TgbkPQ/2DZ8MqLW1+wx
em7n3JxoJKN7cub5Z8XnL7qvxojl8MOM/FB3GFRa4XS93lqKJJybAnplUvn8OZqp
Q9YoF/VAy7xubJo06OuT6MMSOqcQcuSw65L92xGpgJ/mW8hmUlGtyxi558wrcyW5
pNoetAcq4J8OcbO4pMcDdjIvcmih2tji8I2uPWE/u8kCAwEAAaOBoTCBnjAJBgNV
HRMEAjAAMB0GA1UdDgQWBBTbu/UupbmDAwWKKg/dEtpoK+fJlDBQBgNVHSMESTBH
gBTI2hrx7pEa1UGh8VyCNrnPei3PkaEZpBcwFTETMBEGA1UEAwwKdGVhbTMyLW5l
dIIUFZ+h5HyDuXZ6KO2CLqxOnV5rL04wEwYDVR0lBAwwCgYIKwYBBQUHAwIwCwYD
VR0PBAQDAgeAMA0GCSqGSIb3DQEBCwUAA4IBAQAuLH0Q9nkZOxnUxYofP1Zk2IHz
lBj27t3O6bVzvIYvYpK5z9MUa8Av+GLL4JLhCifJQf+mwEy9kNPvTunlw4Gj1HIq
XHDAH79nytBRc7WixDhM2zSQLZzNxqzmDaWbYxIlYSPGY+btCTWUheV5LRZRKBMg
i6DKzaKzirGCaOlvgm7rROBV/habBqmyU247ti4fzFyDuv9SMevo5T7QPf0+X0Mj
8JIkHsLlfc3FfTsGZxSfsQnDEtzVbvTuyCARe8hlrNbi9tDJBclGjLhZkDz93t3c
Pw8sLcVOYF12adqm/crJBJ2NXKv2EgBMGfM71FhyL41XM9LG6FcywoASLtur
-----END CERTIFICATE-----
