Certificate:
    Data:
        Version: 3 (0x2)
        Serial Number:
            11:33:6c:98:86:4d:c2:1b:23:84:0a:88:44:ee:16:07
        Signature Algorithm: sha256WithRSAEncryption
        Issuer: CN=team4-net
        Validity
            Not Before: Apr 20 00:09:59 2023 GMT
            Not After : Apr  4 00:09:59 2026 GMT
        Subject: CN=team4-client
        Subject Public Key Info:
            Public Key Algorithm: rsaEncryption
                Public-Key: (2048 bit)
                Modulus:
                    00:f5:de:3f:ad:1c:83:60:8f:54:26:92:39:82:09:
                    11:7a:5d:af:a2:7e:55:b2:8d:75:2c:25:a8:1c:85:
                    53:52:f7:ef:0f:a6:e8:60:a2:b1:b8:36:1e:7f:d4:
                    07:fb:79:89:05:d4:91:d3:6c:ab:e4:29:6c:86:fc:
                    3e:e8:b8:59:2e:88:b1:5f:8f:c3:8a:03:4f:2e:03:
                    d4:e2:26:89:ff:fc:47:ce:d2:a0:6c:53:ac:4d:59:
                    f3:66:be:30:2d:0e:ff:29:06:d5:ec:cd:8e:f3:98:
                    b9:86:52:4e:cf:25:51:86:2a:b8:35:f9:c2:7f:2b:
                    f4:7b:2f:82:03:2e:b2:6b:e0:56:60:62:c8:2d:bf:
                    02:43:5a:53:fe:77:6d:c4:11:6a:ff:4d:15:c6:4c:
                    bf:7e:f2:b5:7e:67:ff:8a:b5:93:34:b6:22:5b:f8:
                    ec:55:e4:03:6d:77:f3:14:f4:91:41:88:ac:dd:eb:
                    f9:84:5c:7c:45:e2:27:41:f0:cc:da:aa:22:d6:fc:
                    fb:b3:b3:a1:5c:de:dc:e5:20:4a:79:d1:c5:ea:78:
                    d9:f8:dc:fa:b8:08:61:4f:b0:c2:ae:25:26:57:9d:
                    85:e7:91:4c:49:4d:4a:a2:c6:92:45:1c:36:80:c3:
                    e3:14:07:91:f7:8b:d6:f9:00:c7:fb:37:d4:dd:ca:
                    49:39
                Exponent: 65537 (0x10001)
        X509v3 extensions:
            X509v3 Basic Constraints: 
                CA:FALSE
            X509v3 Subject Key Identifier: 
                E9:72:28:64:86:69:A0:75:8E:8A:53:C1:18:53:3D:BA:77:B2:29:9E
            X509v3 Authority Key Identifier: 
                keyid:04:74:07:71:E5:B3:5A:20:83:E9:96:4C:EF:7C:45:6F:65:D5:A1:CF
                DirName:/CN=team4-net
                serial:64:F9:27:04:65:0F:79:F7:82:1E:01:76:BC:13:5A:6E:FE:94:AB:16
            X509v3 Extended Key Usage: 
                TLS Web Client Authentication
            X509v3 Key Usage: 
                Digital Signature
    Signature Algorithm: sha256WithRSAEncryption
    Signature Value:
        43:4c:34:f1:7b:71:9c:63:05:d8:11:ce:09:c5:e7:cd:1b:42:
        c1:9a:c1:7c:89:db:f3:2c:92:89:7a:15:b8:2a:1a:81:60:86:
        92:68:98:d1:9e:b6:d3:83:d0:7e:9c:8a:cc:8e:b1:15:a7:55:
        93:59:e8:d6:0f:59:d1:cf:6b:b1:a8:9e:8a:2a:7a:60:84:4e:
        23:01:ac:2b:7c:59:5d:ea:17:87:f6:66:00:7d:ae:a5:1a:89:
        ff:16:f1:62:e1:5d:5e:76:7b:db:ca:3c:c6:da:a6:7b:d1:38:
        d5:59:14:3b:07:eb:a0:90:d1:47:8d:92:ac:63:4a:97:fd:f0:
        8d:c4:fb:b2:02:70:2c:21:87:e9:85:8c:55:a3:7a:08:dc:3f:
        ad:c6:a6:18:1b:dc:cc:57:3a:79:6f:3b:40:f8:6d:96:11:31:
        f9:ec:ae:21:72:13:35:70:3d:13:7a:cb:33:bc:a1:b5:d1:4e:
        df:be:6f:33:92:15:90:15:2d:4b:61:06:d5:72:51:2e:ac:51:
        6f:a4:1d:27:2d:75:d7:f1:77:2b:c5:a3:21:e9:6e:6f:95:9d:
        32:d0:f3:44:ed:49:16:15:1c:25:22:70:be:19:dd:dc:7e:40:
        01:0d:15:d6:00:68:0d:0d:6d:d1:b0:6b:4c:5f:63:3f:c7:84:
        2c:d9:bf:4e
-----BEGIN CERTIFICATE-----
MIIDVjCCAj6gAwIBAgIQETNsmIZNwhsjhAqIRO4WBzANBgkqhkiG9w0BAQsFADAU
MRIwEAYDVQQDDAl0ZWFtNC1uZXQwHhcNMjMwNDIwMDAwOTU5WhcNMjYwNDA0MDAw
OTU5WjAXMRUwEwYDVQQDDAx0ZWFtNC1jbGllbnQwggEiMA0GCSqGSIb3DQEBAQUA
A4IBDwAwggEKAoIBAQD13j+tHINgj1QmkjmCCRF6Xa+iflWyjXUsJagchVNS9+8P
puhgorG4Nh5/1Af7eYkF1JHTbKvkKWyG/D7ouFkuiLFfj8OKA08uA9TiJon//EfO
0qBsU6xNWfNmvjAtDv8pBtXszY7zmLmGUk7PJVGGKrg1+cJ/K/R7L4IDLrJr4FZg
YsgtvwJDWlP+d23EEWr/TRXGTL9+8rV+Z/+KtZM0tiJb+OxV5ANtd/MU9JFBiKzd
6/mEXHxF4idB8MzaqiLW/Puzs6Fc3tzlIEp50cXqeNn43Pq4CGFPsMKuJSZXnYXn
kUxJTUqixpJFHDaAw+MUB5H3i9b5AMf7N9Tdykk5AgMBAAGjgaAwgZ0wCQYDVR0T
BAIwADAdBgNVHQ4EFgQU6XIoZIZpoHWOilPBGFM9uneyKZ4wTwYDVR0jBEgwRoAU
BHQHceWzWiCD6ZZM73xFb2XVoc+hGKQWMBQxEjAQBgNVBAMMCXRlYW00LW5ldIIU
ZPknBGUPefeCHgF2vBNabv6UqxYwEwYDVR0lBAwwCgYIKwYBBQUHAwIwCwYDVR0P
BAQDAgeAMA0GCSqGSIb3DQEBCwUAA4IBAQBDTDTxe3GcYwXYEc4JxefNG0LBmsF8
idvzLJKJehW4KhqBYIaSaJjRnrbTg9B+nIrMjrEVp1WTWejWD1nRz2uxqJ6KKnpg
hE4jAawrfFld6heH9mYAfa6lGon/FvFi4V1ednvbyjzG2qZ70TjVWRQ7B+ugkNFH
jZKsY0qX/fCNxPuyAnAsIYfphYxVo3oI3D+txqYYG9zMVzp5bztA+G2WETH57K4h
chM1cD0TesszvKG10U7fvm8zkhWQFS1LYQbVclEurFFvpB0nLXXX8XcrxaMh6W5v
lZ0y0PNE7UkWFRwlInC+Gd3cfkABDRXWAGgNDW3RsGtMX2M/x4Qs2b9O
-----END CERTIFICATE-----
