Certificate:
    Data:
        Version: 3 (0x2)
        Serial Number:
            9a:69:23:8d:3b:65:79:44:95:0a:cb:4b:a9:07:eb:7e
        Signature Algorithm: sha256WithRSAEncryption
        Issuer: CN=team4-net
        Validity
            Not Before: Apr 20 22:53:28 2023 GMT
            Not After : Apr  4 22:53:28 2026 GMT
        Subject: CN=team4-server
        Subject Public Key Info:
            Public Key Algorithm: rsaEncryption
                Public-Key: (2048 bit)
                Modulus:
                    00:ea:f7:4a:79:ae:60:64:1c:00:7d:95:3b:d2:31:
                    2d:76:ba:3f:bd:24:a5:9a:17:43:31:3f:6a:c1:c7:
                    95:1d:9c:c0:bc:9d:c5:c1:ba:6b:1b:92:e6:33:c4:
                    d4:56:e0:17:10:48:24:31:3e:25:dd:a5:51:e0:1e:
                    11:25:a9:0f:4a:67:b6:ce:61:d9:09:e3:35:da:88:
                    a3:80:be:2a:c8:ff:e8:8b:18:4c:df:f4:2d:15:d3:
                    bd:58:c1:85:e7:c1:bf:e5:e9:3c:35:f1:73:01:ff:
                    08:df:34:11:87:da:b4:5f:cf:fe:a9:f4:05:08:9d:
                    2f:1d:de:f4:e9:6a:b9:5e:b9:78:97:11:6e:81:fb:
                    b7:f9:ac:47:73:8c:4c:39:2a:6c:92:7a:20:68:59:
                    fd:58:00:73:a7:63:7c:7b:c8:35:ae:35:fa:44:10:
                    ae:e5:27:06:49:58:be:45:67:83:32:7f:e5:8d:11:
                    d5:fb:63:2a:9e:e2:11:eb:51:19:9e:14:52:07:bf:
                    36:f5:20:12:ea:29:8b:d1:67:dc:2d:22:d7:ed:a5:
                    79:53:65:05:99:71:ce:66:f2:bd:a8:84:d5:7c:a1:
                    4c:ea:77:45:dc:00:a2:7b:0c:81:a2:6b:c6:cd:08:
                    c5:94:3e:86:81:b3:a2:7a:f2:f1:ba:a4:70:a9:3c:
                    6e:63
                Exponent: 65537 (0x10001)
        X509v3 extensions:
            X509v3 Basic Constraints: 
                CA:FALSE
            X509v3 Subject Key Identifier: 
                6D:E1:26:EB:C2:2D:59:0F:C2:0B:3F:20:27:E2:16:6B:BF:10:B5:DA
            X509v3 Authority Key Identifier: 
                keyid:0D:56:AF:AD:D4:4C:6F:08:AD:81:78:88:01:9E:81:78:97:19:D9:36
                DirName:/CN=team4-net
                serial:7E:72:27:61:9A:59:73:B6:6B:FB:9A:2B:35:B0:D4:B6:DF:DE:B4:F3
            X509v3 Extended Key Usage: 
                TLS Web Server Authentication
            X509v3 Key Usage: 
                Digital Signature, Key Encipherment
            X509v3 Subject Alternative Name: 
                DNS:team4-server
    Signature Algorithm: sha256WithRSAEncryption
    Signature Value:
        54:23:6d:3b:0a:60:9c:d3:9c:15:a8:89:f9:ee:cb:f3:7b:cc:
        b6:8d:ba:57:4b:73:c2:6d:35:ed:98:da:83:6c:a8:63:f7:cd:
        9a:7e:22:0c:83:f0:73:ea:d6:72:8e:a8:89:44:5a:5b:a7:3d:
        08:34:dc:1c:9f:04:2c:75:18:ec:12:13:60:a9:46:09:21:b1:
        58:60:a3:68:5a:9b:d2:e8:ac:c6:1f:d1:07:6d:11:81:22:a8:
        7a:21:1a:6b:c4:de:d8:b3:5a:97:d7:df:31:b3:2f:f5:a8:ab:
        5b:9b:9a:f9:2c:8a:e2:5c:e0:ea:0a:a3:ce:9d:a3:f3:19:b0:
        cc:48:fa:e7:26:c6:a6:b1:58:29:97:0c:fb:c8:12:95:ea:50:
        3f:9c:35:3b:ab:2f:68:bc:80:bf:cd:e5:e9:72:27:f6:d9:91:
        74:32:52:31:8d:5e:f4:0d:79:d2:4c:9d:26:c8:a3:06:da:99:
        16:c7:f1:71:35:5c:a1:34:47:39:ad:91:85:2a:a1:45:d5:c5:
        65:2a:cf:cd:4c:07:bf:8a:99:64:4c:f3:a7:c9:f8:e3:6d:43:
        0b:a5:5a:76:e0:23:29:0f:2a:3d:0e:a5:a6:8c:4a:0a:62:fe:
        3b:ac:49:9a:3a:d6:15:83:6c:84:76:c2:2d:92:13:0e:74:1e:
        0d:70:3d:6f
-----BEGIN CERTIFICATE-----
MIIDcDCCAligAwIBAgIRAJppI407ZXlElQrLS6kH634wDQYJKoZIhvcNAQELBQAw
FDESMBAGA1UEAwwJdGVhbTQtbmV0MB4XDTIzMDQyMDIyNTMyOFoXDTI2MDQwNDIy
NTMyOFowFzEVMBMGA1UEAwwMdGVhbTQtc2VydmVyMIIBIjANBgkqhkiG9w0BAQEF
AAOCAQ8AMIIBCgKCAQEA6vdKea5gZBwAfZU70jEtdro/vSSlmhdDMT9qwceVHZzA
vJ3FwbprG5LmM8TUVuAXEEgkMT4l3aVR4B4RJakPSme2zmHZCeM12oijgL4qyP/o
ixhM3/QtFdO9WMGF58G/5ek8NfFzAf8I3zQRh9q0X8/+qfQFCJ0vHd706Wq5Xrl4
lxFugfu3+axHc4xMOSpsknogaFn9WABzp2N8e8g1rjX6RBCu5ScGSVi+RWeDMn/l
jRHV+2MqnuIR61EZnhRSB7829SAS6imL0WfcLSLX7aV5U2UFmXHOZvK9qITVfKFM
6ndF3ACiewyBomvGzQjFlD6GgbOievLxuqRwqTxuYwIDAQABo4G5MIG2MAkGA1Ud
EwQCMAAwHQYDVR0OBBYEFG3hJuvCLVkPwgs/ICfiFmu/ELXaME8GA1UdIwRIMEaA
FA1Wr63UTG8IrYF4iAGegXiXGdk2oRikFjAUMRIwEAYDVQQDDAl0ZWFtNC1uZXSC
FH5yJ2GaWXO2a/uaKzWw1Lbf3rTzMBMGA1UdJQQMMAoGCCsGAQUFBwMBMAsGA1Ud
DwQEAwIFoDAXBgNVHREEEDAOggx0ZWFtNC1zZXJ2ZXIwDQYJKoZIhvcNAQELBQAD
ggEBAFQjbTsKYJzTnBWoifnuy/N7zLaNuldLc8JtNe2Y2oNsqGP3zZp+IgyD8HPq
1nKOqIlEWlunPQg03ByfBCx1GOwSE2CpRgkhsVhgo2ham9LorMYf0QdtEYEiqHoh
GmvE3tizWpfX3zGzL/Woq1ubmvksiuJc4OoKo86do/MZsMxI+ucmxqaxWCmXDPvI
EpXqUD+cNTurL2i8gL/N5elyJ/bZkXQyUjGNXvQNedJMnSbIowbamRbH8XE1XKE0
RzmtkYUqoUXVxWUqz81MB7+KmWRM86fJ+ONtQwulWnbgIykPKj0OpaaMSgpi/jus
SZo61hWDbIR2wi2SEw50Hg1wPW8=
-----END CERTIFICATE-----
