Certificate:
    Data:
        Version: 3 (0x2)
        Serial Number:
            ab:2e:ce:08:77:58:8f:f8:2f:1f:4b:70:ef:73:42:3a
        Signature Algorithm: sha256WithRSAEncryption
        Issuer: CN=team4-net
        Validity
            Not Before: Apr 20 22:53:28 2023 GMT
            Not After : Apr  4 22:53:28 2026 GMT
        Subject: CN=team4-client
        Subject Public Key Info:
            Public Key Algorithm: rsaEncryption
                Public-Key: (2048 bit)
                Modulus:
                    00:ba:51:9f:69:62:1f:cc:6d:cb:c0:7c:7d:8b:7d:
                    73:e9:39:d7:a2:2b:93:e4:25:f0:bf:3c:95:d0:f9:
                    26:6e:0c:33:8c:e2:36:c3:bb:dc:b8:74:ea:73:cb:
                    4b:23:29:34:ba:5b:fa:57:b3:9c:9c:90:12:b1:f9:
                    38:12:18:a3:e7:9d:64:58:39:4d:dc:b1:e7:bb:8c:
                    ff:d4:f8:1f:42:b9:f3:68:b7:25:21:18:ac:27:22:
                    a6:20:dd:72:1a:46:88:6a:94:96:21:a9:d5:72:00:
                    71:ff:af:a1:90:bc:74:31:81:5a:cc:1c:63:dd:86:
                    bf:35:dc:a4:87:3f:a5:73:a3:24:84:48:04:38:18:
                    78:7a:e5:d5:c8:7b:59:e3:c0:48:06:c8:a2:91:27:
                    c5:3e:46:a8:b2:cf:ca:2e:7e:7e:91:74:4d:aa:e6:
                    81:e1:5f:2d:38:9c:8c:e4:e5:b4:10:80:9c:46:b2:
                    a7:49:bd:96:14:84:a4:21:57:04:b2:e8:3c:1c:26:
                    da:16:35:17:ae:f9:94:3a:c4:05:39:a3:36:58:08:
                    ed:50:8f:18:6f:3a:49:66:a1:8e:c2:b0:da:af:af:
                    d6:32:9f:ae:46:24:57:ef:3b:74:74:6e:f0:78:5e:
                    05:94:67:fa:01:2c:f1:15:97:82:b8:e9:6a:82:5e:
                    45:69
                Exponent: 65537 (0x10001)
        X509v3 extensions:
            X509v3 Basic Constraints: 
                CA:FALSE
            X509v3 Subject Key Identifier: 
                50:1A:6F:37:92:3D:BC:A3:5F:5F:0E:19:33:90:6E:BE:11:9E:98:ED
            X509v3 Authority Key Identifier: 
                keyid:0D:56:AF:AD:D4:4C:6F:08:AD:81:78:88:01:9E:81:78:97:19:D9:36
                DirName:/CN=team4-net
                serial:7E:72:27:61:9A:59:73:B6:6B:FB:9A:2B:35:B0:D4:B6:DF:DE:B4:F3
            X509v3 Extended Key Usage: 
                TLS Web Client Authentication
            X509v3 Key Usage: 
                Digital Signature
    Signature Algorithm: sha256WithRSAEncryption
    Signature Value:
        27:d6:2b:0d:57:e6:f4:44:b3:89:dd:0f:53:47:2e:a3:f6:fb:
        77:58:39:ab:01:c6:fb:fe:7e:0b:ca:d1:b9:1e:88:59:94:a1:
        df:53:dc:dc:51:70:fc:dd:b0:82:f7:28:67:3b:ef:6c:ee:10:
        13:07:8a:d9:8e:6e:98:94:11:bf:cc:f3:a4:6b:34:f9:50:83:
        11:74:ef:9e:90:db:1d:aa:f4:9d:64:15:fb:8d:c5:09:86:c7:
        9d:04:6a:f0:e9:da:0a:ea:32:0e:34:b0:69:1a:2e:d9:de:95:
        2a:ec:d1:d2:48:3e:57:83:c1:c7:83:62:42:d9:de:77:8e:84:
        6c:0a:8d:64:0e:82:18:21:02:83:df:10:45:bc:fa:60:19:f9:
        1d:d8:9d:7b:c4:5b:df:6b:3c:00:2b:1f:87:40:49:bc:00:a5:
        03:8c:56:c7:7c:c0:87:67:ff:b3:7c:5b:dc:48:36:ad:33:33:
        97:19:a7:1e:08:26:35:26:af:2a:15:04:00:e4:0b:24:2b:5a:
        80:9b:cb:5e:11:84:90:ab:cb:54:00:e8:61:fc:b5:f9:09:c5:
        83:fe:98:94:2a:bc:06:35:40:65:99:19:09:39:dc:4c:30:84:
        b9:5c:94:79:40:21:72:ca:4c:1b:65:60:7d:41:54:b3:c0:59:
        6b:c5:a7:52
-----BEGIN CERTIFICATE-----
MIIDVzCCAj+gAwIBAgIRAKsuzgh3WI/4Lx9LcO9zQjowDQYJKoZIhvcNAQELBQAw
FDESMBAGA1UEAwwJdGVhbTQtbmV0MB4XDTIzMDQyMDIyNTMyOFoXDTI2MDQwNDIy
NTMyOFowFzEVMBMGA1UEAwwMdGVhbTQtY2xpZW50MIIBIjANBgkqhkiG9w0BAQEF
AAOCAQ8AMIIBCgKCAQEAulGfaWIfzG3LwHx9i31z6TnXoiuT5CXwvzyV0Pkmbgwz
jOI2w7vcuHTqc8tLIyk0ulv6V7OcnJASsfk4Ehij551kWDlN3LHnu4z/1PgfQrnz
aLclIRisJyKmIN1yGkaIapSWIanVcgBx/6+hkLx0MYFazBxj3Ya/Ndykhz+lc6Mk
hEgEOBh4euXVyHtZ48BIBsiikSfFPkaoss/KLn5+kXRNquaB4V8tOJyM5OW0EICc
RrKnSb2WFISkIVcEsug8HCbaFjUXrvmUOsQFOaM2WAjtUI8YbzpJZqGOwrDar6/W
Mp+uRiRX7zt0dG7weF4FlGf6ASzxFZeCuOlqgl5FaQIDAQABo4GgMIGdMAkGA1Ud
EwQCMAAwHQYDVR0OBBYEFFAabzeSPbyjX18OGTOQbr4RnpjtME8GA1UdIwRIMEaA
FA1Wr63UTG8IrYF4iAGegXiXGdk2oRikFjAUMRIwEAYDVQQDDAl0ZWFtNC1uZXSC
FH5yJ2GaWXO2a/uaKzWw1Lbf3rTzMBMGA1UdJQQMMAoGCCsGAQUFBwMCMAsGA1Ud
DwQEAwIHgDANBgkqhkiG9w0BAQsFAAOCAQEAJ9YrDVfm9ESzid0PU0cuo/b7d1g5
qwHG+/5+C8rRuR6IWZSh31Pc3FFw/N2wgvcoZzvvbO4QEweK2Y5umJQRv8zzpGs0
+VCDEXTvnpDbHar0nWQV+43FCYbHnQRq8OnaCuoyDjSwaRou2d6VKuzR0kg+V4PB
x4NiQtned46EbAqNZA6CGCECg98QRbz6YBn5Hdide8Rb32s8ACsfh0BJvAClA4xW
x3zAh2f/s3xb3Eg2rTMzlxmnHggmNSavKhUEAOQLJCtagJvLXhGEkKvLVADoYfy1
+QnFg/6YlCq8BjVAZZkZCTncTDCEuVyUeUAhcspMG2VgfUFUs8BZa8WnUg==
-----END CERTIFICATE-----
