Certificate:
    Data:
        Version: 3 (0x2)
        Serial Number:
            68:7b:49:78:dc:21:7a:f0:54:ec:45:b0:84:2c:dc:5e
        Signature Algorithm: sha256WithRSAEncryption
        Issuer: CN=team3-net
        Validity
            Not Before: Apr 20 22:53:27 2023 GMT
            Not After : Apr  4 22:53:27 2026 GMT
        Subject: CN=team3-server
        Subject Public Key Info:
            Public Key Algorithm: rsaEncryption
                Public-Key: (2048 bit)
                Modulus:
                    00:bf:ee:ef:96:de:cc:d5:7e:89:cc:2b:b8:9a:09:
                    83:11:e5:82:de:ac:c0:c3:76:03:75:9d:1f:c1:68:
                    42:50:20:93:1a:fc:3d:14:89:97:12:ca:16:12:c8:
                    a2:44:96:b3:f8:c0:62:73:de:7a:b9:b6:2a:bc:ac:
                    01:00:44:6c:1f:34:e7:90:f2:2c:70:c8:e6:8e:d7:
                    54:b2:49:a6:f7:bb:4d:8f:24:f2:a3:a0:f4:53:f0:
                    4c:1a:e0:71:0d:b4:c5:a4:45:89:d6:b3:97:98:5b:
                    d7:e6:c5:de:5b:eb:cf:95:07:b2:2f:5b:c8:0d:f3:
                    a5:0b:f7:f3:6a:9e:4f:1e:96:2e:5e:55:3f:21:34:
                    53:f3:5c:69:b4:a7:b1:3c:07:0e:ae:40:05:34:c6:
                    79:8c:d2:e9:24:86:b2:5f:5e:91:c0:75:f8:f9:09:
                    aa:5a:2e:87:79:04:98:ed:1e:ec:02:35:cc:da:45:
                    b9:48:31:3e:3b:33:23:fe:0f:f2:f0:4c:f8:bb:86:
                    90:23:13:3e:87:5f:b1:f8:c6:06:fc:2c:30:a4:aa:
                    36:08:19:58:c3:89:8a:26:e6:dd:7e:1d:a8:55:b8:
                    96:78:21:1e:b1:9f:63:d3:24:f7:a3:6b:32:ba:7c:
                    fb:99:d4:a7:bf:65:bb:02:ba:6d:8a:e1:2a:18:d4:
                    39:21
                Exponent: 65537 (0x10001)
        X509v3 extensions:
            X509v3 Basic Constraints: 
                CA:FALSE
            X509v3 Subject Key Identifier: 
                27:F9:CC:64:49:A8:7E:D8:62:B8:3C:46:90:06:99:2A:58:9C:6D:D9
            X509v3 Authority Key Identifier: 
                keyid:FE:72:6D:BA:56:50:9C:8A:D1:CD:C4:CB:5C:D8:B6:00:B3:36:23:01
                DirName:/CN=team3-net
                serial:77:F2:14:F5:13:67:05:8D:7E:58:7E:F0:6E:20:10:B1:B1:41:69:D1
            X509v3 Extended Key Usage: 
                TLS Web Server Authentication
            X509v3 Key Usage: 
                Digital Signature, Key Encipherment
            X509v3 Subject Alternative Name: 
                DNS:team3-server
    Signature Algorithm: sha256WithRSAEncryption
    Signature Value:
        0f:f2:e9:bc:d1:23:0a:49:84:81:c6:72:d3:20:ce:66:14:0a:
        80:23:e6:27:da:4b:cd:e8:95:0f:a2:b3:ce:57:f7:8b:da:85:
        73:79:33:cd:1e:39:2c:46:66:31:08:18:0e:c2:03:78:d7:ce:
        48:4b:b1:9e:90:4c:9b:79:1b:4b:2b:fa:ca:ef:af:84:eb:ab:
        ab:e0:05:b0:e0:c0:b6:19:48:3d:51:62:68:d4:1e:d4:c4:cb:
        dc:c8:d4:c8:db:8d:0d:03:8a:95:f6:f6:13:19:21:3b:31:26:
        4c:8c:3a:7a:93:8a:7f:1c:f7:08:5c:97:63:b5:42:d6:17:83:
        ea:a8:fa:e0:06:a9:49:2b:69:ca:91:13:ea:ea:b7:e4:d7:6e:
        57:56:08:d8:fd:71:a5:98:77:50:be:28:62:53:a2:a1:f0:9b:
        32:4a:fc:86:96:95:ef:bc:d9:5d:e0:fc:ec:02:0e:cb:59:15:
        39:fa:98:b3:1f:4b:a0:fb:17:42:47:f2:64:7c:48:ef:f7:06:
        89:38:8f:42:7d:1a:9a:eb:3d:0f:14:e5:70:5f:5e:7a:4d:bf:
        07:3c:77:69:c6:ef:44:63:c4:20:8a:37:39:d2:4a:0b:a7:f9:
        2b:ec:2b:c9:ff:eb:2c:4b:81:0b:6f:45:79:fd:5c:a8:1e:fb:
        41:f2:b0:77
-----BEGIN CERTIFICATE-----
MIIDbzCCAlegAwIBAgIQaHtJeNwhevBU7EWwhCzcXjANBgkqhkiG9w0BAQsFADAU
MRIwEAYDVQQDDAl0ZWFtMy1uZXQwHhcNMjMwNDIwMjI1MzI3WhcNMjYwNDA0MjI1
MzI3WjAXMRUwEwYDVQQDDAx0ZWFtMy1zZXJ2ZXIwggEiMA0GCSqGSIb3DQEBAQUA
A4IBDwAwggEKAoIBAQC/7u+W3szVfonMK7iaCYMR5YLerMDDdgN1nR/BaEJQIJMa
/D0UiZcSyhYSyKJElrP4wGJz3nq5tiq8rAEARGwfNOeQ8ixwyOaO11SySab3u02P
JPKjoPRT8Ewa4HENtMWkRYnWs5eYW9fmxd5b68+VB7IvW8gN86UL9/Nqnk8eli5e
VT8hNFPzXGm0p7E8Bw6uQAU0xnmM0ukkhrJfXpHAdfj5CapaLod5BJjtHuwCNcza
RblIMT47MyP+D/LwTPi7hpAjEz6HX7H4xgb8LDCkqjYIGVjDiYom5t1+HahVuJZ4
IR6xn2PTJPejazK6fPuZ1Ke/ZbsCum2K4SoY1DkhAgMBAAGjgbkwgbYwCQYDVR0T
BAIwADAdBgNVHQ4EFgQUJ/nMZEmofthiuDxGkAaZKlicbdkwTwYDVR0jBEgwRoAU
/nJtulZQnIrRzcTLXNi2ALM2IwGhGKQWMBQxEjAQBgNVBAMMCXRlYW0zLW5ldIIU
d/IU9RNnBY1+WH7wbiAQsbFBadEwEwYDVR0lBAwwCgYIKwYBBQUHAwEwCwYDVR0P
BAQDAgWgMBcGA1UdEQQQMA6CDHRlYW0zLXNlcnZlcjANBgkqhkiG9w0BAQsFAAOC
AQEAD/LpvNEjCkmEgcZy0yDOZhQKgCPmJ9pLzeiVD6Kzzlf3i9qFc3kzzR45LEZm
MQgYDsIDeNfOSEuxnpBMm3kbSyv6yu+vhOurq+AFsODAthlIPVFiaNQe1MTL3MjU
yNuNDQOKlfb2ExkhOzEmTIw6epOKfxz3CFyXY7VC1heD6qj64AapSStpypET6uq3
5NduV1YI2P1xpZh3UL4oYlOiofCbMkr8hpaV77zZXeD87AIOy1kVOfqYsx9LoPsX
QkfyZHxI7/cGiTiPQn0amus9DxTlcF9eek2/Bzx3acbvRGPEIIo3OdJKC6f5K+wr
yf/rLEuBC29Fef1cqB77QfKwdw==
-----END CERTIFICATE-----
