Certificate:
    Data:
        Version: 3 (0x2)
        Serial Number:
            77:d9:12:86:a2:a2:a1:39:79:2d:9f:73:79:d2:1f:79
        Signature Algorithm: sha256WithRSAEncryption
        Issuer: CN=team3-net
        Validity
            Not Before: Apr 20 00:09:58 2023 GMT
            Not After : Apr  4 00:09:58 2026 GMT
        Subject: CN=team3-client
        Subject Public Key Info:
            Public Key Algorithm: rsaEncryption
                Public-Key: (2048 bit)
                Modulus:
                    00:96:59:54:8a:95:3d:ea:61:6d:a7:21:7f:19:6b:
                    ed:2a:40:8c:75:ec:4b:3d:c5:71:08:7a:8c:2b:6d:
                    0f:f3:fc:24:0e:7d:1b:d0:eb:7f:6e:9c:9d:0b:06:
                    42:3c:25:05:c5:d1:39:23:db:91:66:78:8c:06:cd:
                    2e:87:e7:3c:bf:3b:e4:77:55:b9:d3:92:43:93:db:
                    d6:0d:9d:da:15:64:c9:c9:a2:bd:53:8d:00:b5:b2:
                    30:df:da:ac:3d:21:d0:e8:bf:da:12:6b:40:c4:29:
                    23:fd:e1:44:d2:e1:49:6a:ff:4f:31:e6:57:09:aa:
                    c3:4d:7c:f6:ff:9d:60:44:19:88:bc:d1:00:0a:d0:
                    10:91:a4:a6:5f:ba:28:4f:a7:c4:2a:c7:a0:7a:4a:
                    cb:06:da:72:18:de:76:83:8f:97:31:34:ed:a4:75:
                    e1:98:5a:2d:c0:9f:14:e5:1d:80:d3:63:ae:7b:b3:
                    c8:70:a4:af:0c:d2:94:4c:a9:42:57:ad:eb:e2:56:
                    82:96:8e:65:ac:41:1c:ce:e7:c9:94:0b:6a:81:e7:
                    0a:20:d8:0f:48:50:ce:cd:46:08:f9:1e:1e:1b:21:
                    3c:be:6d:ab:a3:42:e8:1c:bc:f9:ea:61:be:8d:6d:
                    fb:ed:dc:bf:34:c0:6c:1c:55:95:29:bb:2a:df:b6:
                    42:5f
                Exponent: 65537 (0x10001)
        X509v3 extensions:
            X509v3 Basic Constraints: 
                CA:FALSE
            X509v3 Subject Key Identifier: 
                C1:6C:A1:63:E1:5E:BE:BE:AF:DD:17:CA:0D:EB:CA:7E:14:0A:74:E7
            X509v3 Authority Key Identifier: 
                keyid:05:29:1B:AD:38:D6:1A:31:46:B6:F6:5B:ED:99:25:B6:1B:12:51:4C
                DirName:/CN=team3-net
                serial:79:4D:08:60:64:41:D7:38:C3:A1:25:9E:4E:10:BF:28:0C:17:E5:45
            X509v3 Extended Key Usage: 
                TLS Web Client Authentication
            X509v3 Key Usage: 
                Digital Signature
    Signature Algorithm: sha256WithRSAEncryption
    Signature Value:
        4d:0a:eb:51:2b:9f:db:3b:4d:cb:94:0e:70:a0:c8:7a:d7:b8:
        dd:a2:bc:38:14:11:57:e8:2d:1b:67:ad:13:85:02:dd:fd:a1:
        3f:7a:7c:a0:0b:de:ca:60:a0:b6:4f:35:78:67:43:51:fb:fb:
        fb:d5:94:56:c5:72:6a:ea:0e:75:c6:d5:35:19:15:55:fd:b8:
        7c:4d:cd:b6:d1:81:13:62:ab:bd:c1:99:df:21:e5:12:80:17:
        79:20:67:5b:1f:8d:0d:2f:53:e8:c6:16:e7:d0:8d:cd:b7:3e:
        51:ac:18:36:8a:40:29:0a:35:ec:71:91:62:e6:81:6e:73:5a:
        f0:d3:85:b3:81:5a:ed:4d:0c:8c:37:0e:10:2f:e7:0a:31:b0:
        3f:fc:d7:69:f7:d9:73:15:ca:b7:ea:b3:35:da:1a:bb:f7:3f:
        d6:61:ac:00:89:ef:29:06:a5:db:15:eb:d9:db:bf:15:8c:63:
        ff:c7:ad:f1:54:18:63:ac:c6:a7:e4:f6:d9:13:8f:0a:0d:db:
        1d:3c:f9:69:5b:31:be:94:6a:5c:89:98:0f:57:7d:bf:ef:00:
        b1:e9:ae:13:1b:48:07:10:b3:62:6d:06:82:bb:93:72:13:b8:
        aa:08:58:29:9d:d2:5c:c8:a1:79:81:72:a5:26:bb:10:58:63:
        ab:c4:43:6c
-----BEGIN CERTIFICATE-----
MIIDVjCCAj6gAwIBAgIQd9kShqKioTl5LZ9zedIfeTANBgkqhkiG9w0BAQsFADAU
MRIwEAYDVQQDDAl0ZWFtMy1uZXQwHhcNMjMwNDIwMDAwOTU4WhcNMjYwNDA0MDAw
OTU4WjAXMRUwEwYDVQQDDAx0ZWFtMy1jbGllbnQwggEiMA0GCSqGSIb3DQEBAQUA
A4IBDwAwggEKAoIBAQCWWVSKlT3qYW2nIX8Za+0qQIx17Es9xXEIeowrbQ/z/CQO
fRvQ639unJ0LBkI8JQXF0Tkj25FmeIwGzS6H5zy/O+R3VbnTkkOT29YNndoVZMnJ
or1TjQC1sjDf2qw9IdDov9oSa0DEKSP94UTS4Ulq/08x5lcJqsNNfPb/nWBEGYi8
0QAK0BCRpKZfuihPp8Qqx6B6SssG2nIY3naDj5cxNO2kdeGYWi3AnxTlHYDTY657
s8hwpK8M0pRMqUJXreviVoKWjmWsQRzO58mUC2qB5wog2A9IUM7NRgj5Hh4bITy+
baujQugcvPnqYb6Nbfvt3L80wGwcVZUpuyrftkJfAgMBAAGjgaAwgZ0wCQYDVR0T
BAIwADAdBgNVHQ4EFgQUwWyhY+Fevr6v3RfKDevKfhQKdOcwTwYDVR0jBEgwRoAU
BSkbrTjWGjFGtvZb7ZklthsSUUyhGKQWMBQxEjAQBgNVBAMMCXRlYW0zLW5ldIIU
eU0IYGRB1zjDoSWeThC/KAwX5UUwEwYDVR0lBAwwCgYIKwYBBQUHAwIwCwYDVR0P
BAQDAgeAMA0GCSqGSIb3DQEBCwUAA4IBAQBNCutRK5/bO03LlA5woMh617jdorw4
FBFX6C0bZ60ThQLd/aE/enygC97KYKC2TzV4Z0NR+/v71ZRWxXJq6g51xtU1GRVV
/bh8Tc220YETYqu9wZnfIeUSgBd5IGdbH40NL1Poxhbn0I3Ntz5RrBg2ikApCjXs
cZFi5oFuc1rw04WzgVrtTQyMNw4QL+cKMbA//Ndp99lzFcq36rM12hq79z/WYawA
ie8pBqXbFevZ278VjGP/x63xVBhjrMan5PbZE48KDdsdPPlpWzG+lGpciZgPV32/
7wCx6a4TG0gHELNibQaCu5NyE7iqCFgpndJcyKF5gXKlJrsQWGOrxENs
-----END CERTIFICATE-----
