Certificate:
    Data:
        Version: 3 (0x2)
        Serial Number:
            cd:be:53:ac:9f:e9:b7:6a:6f:71:fb:fe:3c:12:b4:6e
        Signature Algorithm: sha256WithRSAEncryption
        Issuer: CN=team3-net
        Validity
            Not Before: Apr 20 00:09:58 2023 GMT
            Not After : Apr  4 00:09:58 2026 GMT
        Subject: CN=team3-server
        Subject Public Key Info:
            Public Key Algorithm: rsaEncryption
                Public-Key: (2048 bit)
                Modulus:
                    00:de:ae:54:da:90:cb:bb:1c:59:27:45:c2:01:4d:
                    81:29:aa:e0:39:02:9c:a4:d1:21:ce:e3:a1:21:68:
                    9d:30:76:d2:44:8c:1f:ce:95:b1:fd:da:13:04:ad:
                    e6:76:03:a3:bd:e1:cb:1d:f2:42:d4:39:27:84:06:
                    77:62:c9:21:07:b3:f6:71:1a:94:09:e1:16:5c:15:
                    06:c0:a9:d6:93:8d:90:33:09:cb:2f:51:9d:7e:b7:
                    6b:09:31:ce:d5:77:d3:85:38:e7:b0:62:d8:ed:f1:
                    3d:26:6b:71:68:a6:e7:be:f1:e1:8e:b4:c1:89:bf:
                    13:f9:6d:ed:83:31:ea:9a:c1:9e:d1:a0:ef:3a:b0:
                    ab:80:e6:f5:d3:77:76:f8:64:5e:eb:f1:d9:3d:f1:
                    91:31:a7:e9:22:dc:3f:0d:c3:88:2b:94:fb:5f:39:
                    5c:22:fc:bd:c9:4b:32:84:45:b5:9e:ad:41:5c:d9:
                    28:a8:fd:07:52:db:9f:fb:a2:ad:eb:59:53:44:7a:
                    9b:8b:6a:68:fe:74:65:30:0c:9c:26:32:d5:03:d4:
                    91:ab:5f:23:46:20:64:a4:9d:43:a7:2f:18:29:09:
                    de:ff:63:a2:df:5f:1f:7d:08:3e:28:87:da:bf:c1:
                    d7:e8:8f:e9:ae:62:32:56:ec:0f:13:13:ee:76:b9:
                    9e:77
                Exponent: 65537 (0x10001)
        X509v3 extensions:
            X509v3 Basic Constraints: 
                CA:FALSE
            X509v3 Subject Key Identifier: 
                E4:51:02:D9:B7:87:C1:C5:B1:91:AA:CD:25:A5:99:CB:70:69:31:09
            X509v3 Authority Key Identifier: 
                keyid:05:29:1B:AD:38:D6:1A:31:46:B6:F6:5B:ED:99:25:B6:1B:12:51:4C
                DirName:/CN=team3-net
                serial:79:4D:08:60:64:41:D7:38:C3:A1:25:9E:4E:10:BF:28:0C:17:E5:45
            X509v3 Extended Key Usage: 
                TLS Web Server Authentication
            X509v3 Key Usage: 
                Digital Signature, Key Encipherment
            X509v3 Subject Alternative Name: 
                DNS:team3-server
    Signature Algorithm: sha256WithRSAEncryption
    Signature Value:
        ae:6a:bb:56:21:47:03:b0:97:4d:d5:97:bd:47:45:ae:0d:84:
        04:fe:9a:fd:9e:4a:fd:90:4b:0b:2d:b0:83:f5:f2:23:64:bd:
        03:3e:0f:47:cb:93:35:08:b4:dd:96:43:b8:87:e6:d4:e7:d9:
        64:1a:b6:a5:c6:e7:62:68:ce:ca:64:f8:71:2f:d9:c8:cb:56:
        65:40:e5:e7:f3:e1:82:4a:53:f2:22:24:ab:af:61:c9:0e:6a:
        b7:87:44:30:11:48:8a:59:11:7e:dc:af:e8:22:9e:cd:5f:f8:
        28:c4:f1:65:ff:82:e3:85:f0:8f:2e:12:49:8e:cd:4d:6e:60:
        04:74:57:90:61:61:2b:d2:d6:ce:9d:cb:1a:75:45:df:26:26:
        fb:2e:ad:26:05:d7:12:0f:0a:78:d4:8d:56:39:b4:74:39:00:
        5b:7e:f7:a2:db:73:a8:ec:4a:c4:52:a6:19:ea:2c:db:71:71:
        17:14:8f:8e:26:2a:9b:30:42:2b:22:5f:45:22:7c:24:eb:3f:
        23:8f:bf:e6:62:b7:40:f1:6e:b3:4d:60:b9:23:c7:62:b0:e9:
        8c:e6:35:8d:0d:39:7f:74:17:fe:22:76:53:17:c0:84:33:a6:
        2f:ad:40:48:d5:8c:ae:de:ae:27:09:cb:a0:e3:d6:3e:a4:1e:
        45:b5:24:91
-----BEGIN CERTIFICATE-----
MIIDcDCCAligAwIBAgIRAM2+U6yf6bdqb3H7/jwStG4wDQYJKoZIhvcNAQELBQAw
FDESMBAGA1UEAwwJdGVhbTMtbmV0MB4XDTIzMDQyMDAwMDk1OFoXDTI2MDQwNDAw
MDk1OFowFzEVMBMGA1UEAwwMdGVhbTMtc2VydmVyMIIBIjANBgkqhkiG9w0BAQEF
AAOCAQ8AMIIBCgKCAQEA3q5U2pDLuxxZJ0XCAU2BKargOQKcpNEhzuOhIWidMHbS
RIwfzpWx/doTBK3mdgOjveHLHfJC1DknhAZ3YskhB7P2cRqUCeEWXBUGwKnWk42Q
MwnLL1GdfrdrCTHO1XfThTjnsGLY7fE9JmtxaKbnvvHhjrTBib8T+W3tgzHqmsGe
0aDvOrCrgOb103d2+GRe6/HZPfGRMafpItw/DcOIK5T7XzlcIvy9yUsyhEW1nq1B
XNkoqP0HUtuf+6Kt61lTRHqbi2po/nRlMAycJjLVA9SRq18jRiBkpJ1Dpy8YKQne
/2Oi318ffQg+KIfav8HX6I/prmIyVuwPExPudrmedwIDAQABo4G5MIG2MAkGA1Ud
EwQCMAAwHQYDVR0OBBYEFORRAtm3h8HFsZGqzSWlmctwaTEJME8GA1UdIwRIMEaA
FAUpG6041hoxRrb2W+2ZJbYbElFMoRikFjAUMRIwEAYDVQQDDAl0ZWFtMy1uZXSC
FHlNCGBkQdc4w6Elnk4QvygMF+VFMBMGA1UdJQQMMAoGCCsGAQUFBwMBMAsGA1Ud
DwQEAwIFoDAXBgNVHREEEDAOggx0ZWFtMy1zZXJ2ZXIwDQYJKoZIhvcNAQELBQAD
ggEBAK5qu1YhRwOwl03Vl71HRa4NhAT+mv2eSv2QSwstsIP18iNkvQM+D0fLkzUI
tN2WQ7iH5tTn2WQatqXG52Jozspk+HEv2cjLVmVA5efz4YJKU/IiJKuvYckOareH
RDARSIpZEX7cr+gins1f+CjE8WX/guOF8I8uEkmOzU1uYAR0V5BhYSvS1s6dyxp1
Rd8mJvsurSYF1xIPCnjUjVY5tHQ5AFt+96Lbc6jsSsRSphnqLNtxcRcUj44mKpsw
QisiX0UifCTrPyOPv+Zit0DxbrNNYLkjx2Kw6YzmNY0NOX90F/4idlMXwIQzpi+t
QEjVjK7ericJy6Dj1j6kHkW1JJE=
-----END CERTIFICATE-----
