Certificate:
    Data:
        Version: 3 (0x2)
        Serial Number:
            da:88:ba:a9:45:9b:fd:f0:4e:30:ae:d0:be:d0:f4:ee
        Signature Algorithm: sha256WithRSAEncryption
        Issuer: CN=team20-net
        Validity
            Not Before: Apr 20 00:10:24 2023 GMT
            Not After : Apr  4 00:10:24 2026 GMT
        Subject: CN=team20-client
        Subject Public Key Info:
            Public Key Algorithm: rsaEncryption
                Public-Key: (2048 bit)
                Modulus:
                    00:a4:af:39:a2:af:e6:08:25:b0:7e:ff:05:87:2b:
                    8b:7b:0d:cd:89:e6:2d:b8:06:ea:84:6b:9a:dc:14:
                    5c:5c:e6:90:21:97:ad:2b:8e:45:44:81:ba:7c:c5:
                    fc:80:51:d1:ca:0e:70:64:d4:14:c0:a8:9c:fb:f8:
                    4e:76:67:6c:b4:62:2d:2e:0d:58:98:6d:79:b2:96:
                    d2:77:de:09:e2:4a:92:f9:94:e9:70:43:84:af:f1:
                    91:37:83:ab:72:7f:2d:0d:01:d2:f3:5f:18:36:0b:
                    c9:2f:bf:93:75:df:61:55:14:b3:64:fc:c6:5a:cc:
                    1a:e1:06:77:40:8e:ad:f1:86:ac:30:26:d7:4e:88:
                    13:29:a6:e7:e8:b9:47:f3:d4:5e:50:04:1f:04:6c:
                    5f:85:f8:29:d2:1e:31:cb:04:0d:2d:ad:d1:9f:48:
                    e9:29:b2:b1:3e:4c:d4:96:79:79:a4:ba:34:22:05:
                    5a:05:2c:52:96:81:45:73:ff:cb:42:d8:70:0c:fc:
                    63:51:5f:4e:d5:aa:23:f9:8b:10:0a:f2:e8:33:f6:
                    d5:5c:e1:b3:b7:c4:40:c7:80:49:fc:b6:13:d8:64:
                    0f:8e:9b:3b:9f:5f:33:ce:eb:f5:c0:2f:a6:82:a8:
                    92:bb:ab:c8:87:54:87:3b:6e:65:72:ff:28:fb:49:
                    15:01
                Exponent: 65537 (0x10001)
        X509v3 extensions:
            X509v3 Basic Constraints: 
                CA:FALSE
            X509v3 Subject Key Identifier: 
                8B:F7:9B:E7:89:B0:01:C7:56:99:54:2F:4C:EE:0E:B8:23:84:FB:F1
            X509v3 Authority Key Identifier: 
                keyid:CD:B0:F5:E0:83:14:8F:2C:46:9B:46:90:8F:CE:7E:E3:C9:3C:31:F8
                DirName:/CN=team20-net
                serial:38:A2:BB:BB:FC:82:23:25:51:EE:1C:04:20:7D:3C:A9:4A:86:F4:88
            X509v3 Extended Key Usage: 
                TLS Web Client Authentication
            X509v3 Key Usage: 
                Digital Signature
    Signature Algorithm: sha256WithRSAEncryption
    Signature Value:
        de:9e:4c:0f:8e:a6:87:e3:6b:3a:aa:98:c5:0c:73:4c:7f:18:
        af:55:11:a7:5b:08:51:55:b7:f8:9b:08:41:32:7b:bf:28:72:
        3c:e6:8a:f9:b3:b2:71:fb:95:19:7b:d1:51:13:1d:37:8e:3e:
        f1:d8:3a:f9:f0:cf:c8:03:b7:83:20:33:00:16:ee:d6:2b:5c:
        1c:b9:1f:5a:2d:18:17:66:6c:38:18:43:ed:15:36:76:fe:46:
        4e:2c:34:d3:fb:3e:67:1c:77:fa:17:8e:d5:74:ea:34:fb:5b:
        e3:ee:22:1e:cc:af:be:e6:fa:a1:b7:eb:92:5a:ab:3e:07:60:
        6e:b2:48:0b:4a:08:fc:18:70:3e:89:8e:2c:f6:19:ac:e1:07:
        83:53:f0:0b:9c:ad:dd:4f:4e:09:27:4a:41:ad:1d:de:c1:09:
        f7:78:cc:8f:3d:d7:ba:ce:b8:64:f8:b5:b7:29:07:74:bf:0e:
        29:59:07:ba:61:8b:26:9a:49:6a:d7:85:e2:bb:13:20:7d:25:
        50:70:fb:6f:01:c6:aa:c2:25:a2:a2:b8:b4:f3:0c:65:b4:61:
        5d:a0:3d:5f:62:79:79:2d:5f:75:6a:f8:71:a1:cb:6b:4a:33:
        f4:7e:67:15:2d:5d:2d:bd:89:98:e9:65:3e:d4:82:80:74:b6:
        40:c7:2f:70
-----BEGIN CERTIFICATE-----
MIIDWjCCAkKgAwIBAgIRANqIuqlFm/3wTjCu0L7Q9O4wDQYJKoZIhvcNAQELBQAw
FTETMBEGA1UEAwwKdGVhbTIwLW5ldDAeFw0yMzA0MjAwMDEwMjRaFw0yNjA0MDQw
MDEwMjRaMBgxFjAUBgNVBAMMDXRlYW0yMC1jbGllbnQwggEiMA0GCSqGSIb3DQEB
AQUAA4IBDwAwggEKAoIBAQCkrzmir+YIJbB+/wWHK4t7Dc2J5i24BuqEa5rcFFxc
5pAhl60rjkVEgbp8xfyAUdHKDnBk1BTAqJz7+E52Z2y0Yi0uDViYbXmyltJ33gni
SpL5lOlwQ4Sv8ZE3g6tyfy0NAdLzXxg2C8kvv5N132FVFLNk/MZazBrhBndAjq3x
hqwwJtdOiBMppufouUfz1F5QBB8EbF+F+CnSHjHLBA0trdGfSOkpsrE+TNSWeXmk
ujQiBVoFLFKWgUVz/8tC2HAM/GNRX07VqiP5ixAK8ugz9tVc4bO3xEDHgEn8thPY
ZA+OmzufXzPO6/XAL6aCqJK7q8iHVIc7bmVy/yj7SRUBAgMBAAGjgaEwgZ4wCQYD
VR0TBAIwADAdBgNVHQ4EFgQUi/eb54mwAcdWmVQvTO4OuCOE+/EwUAYDVR0jBEkw
R4AUzbD14IMUjyxGm0aQj85+48k8MfihGaQXMBUxEzARBgNVBAMMCnRlYW0yMC1u
ZXSCFDiiu7v8giMlUe4cBCB9PKlKhvSIMBMGA1UdJQQMMAoGCCsGAQUFBwMCMAsG
A1UdDwQEAwIHgDANBgkqhkiG9w0BAQsFAAOCAQEA3p5MD46mh+NrOqqYxQxzTH8Y
r1URp1sIUVW3+JsIQTJ7vyhyPOaK+bOycfuVGXvRURMdN44+8dg6+fDPyAO3gyAz
ABbu1itcHLkfWi0YF2ZsOBhD7RU2dv5GTiw00/s+Zxx3+heO1XTqNPtb4+4iHsyv
vub6obfrklqrPgdgbrJIC0oI/BhwPomOLPYZrOEHg1PwC5yt3U9OCSdKQa0d3sEJ
93jMjz3Xus64ZPi1tykHdL8OKVkHumGLJppJateF4rsTIH0lUHD7bwHGqsIloqK4
tPMMZbRhXaA9X2J5eS1fdWr4caHLa0oz9H5nFS1dLb2JmOllPtSCgHS2QMcvcA==
-----END CERTIFICATE-----
