Certificate:
    Data:
        Version: 3 (0x2)
        Serial Number:
            e0:87:42:4c:09:2b:bb:81:d2:76:0e:5a:6a:7f:bb:61
        Signature Algorithm: sha256WithRSAEncryption
        Issuer: CN=team33-net
        Validity
            Not Before: Apr 20 00:10:43 2023 GMT
            Not After : Apr  4 00:10:43 2026 GMT
        Subject: CN=team33-client
        Subject Public Key Info:
            Public Key Algorithm: rsaEncryption
                Public-Key: (2048 bit)
                Modulus:
                    00:d3:a8:0d:8e:6c:2c:ae:e1:81:a4:46:27:5e:45:
                    24:6e:5e:a6:4a:b7:b7:7d:48:ab:ba:65:56:f5:cd:
                    a7:8b:f2:b1:d2:e9:08:2e:e3:3a:ca:f6:27:c2:73:
                    26:ee:75:7c:fd:42:ad:a9:96:56:71:cf:b5:09:5c:
                    7c:0e:04:50:1b:63:88:ad:72:0f:5f:d6:ed:de:b5:
                    45:16:be:14:21:95:62:67:bd:9b:d6:08:8d:b2:23:
                    c5:49:0b:6f:40:fc:fc:bc:03:aa:a8:64:02:76:09:
                    b8:de:56:1a:86:d4:75:97:09:76:93:36:fe:fc:3f:
                    aa:5b:2d:cd:79:e4:35:f2:d9:4e:0c:3a:81:e7:ef:
                    c0:01:fa:3a:6c:67:ef:fd:0f:47:22:50:ea:41:2f:
                    ea:ee:a6:31:bf:c6:09:46:b5:bd:bf:0f:2c:bf:59:
                    e1:e5:e6:f6:bf:f3:a4:9e:13:03:52:ba:0f:57:21:
                    81:48:bc:6e:32:a6:fc:40:7b:cd:1e:52:02:3d:88:
                    79:cb:56:72:99:d2:cf:8d:6e:59:f6:52:62:03:61:
                    f4:33:91:b2:8a:10:07:d9:fc:10:3b:c0:84:b7:1c:
                    41:88:76:94:ec:d5:67:4b:28:4f:b6:63:99:67:0d:
                    b4:52:a2:3c:db:9b:1e:68:fc:27:d4:92:0e:03:83:
                    63:01
                Exponent: 65537 (0x10001)
        X509v3 extensions:
            X509v3 Basic Constraints: 
                CA:FALSE
            X509v3 Subject Key Identifier: 
                BD:18:F1:9B:5B:10:78:EF:AB:56:C6:56:80:8B:F2:49:F9:44:14:97
            X509v3 Authority Key Identifier: 
                keyid:9C:AF:3C:22:EA:93:FB:2D:40:14:7C:05:D1:F7:4A:96:D4:66:54:3C
                DirName:/CN=team33-net
                serial:47:8C:0E:8C:E8:6A:E4:A9:C1:F0:0C:18:C7:D0:44:D1:72:F5:09:6B
            X509v3 Extended Key Usage: 
                TLS Web Client Authentication
            X509v3 Key Usage: 
                Digital Signature
    Signature Algorithm: sha256WithRSAEncryption
    Signature Value:
        a9:ae:4a:80:a4:9f:de:89:48:e4:99:3f:bf:e9:92:99:b0:47:
        6b:c8:27:e2:76:71:ab:84:48:3a:d2:a5:f9:11:9f:23:00:c4:
        df:2b:58:e8:65:da:95:43:fb:92:8f:4f:0e:4c:b5:9e:b6:44:
        8e:d5:81:73:60:70:c3:45:d7:bb:96:60:62:2e:51:5c:58:0e:
        ab:3c:44:04:e0:34:a2:1a:0a:49:d6:e5:2f:30:59:2f:53:e2:
        b3:e2:7e:c8:40:9c:f8:7b:40:cb:07:88:4c:df:5c:5b:a3:0f:
        97:34:f2:04:d6:33:c2:e4:21:0b:a9:36:5e:ea:52:07:57:c4:
        08:84:59:d5:08:84:5a:56:44:81:36:bb:c8:17:2e:99:af:65:
        e3:28:2f:8f:98:de:76:62:14:7f:62:8a:74:92:1b:12:87:4e:
        e8:74:6a:d7:db:ed:4d:be:a7:9e:68:fc:39:f8:03:f4:bd:d7:
        d7:4e:e0:6f:ec:72:82:75:04:3c:ce:6c:48:46:9e:c8:1c:0a:
        ff:d0:09:f8:d2:03:c1:36:c9:bd:c5:61:b6:cf:25:47:1b:ee:
        fb:32:79:0a:4e:5c:a8:8b:cb:46:4a:f3:0c:7a:19:2a:33:5a:
        c8:36:15:aa:f3:ed:88:f6:1a:bf:36:f2:76:d2:5d:5b:7e:97:
        e5:58:7e:28
-----BEGIN CERTIFICATE-----
MIIDWjCCAkKgAwIBAgIRAOCHQkwJK7uB0nYOWmp/u2EwDQYJKoZIhvcNAQELBQAw
FTETMBEGA1UEAwwKdGVhbTMzLW5ldDAeFw0yMzA0MjAwMDEwNDNaFw0yNjA0MDQw
MDEwNDNaMBgxFjAUBgNVBAMMDXRlYW0zMy1jbGllbnQwggEiMA0GCSqGSIb3DQEB
AQUAA4IBDwAwggEKAoIBAQDTqA2ObCyu4YGkRideRSRuXqZKt7d9SKu6ZVb1zaeL
8rHS6Qgu4zrK9ifCcybudXz9Qq2pllZxz7UJXHwOBFAbY4itcg9f1u3etUUWvhQh
lWJnvZvWCI2yI8VJC29A/Py8A6qoZAJ2CbjeVhqG1HWXCXaTNv78P6pbLc155DXy
2U4MOoHn78AB+jpsZ+/9D0ciUOpBL+rupjG/xglGtb2/Dyy/WeHl5va/86SeEwNS
ug9XIYFIvG4ypvxAe80eUgI9iHnLVnKZ0s+Nbln2UmIDYfQzkbKKEAfZ/BA7wIS3
HEGIdpTs1WdLKE+2Y5lnDbRSojzbmx5o/CfUkg4Dg2MBAgMBAAGjgaEwgZ4wCQYD
VR0TBAIwADAdBgNVHQ4EFgQUvRjxm1sQeO+rVsZWgIvySflEFJcwUAYDVR0jBEkw
R4AUnK88IuqT+y1AFHwF0fdKltRmVDyhGaQXMBUxEzARBgNVBAMMCnRlYW0zMy1u
ZXSCFEeMDozoauSpwfAMGMfQRNFy9QlrMBMGA1UdJQQMMAoGCCsGAQUFBwMCMAsG
A1UdDwQEAwIHgDANBgkqhkiG9w0BAQsFAAOCAQEAqa5KgKSf3olI5Jk/v+mSmbBH
a8gn4nZxq4RIOtKl+RGfIwDE3ytY6GXalUP7ko9PDky1nrZEjtWBc2Bww0XXu5Zg
Yi5RXFgOqzxEBOA0ohoKSdblLzBZL1Pis+J+yECc+HtAyweITN9cW6MPlzTyBNYz
wuQhC6k2XupSB1fECIRZ1QiEWlZEgTa7yBcuma9l4ygvj5jedmIUf2KKdJIbEodO
6HRq19vtTb6nnmj8OfgD9L3X107gb+xygnUEPM5sSEaeyBwK/9AJ+NIDwTbJvcVh
ts8lRxvu+zJ5Ck5cqIvLRkrzDHoZKjNayDYVqvPtiPYavzbydtJdW36X5Vh+KA==
-----END CERTIFICATE-----
