Certificate:
    Data:
        Version: 3 (0x2)
        Serial Number:
            2c:80:f5:f4:e9:36:5a:25:13:95:7a:e0:c1:00:a0:86
        Signature Algorithm: sha256WithRSAEncryption
        Issuer: CN=team49-net
        Validity
            Not Before: Apr 20 22:54:41 2023 GMT
            Not After : Apr  4 22:54:41 2026 GMT
        Subject: CN=team49-client
        Subject Public Key Info:
            Public Key Algorithm: rsaEncryption
                Public-Key: (2048 bit)
                Modulus:
                    00:d0:e2:5b:62:83:f7:6a:06:51:93:6e:35:81:73:
                    dc:e0:63:48:72:dc:3e:38:9d:c4:49:12:57:9d:18:
                    07:fb:01:5b:dd:8b:a9:18:9c:43:8e:b4:51:3a:ec:
                    fd:7a:14:9f:58:ad:21:a1:5d:d4:d2:a6:94:4a:01:
                    e2:5f:41:50:af:9e:56:ad:ad:1b:66:54:01:65:eb:
                    cb:19:1a:5e:25:a7:a2:60:76:d7:9e:65:31:9b:92:
                    e0:54:3d:43:5a:94:a1:a6:0b:99:0c:04:7b:95:25:
                    ae:79:6e:f9:0c:47:df:c5:d5:99:a1:53:39:d6:7c:
                    fc:be:37:f7:0c:dc:30:ea:41:a7:2f:8f:b1:93:9b:
                    71:81:1f:4e:36:10:8c:0b:24:3a:87:3c:b9:e7:14:
                    de:0a:61:1e:ed:36:a7:99:be:7d:96:bb:33:41:e2:
                    80:c4:15:a4:f4:50:f4:a1:6f:32:57:81:0f:37:63:
                    07:28:fe:5c:d5:c6:2a:76:21:a9:ef:db:5e:08:0b:
                    11:96:41:dd:40:eb:e8:71:7e:cf:a1:5e:8b:43:e5:
                    70:b5:a8:3b:50:4f:19:f8:49:f9:48:ac:b6:00:51:
                    8e:ec:16:5f:39:24:90:4e:3f:41:6b:46:3a:e2:f7:
                    29:fc:5f:66:e9:8b:28:9a:1d:0f:c1:d6:27:08:97:
                    67:3b
                Exponent: 65537 (0x10001)
        X509v3 extensions:
            X509v3 Basic Constraints: 
                CA:FALSE
            X509v3 Subject Key Identifier: 
                A5:91:DA:0D:70:72:92:15:B7:7B:3C:20:FF:75:AB:14:6B:00:67:42
            X509v3 Authority Key Identifier: 
                keyid:60:2A:32:49:84:3A:6A:13:11:25:B4:10:CB:CF:74:76:7C:42:AD:6B
                DirName:/CN=team49-net
                serial:5F:86:B6:79:E2:56:14:DE:61:A4:DF:DE:A7:2E:5C:DA:1B:FC:92:EA
            X509v3 Extended Key Usage: 
                TLS Web Client Authentication
            X509v3 Key Usage: 
                Digital Signature
    Signature Algorithm: sha256WithRSAEncryption
    Signature Value:
        75:4e:55:ad:71:e3:54:96:66:3a:68:3c:b6:14:38:8b:72:53:
        84:80:4f:66:c0:40:4f:3f:97:e0:91:b7:a4:34:7c:23:05:a4:
        d4:05:e6:9c:ad:13:fb:e9:56:2f:82:88:c4:1a:69:30:05:3b:
        c7:cf:9d:dd:2c:f0:8b:66:0c:af:78:19:df:73:db:78:30:dc:
        b0:a2:a8:bf:17:14:60:28:fb:08:6c:7d:45:a5:d4:5f:59:7c:
        da:6c:44:17:da:85:e0:25:f1:34:24:01:c1:8c:9b:f0:1e:9d:
        14:18:a6:5d:bf:e8:81:28:6b:35:cf:ff:89:2b:c9:06:e4:32:
        51:b4:a6:6c:3b:28:91:51:11:79:e6:28:e2:f9:9b:35:66:a1:
        46:ec:9d:e9:76:00:8d:cb:22:b7:b4:0f:05:bd:48:85:3c:49:
        82:8c:89:ba:ff:87:1d:83:4d:a0:cb:ff:2b:4f:f2:a8:72:29:
        ea:de:78:e4:70:0a:48:a2:1a:90:73:dd:34:f9:0e:4b:c4:43:
        b8:bc:85:20:23:af:50:d3:92:ec:49:03:86:3a:02:39:78:0e:
        f1:cb:16:be:80:c9:d9:93:a9:2f:42:8e:b7:f9:05:d7:14:cb:
        cd:55:ba:04:0d:e5:46:d7:d6:74:e9:98:c6:ed:92:d0:82:fd:
        26:ca:fe:fd
-----BEGIN CERTIFICATE-----
MIIDWTCCAkGgAwIBAgIQLID19Ok2WiUTlXrgwQCghjANBgkqhkiG9w0BAQsFADAV
MRMwEQYDVQQDDAp0ZWFtNDktbmV0MB4XDTIzMDQyMDIyNTQ0MVoXDTI2MDQwNDIy
NTQ0MVowGDEWMBQGA1UEAwwNdGVhbTQ5LWNsaWVudDCCASIwDQYJKoZIhvcNAQEB
BQADggEPADCCAQoCggEBANDiW2KD92oGUZNuNYFz3OBjSHLcPjidxEkSV50YB/sB
W92LqRicQ460UTrs/XoUn1itIaFd1NKmlEoB4l9BUK+eVq2tG2ZUAWXryxkaXiWn
omB2155lMZuS4FQ9Q1qUoaYLmQwEe5Ulrnlu+QxH38XVmaFTOdZ8/L439wzcMOpB
py+PsZObcYEfTjYQjAskOoc8uecU3gphHu02p5m+fZa7M0HigMQVpPRQ9KFvMleB
DzdjByj+XNXGKnYhqe/bXggLEZZB3UDr6HF+z6Fei0PlcLWoO1BPGfhJ+UistgBR
juwWXzkkkE4/QWtGOuL3KfxfZumLKJodD8HWJwiXZzsCAwEAAaOBoTCBnjAJBgNV
HRMEAjAAMB0GA1UdDgQWBBSlkdoNcHKSFbd7PCD/dasUawBnQjBQBgNVHSMESTBH
gBRgKjJJhDpqExEltBDLz3R2fEKta6EZpBcwFTETMBEGA1UEAwwKdGVhbTQ5LW5l
dIIUX4a2eeJWFN5hpN/epy5c2hv8kuowEwYDVR0lBAwwCgYIKwYBBQUHAwIwCwYD
VR0PBAQDAgeAMA0GCSqGSIb3DQEBCwUAA4IBAQB1TlWtceNUlmY6aDy2FDiLclOE
gE9mwEBPP5fgkbekNHwjBaTUBeacrRP76VYvgojEGmkwBTvHz53dLPCLZgyveBnf
c9t4MNywoqi/FxRgKPsIbH1FpdRfWXzabEQX2oXgJfE0JAHBjJvwHp0UGKZdv+iB
KGs1z/+JK8kG5DJRtKZsOyiRURF55iji+Zs1ZqFG7J3pdgCNyyK3tA8FvUiFPEmC
jIm6/4cdg02gy/8rT/Kocinq3njkcApIohqQc900+Q5LxEO4vIUgI69Q05LsSQOG
OgI5eA7xyxa+gMnZk6kvQo63+QXXFMvNVboEDeVG19Z06ZjG7ZLQgv0myv79
-----END CERTIFICATE-----
