Certificate:
    Data:
        Version: 3 (0x2)
        Serial Number:
            58:1a:39:ae:a5:f7:30:44:14:f5:62:08:78:de:3f:8f
        Signature Algorithm: sha256WithRSAEncryption
        Issuer: CN=team49-net
        Validity
            Not Before: Apr 20 00:11:05 2023 GMT
            Not After : Apr  4 00:11:05 2026 GMT
        Subject: CN=team49-client
        Subject Public Key Info:
            Public Key Algorithm: rsaEncryption
                Public-Key: (2048 bit)
                Modulus:
                    00:b6:05:fc:88:da:de:27:62:6a:06:e1:0a:be:d5:
                    e5:05:0f:a3:d6:c8:bf:af:73:c9:94:6b:22:a9:db:
                    36:23:9a:f9:bc:29:06:95:1d:59:22:1a:44:52:2a:
                    e7:33:3c:08:29:28:cc:cd:18:8e:9f:94:74:7a:cd:
                    3d:00:73:fa:80:b8:02:5b:5d:77:68:ce:65:ce:06:
                    55:a3:be:51:eb:37:a0:88:29:d9:af:7f:17:cf:e2:
                    ff:78:20:6e:7c:61:f9:f5:de:27:b7:a3:b3:b4:e5:
                    eb:77:35:e2:45:fa:75:5d:37:b5:db:cd:be:20:ab:
                    fd:e2:20:ad:2b:1f:54:ab:06:e2:2c:13:15:57:b2:
                    23:5c:f6:2c:fe:a2:f7:fe:5a:7d:01:db:b8:19:79:
                    43:0b:11:27:39:78:28:b9:c9:da:9f:0f:6d:c3:0e:
                    e4:50:a0:bd:ab:85:6a:c4:de:ac:a6:59:bd:26:49:
                    9a:28:1c:09:a9:d7:1f:0e:b9:18:fd:12:60:f9:7e:
                    5f:ad:d2:0b:33:d0:4e:4a:be:95:a5:2a:b9:15:62:
                    ff:eb:19:42:90:a8:b7:66:b2:af:82:d7:04:5b:cb:
                    84:3d:52:ac:9a:f4:2f:4a:e3:69:27:dd:f4:94:b5:
                    21:44:58:c1:72:50:6c:c5:20:68:3c:2f:d9:c4:6e:
                    82:91
                Exponent: 65537 (0x10001)
        X509v3 extensions:
            X509v3 Basic Constraints: 
                CA:FALSE
            X509v3 Subject Key Identifier: 
                A2:3E:ED:74:E2:74:49:8C:39:74:71:80:50:95:8E:ED:2B:ED:C9:81
            X509v3 Authority Key Identifier: 
                keyid:41:FB:50:A1:DD:0A:78:15:55:8C:3C:0D:E0:01:D2:21:A5:36:BE:70
                DirName:/CN=team49-net
                serial:59:D7:1B:3D:D1:E3:C1:19:49:81:C4:30:FD:A5:6E:8E:BD:39:42:E6
            X509v3 Extended Key Usage: 
                TLS Web Client Authentication
            X509v3 Key Usage: 
                Digital Signature
    Signature Algorithm: sha256WithRSAEncryption
    Signature Value:
        34:66:98:26:01:c1:52:39:b4:47:81:51:6f:da:af:8e:69:1c:
        fe:5e:21:ea:f6:15:57:d3:20:24:66:e5:df:95:1d:a3:a8:82:
        2e:e7:01:ad:60:98:f3:30:a5:42:f0:4c:c3:7c:3b:9b:5e:d4:
        e8:b3:f4:02:22:5f:9e:43:7a:b3:9f:b4:b8:d3:d8:4b:ca:59:
        45:05:b5:60:98:00:4b:85:71:7c:b4:c8:f2:b0:95:a0:cf:68:
        58:94:1e:ef:4e:73:03:97:49:33:4f:da:e1:9e:31:81:3b:3e:
        07:bd:0c:38:76:0f:2e:eb:bc:d4:dc:d4:24:d8:01:56:e9:ef:
        78:e0:ce:4e:7b:aa:2b:2f:77:c6:e2:8d:44:e6:3e:5b:71:41:
        29:1c:e2:a4:5e:59:4a:10:a6:fe:d1:9f:8d:4e:00:62:eb:36:
        d5:1b:7f:e8:d8:85:38:76:1e:20:ca:56:59:42:0a:8a:59:d2:
        e3:bc:3b:97:2c:6f:85:6f:28:5d:c0:41:b7:b7:a9:88:dd:32:
        c3:1f:59:3c:3f:03:06:ee:51:0e:28:54:d1:c8:32:0e:1b:21:
        3c:39:44:34:87:59:dd:33:ca:95:1c:19:21:71:0c:6c:cf:c3:
        09:cf:c1:5c:16:2c:50:09:e0:c9:70:49:ce:96:40:2d:33:1e:
        19:82:1f:f4
-----BEGIN CERTIFICATE-----
MIIDWTCCAkGgAwIBAgIQWBo5rqX3MEQU9WIIeN4/jzANBgkqhkiG9w0BAQsFADAV
MRMwEQYDVQQDDAp0ZWFtNDktbmV0MB4XDTIzMDQyMDAwMTEwNVoXDTI2MDQwNDAw
MTEwNVowGDEWMBQGA1UEAwwNdGVhbTQ5LWNsaWVudDCCASIwDQYJKoZIhvcNAQEB
BQADggEPADCCAQoCggEBALYF/Ija3idiagbhCr7V5QUPo9bIv69zyZRrIqnbNiOa
+bwpBpUdWSIaRFIq5zM8CCkozM0Yjp+UdHrNPQBz+oC4Altdd2jOZc4GVaO+Ues3
oIgp2a9/F8/i/3ggbnxh+fXeJ7ejs7Tl63c14kX6dV03tdvNviCr/eIgrSsfVKsG
4iwTFVeyI1z2LP6i9/5afQHbuBl5QwsRJzl4KLnJ2p8PbcMO5FCgvauFasTerKZZ
vSZJmigcCanXHw65GP0SYPl+X63SCzPQTkq+laUquRVi/+sZQpCot2ayr4LXBFvL
hD1SrJr0L0rjaSfd9JS1IURYwXJQbMUgaDwv2cRugpECAwEAAaOBoTCBnjAJBgNV
HRMEAjAAMB0GA1UdDgQWBBSiPu104nRJjDl0cYBQlY7tK+3JgTBQBgNVHSMESTBH
gBRB+1Ch3Qp4FVWMPA3gAdIhpTa+cKEZpBcwFTETMBEGA1UEAwwKdGVhbTQ5LW5l
dIIUWdcbPdHjwRlJgcQw/aVujr05QuYwEwYDVR0lBAwwCgYIKwYBBQUHAwIwCwYD
VR0PBAQDAgeAMA0GCSqGSIb3DQEBCwUAA4IBAQA0ZpgmAcFSObRHgVFv2q+OaRz+
XiHq9hVX0yAkZuXflR2jqIIu5wGtYJjzMKVC8EzDfDubXtTos/QCIl+eQ3qzn7S4
09hLyllFBbVgmABLhXF8tMjysJWgz2hYlB7vTnMDl0kzT9rhnjGBOz4HvQw4dg8u
67zU3NQk2AFW6e944M5Oe6orL3fG4o1E5j5bcUEpHOKkXllKEKb+0Z+NTgBi6zbV
G3/o2IU4dh4gylZZQgqKWdLjvDuXLG+FbyhdwEG3t6mI3TLDH1k8PwMG7lEOKFTR
yDIOGyE8OUQ0h1ndM8qVHBkhcQxsz8MJz8FcFixQCeDJcEnOlkAtMx4Zgh/0
-----END CERTIFICATE-----
