Certificate:
    Data:
        Version: 3 (0x2)
        Serial Number:
            67:19:ea:2f:95:ea:b2:dc:61:57:97:23:2f:f5:03:ff
        Signature Algorithm: sha256WithRSAEncryption
        Issuer: CN=team49-net
        Validity
            Not Before: Apr 20 00:11:05 2023 GMT
            Not After : Apr  4 00:11:05 2026 GMT
        Subject: CN=team49-server
        Subject Public Key Info:
            Public Key Algorithm: rsaEncryption
                Public-Key: (2048 bit)
                Modulus:
                    00:de:d5:33:4e:9a:44:3b:75:fe:81:d4:3f:a5:c6:
                    b5:d0:6f:de:23:01:fc:9b:ef:53:76:38:ac:79:5f:
                    eb:5b:6c:c5:f4:7e:98:62:92:b2:97:e4:e2:22:69:
                    50:99:fa:7c:6c:c4:4b:62:15:04:2f:e6:0f:43:85:
                    6f:83:16:f9:b7:d4:58:f2:9c:07:b3:5b:a3:53:00:
                    aa:87:31:65:82:ee:09:88:fb:95:e5:1b:62:fd:a4:
                    5e:5a:7b:dc:b5:7d:52:6c:40:da:4e:ef:b2:39:ab:
                    67:41:9c:a0:3e:8c:17:32:66:84:67:be:23:aa:12:
                    c9:db:98:63:c1:e3:ab:4c:0e:a2:f9:01:e3:56:73:
                    94:63:82:32:ba:ec:ab:55:05:51:a7:97:31:0d:b4:
                    eb:c9:1b:67:e3:7a:d6:f9:f6:a8:2b:04:fb:fb:c8:
                    c1:3f:64:fd:80:da:3b:65:4e:1a:17:fe:d1:8c:96:
                    0f:44:ee:71:22:ec:fa:d6:06:3e:65:9b:39:5e:3a:
                    80:8c:54:04:b7:7c:24:7a:69:a2:7a:c8:63:90:2c:
                    86:ae:a8:ed:8b:7e:27:8b:8a:21:c0:80:7a:95:d6:
                    48:64:f7:95:1a:72:11:c0:63:f8:7a:02:c7:b9:d5:
                    1c:f0:d2:eb:bd:8f:3d:3d:08:95:04:08:e5:0e:a1:
                    1d:63
                Exponent: 65537 (0x10001)
        X509v3 extensions:
            X509v3 Basic Constraints: 
                CA:FALSE
            X509v3 Subject Key Identifier: 
                02:42:8F:BD:B2:F3:37:72:00:A4:C9:B4:51:83:F9:EB:65:B4:62:0E
            X509v3 Authority Key Identifier: 
                keyid:41:FB:50:A1:DD:0A:78:15:55:8C:3C:0D:E0:01:D2:21:A5:36:BE:70
                DirName:/CN=team49-net
                serial:59:D7:1B:3D:D1:E3:C1:19:49:81:C4:30:FD:A5:6E:8E:BD:39:42:E6
            X509v3 Extended Key Usage: 
                TLS Web Server Authentication
            X509v3 Key Usage: 
                Digital Signature, Key Encipherment
            X509v3 Subject Alternative Name: 
                DNS:team49-server
    Signature Algorithm: sha256WithRSAEncryption
    Signature Value:
        01:6f:e2:a9:0a:1c:3b:e8:28:9a:80:cc:24:2b:93:0b:01:68:
        e5:1f:3e:a2:3e:a0:9f:2e:9d:d5:6b:63:e3:99:64:ec:9e:72:
        71:4c:24:cc:5d:da:77:66:5a:13:88:4b:e0:9d:a3:eb:d4:cf:
        b7:99:7a:c6:8a:f6:da:36:f7:c4:da:c7:6b:3f:b1:25:30:93:
        eb:64:32:65:5c:54:a8:df:35:b1:ae:89:75:2e:65:c3:05:e4:
        f6:ef:78:f8:ac:7a:03:a2:90:63:13:33:13:68:4d:bd:6f:43:
        70:d9:7a:c3:a7:d0:84:bb:0e:a1:63:f6:d4:75:5b:29:80:e4:
        07:2c:bf:af:b4:ad:47:82:ce:05:d2:65:d3:a0:49:09:58:0e:
        e1:47:7d:8d:36:c8:b2:59:99:c0:24:5d:1f:59:4e:c9:1d:1d:
        07:ca:0a:bf:9e:2d:b9:26:64:7e:c7:84:f0:72:51:f2:98:e4:
        14:94:23:0b:c7:c9:fc:17:28:67:33:75:8c:dd:15:40:47:3a:
        fd:5d:40:2c:8e:8f:78:67:f5:38:25:6b:e2:e3:b5:b4:69:58:
        8a:23:f9:08:6d:ab:90:0a:f1:0b:a7:71:ad:c4:29:42:26:b5:
        b1:2b:26:31:68:52:fc:fc:fc:25:e7:1b:50:a0:c6:89:9d:11:
        5e:b8:e0:57
-----BEGIN CERTIFICATE-----
MIIDczCCAlugAwIBAgIQZxnqL5XqstxhV5cjL/UD/zANBgkqhkiG9w0BAQsFADAV
MRMwEQYDVQQDDAp0ZWFtNDktbmV0MB4XDTIzMDQyMDAwMTEwNVoXDTI2MDQwNDAw
MTEwNVowGDEWMBQGA1UEAwwNdGVhbTQ5LXNlcnZlcjCCASIwDQYJKoZIhvcNAQEB
BQADggEPADCCAQoCggEBAN7VM06aRDt1/oHUP6XGtdBv3iMB/JvvU3Y4rHlf61ts
xfR+mGKSspfk4iJpUJn6fGzES2IVBC/mD0OFb4MW+bfUWPKcB7Nbo1MAqocxZYLu
CYj7leUbYv2kXlp73LV9UmxA2k7vsjmrZ0GcoD6MFzJmhGe+I6oSyduYY8Hjq0wO
ovkB41ZzlGOCMrrsq1UFUaeXMQ2068kbZ+N61vn2qCsE+/vIwT9k/YDaO2VOGhf+
0YyWD0TucSLs+tYGPmWbOV46gIxUBLd8JHpponrIY5Ashq6o7Yt+J4uKIcCAepXW
SGT3lRpyEcBj+HoCx7nVHPDS672PPT0IlQQI5Q6hHWMCAwEAAaOBuzCBuDAJBgNV
HRMEAjAAMB0GA1UdDgQWBBQCQo+9svM3cgCkybRRg/nrZbRiDjBQBgNVHSMESTBH
gBRB+1Ch3Qp4FVWMPA3gAdIhpTa+cKEZpBcwFTETMBEGA1UEAwwKdGVhbTQ5LW5l
dIIUWdcbPdHjwRlJgcQw/aVujr05QuYwEwYDVR0lBAwwCgYIKwYBBQUHAwEwCwYD
VR0PBAQDAgWgMBgGA1UdEQQRMA+CDXRlYW00OS1zZXJ2ZXIwDQYJKoZIhvcNAQEL
BQADggEBAAFv4qkKHDvoKJqAzCQrkwsBaOUfPqI+oJ8undVrY+OZZOyecnFMJMxd
2ndmWhOIS+Cdo+vUz7eZesaK9to298Tax2s/sSUwk+tkMmVcVKjfNbGuiXUuZcMF
5PbvePisegOikGMTMxNoTb1vQ3DZesOn0IS7DqFj9tR1WymA5Acsv6+0rUeCzgXS
ZdOgSQlYDuFHfY02yLJZmcAkXR9ZTskdHQfKCr+eLbkmZH7HhPByUfKY5BSUIwvH
yfwXKGczdYzdFUBHOv1dQCyOj3hn9Tgla+LjtbRpWIoj+Qhtq5AK8Qunca3EKUIm
tbErJjFoUvz8/CXnG1CgxomdEV644Fc=
-----END CERTIFICATE-----
