Certificate:
    Data:
        Version: 3 (0x2)
        Serial Number:
            ce:75:e9:45:67:eb:d5:a1:96:cf:57:10:51:63:6c:81
        Signature Algorithm: sha256WithRSAEncryption
        Issuer: CN=team49-net
        Validity
            Not Before: Apr 20 22:54:41 2023 GMT
            Not After : Apr  4 22:54:41 2026 GMT
        Subject: CN=team49-server
        Subject Public Key Info:
            Public Key Algorithm: rsaEncryption
                Public-Key: (2048 bit)
                Modulus:
                    00:9d:ae:59:8e:5c:16:38:a7:6b:1b:7c:b9:4a:83:
                    e4:8c:b4:e3:ab:66:79:08:05:b2:87:0c:69:02:a0:
                    d8:c1:94:4f:e4:7b:c9:19:93:c9:e5:a2:6c:5f:a1:
                    09:0d:4f:8e:43:a3:99:42:a7:5d:8c:5e:82:c6:3f:
                    06:c7:d9:3e:3e:1c:66:e4:1a:a7:22:ea:9a:61:b9:
                    05:ae:18:09:47:2f:f4:53:35:07:ab:06:ec:45:b1:
                    fe:40:d8:1a:6d:78:21:ec:60:b2:6a:a8:8e:bf:41:
                    16:7a:a5:47:bf:10:61:c1:52:11:17:80:5e:d2:0f:
                    e3:41:c2:ab:1d:60:88:3a:1d:28:b1:e6:33:d9:3f:
                    d7:bb:43:b5:94:f6:2a:48:95:d3:8a:ca:19:bc:4f:
                    3c:ce:ef:1a:7d:c5:c1:59:b8:78:d6:41:43:95:0d:
                    36:4b:65:f6:01:21:81:9f:1b:93:b2:49:62:11:90:
                    5f:33:bf:b1:a5:33:f8:90:01:71:db:5d:f4:20:5e:
                    de:9e:28:75:ab:19:5f:e5:b1:8a:1c:10:05:87:50:
                    97:ae:a9:e9:a8:13:c1:6e:76:1e:e1:12:af:67:e7:
                    fb:60:b8:68:31:c9:f4:b3:73:e4:50:bd:bf:30:ee:
                    b4:d6:3b:43:ba:c3:1b:d0:58:81:14:43:06:03:2c:
                    d9:89
                Exponent: 65537 (0x10001)
        X509v3 extensions:
            X509v3 Basic Constraints: 
                CA:FALSE
            X509v3 Subject Key Identifier: 
                40:E0:00:7E:5C:59:49:59:BB:79:F0:FC:5F:A8:3F:42:99:E8:71:39
            X509v3 Authority Key Identifier: 
                keyid:60:2A:32:49:84:3A:6A:13:11:25:B4:10:CB:CF:74:76:7C:42:AD:6B
                DirName:/CN=team49-net
                serial:5F:86:B6:79:E2:56:14:DE:61:A4:DF:DE:A7:2E:5C:DA:1B:FC:92:EA
            X509v3 Extended Key Usage: 
                TLS Web Server Authentication
            X509v3 Key Usage: 
                Digital Signature, Key Encipherment
            X509v3 Subject Alternative Name: 
                DNS:team49-server
    Signature Algorithm: sha256WithRSAEncryption
    Signature Value:
        2a:05:ba:0b:b7:8f:df:bc:b8:8f:f2:f7:b1:63:e4:fb:dc:b9:
        27:da:d7:8e:5e:b6:91:c2:62:ae:24:a8:ed:99:27:38:8f:cd:
        dd:04:05:7c:0a:0b:f1:e6:87:d6:12:9f:27:b3:5f:60:b9:bb:
        dd:07:9c:79:ba:79:f2:dc:1d:02:d8:7e:8c:53:34:87:af:50:
        d8:ca:7f:58:03:8d:d4:f1:cc:52:84:bf:78:8d:dd:a5:71:ab:
        5c:68:18:43:b2:f9:90:96:7e:80:5f:7f:b8:95:3c:f5:b8:93:
        73:45:e8:e1:89:61:26:28:8f:ed:3e:7b:5b:64:a3:e5:33:46:
        06:65:44:8f:cb:57:fb:93:a6:78:80:bc:aa:de:1c:96:58:d3:
        ee:43:f8:2a:8d:0c:26:01:72:2f:29:cb:4f:6c:49:aa:fd:28:
        f9:7d:02:51:fb:20:36:19:06:5c:e2:61:70:cf:18:be:50:6c:
        ad:b3:5b:9e:b4:53:de:f0:56:bf:da:8b:0b:59:28:f7:a6:6f:
        67:19:c0:79:80:de:63:07:0e:1e:2a:49:6d:9b:74:18:11:0f:
        7d:78:e7:19:a1:6d:8a:a5:7b:3f:b3:fc:1c:c7:78:20:7b:24:
        77:48:a5:6b:51:b5:1c:9d:2a:de:70:20:90:b7:f5:46:c1:31:
        6d:c8:18:d4
-----BEGIN CERTIFICATE-----
MIIDdDCCAlygAwIBAgIRAM516UVn69Whls9XEFFjbIEwDQYJKoZIhvcNAQELBQAw
FTETMBEGA1UEAwwKdGVhbTQ5LW5ldDAeFw0yMzA0MjAyMjU0NDFaFw0yNjA0MDQy
MjU0NDFaMBgxFjAUBgNVBAMMDXRlYW00OS1zZXJ2ZXIwggEiMA0GCSqGSIb3DQEB
AQUAA4IBDwAwggEKAoIBAQCdrlmOXBY4p2sbfLlKg+SMtOOrZnkIBbKHDGkCoNjB
lE/ke8kZk8nlomxfoQkNT45Do5lCp12MXoLGPwbH2T4+HGbkGqci6pphuQWuGAlH
L/RTNQerBuxFsf5A2BpteCHsYLJqqI6/QRZ6pUe/EGHBUhEXgF7SD+NBwqsdYIg6
HSix5jPZP9e7Q7WU9ipIldOKyhm8TzzO7xp9xcFZuHjWQUOVDTZLZfYBIYGfG5Oy
SWIRkF8zv7GlM/iQAXHbXfQgXt6eKHWrGV/lsYocEAWHUJeuqemoE8Fudh7hEq9n
5/tguGgxyfSzc+RQvb8w7rTWO0O6wxvQWIEUQwYDLNmJAgMBAAGjgbswgbgwCQYD
VR0TBAIwADAdBgNVHQ4EFgQUQOAAflxZSVm7efD8X6g/QpnocTkwUAYDVR0jBEkw
R4AUYCoySYQ6ahMRJbQQy890dnxCrWuhGaQXMBUxEzARBgNVBAMMCnRlYW00OS1u
ZXSCFF+GtnniVhTeYaTf3qcuXNob/JLqMBMGA1UdJQQMMAoGCCsGAQUFBwMBMAsG
A1UdDwQEAwIFoDAYBgNVHREEETAPgg10ZWFtNDktc2VydmVyMA0GCSqGSIb3DQEB
CwUAA4IBAQAqBboLt4/fvLiP8vexY+T73Lkn2teOXraRwmKuJKjtmSc4j83dBAV8
Cgvx5ofWEp8ns19gubvdB5x5unny3B0C2H6MUzSHr1DYyn9YA43U8cxShL94jd2l
catcaBhDsvmQln6AX3+4lTz1uJNzRejhiWEmKI/tPntbZKPlM0YGZUSPy1f7k6Z4
gLyq3hyWWNPuQ/gqjQwmAXIvKctPbEmq/Sj5fQJR+yA2GQZc4mFwzxi+UGyts1ue
tFPe8Fa/2osLWSj3pm9nGcB5gN5jBw4eKkltm3QYEQ99eOcZoW2KpXs/s/wcx3gg
eyR3SKVrUbUcnSrecCCQt/VGwTFtyBjU
-----END CERTIFICATE-----
