Certificate:
    Data:
        Version: 3 (0x2)
        Serial Number:
            1a:7d:a3:2d:09:a8:d7:e5:f1:90:d2:69:d0:ab:6e:a5
        Signature Algorithm: sha256WithRSAEncryption
        Issuer: CN=team50-net
        Validity
            Not Before: Apr 20 00:11:06 2023 GMT
            Not After : Apr  4 00:11:06 2026 GMT
        Subject: CN=team50-client
        Subject Public Key Info:
            Public Key Algorithm: rsaEncryption
                Public-Key: (2048 bit)
                Modulus:
                    00:cb:a4:ff:50:a3:37:07:0b:0f:3d:54:25:d4:c6:
                    f6:19:07:c8:d2:de:0d:31:18:90:cc:76:15:0e:f2:
                    22:40:19:ec:69:5b:06:5a:58:4b:78:ac:77:dd:ea:
                    7e:79:66:c1:db:3f:70:07:a0:40:8b:d1:96:6c:8f:
                    b2:5e:66:bf:d9:1b:49:2f:b5:17:4e:6f:dc:5a:b0:
                    e8:2a:53:e0:d7:0e:28:07:d2:09:48:01:a7:6a:36:
                    44:94:5e:aa:4a:6b:aa:e1:44:c1:52:51:42:53:8c:
                    1c:1e:d2:34:f1:31:d1:c3:47:f6:1d:3b:a5:59:21:
                    c4:bc:96:62:55:0e:8f:b4:9e:db:51:c4:a9:c5:4a:
                    1d:b8:6c:bc:0d:49:1d:a7:31:a6:a6:8b:91:42:0c:
                    b0:27:ea:fa:04:2c:97:b3:f1:69:67:74:4e:e6:d9:
                    6d:56:50:54:94:e1:44:18:f6:d6:af:59:22:0c:53:
                    5e:a4:2a:92:a6:68:93:7f:f7:9b:49:a1:eb:d0:84:
                    8e:be:14:82:df:e7:ee:a8:30:3c:61:40:23:83:e5:
                    5f:e9:82:1d:f9:ed:16:85:16:da:81:17:1b:cb:54:
                    59:f6:46:0c:b9:55:91:ed:47:9e:ce:01:d7:fb:0e:
                    93:c1:0d:7e:e2:2d:58:41:08:8f:b2:c1:6a:50:a6:
                    7b:47
                Exponent: 65537 (0x10001)
        X509v3 extensions:
            X509v3 Basic Constraints: 
                CA:FALSE
            X509v3 Subject Key Identifier: 
                8A:2A:AC:96:EA:FE:6C:3D:69:FC:AC:35:B7:2B:CE:C2:E2:E0:E8:4C
            X509v3 Authority Key Identifier: 
                keyid:01:70:41:5A:6A:FA:4A:CE:EA:37:2C:5C:86:F9:E7:27:2D:66:33:BB
                DirName:/CN=team50-net
                serial:50:2A:F5:D1:52:7C:81:B7:FC:F8:54:FC:62:15:07:D4:E9:82:8E:60
            X509v3 Extended Key Usage: 
                TLS Web Client Authentication
            X509v3 Key Usage: 
                Digital Signature
    Signature Algorithm: sha256WithRSAEncryption
    Signature Value:
        2e:40:bf:1c:df:c1:c1:f2:8b:1e:3f:33:f9:56:35:b6:7e:d7:
        6c:69:fc:3c:9d:f1:ab:b5:b2:b4:68:d7:5f:09:d9:bb:0d:89:
        08:ed:e4:51:59:1d:ee:33:51:f8:22:44:f0:45:e7:61:5e:3b:
        b4:18:54:3b:5d:06:c1:f3:dd:fd:56:e0:8e:c0:41:a8:8a:84:
        be:e9:01:bb:29:a3:fd:7b:c3:9f:23:33:21:fc:5b:8f:e8:9f:
        68:d7:3f:15:ea:3f:d8:a7:6e:bd:46:3e:05:2c:37:e9:44:b4:
        8d:2b:97:b5:6d:6f:61:e9:8a:94:9d:8e:eb:d5:18:5b:7c:2c:
        64:ac:f2:81:c8:73:fc:6c:b5:73:bc:78:d6:4f:ba:46:dc:29:
        37:45:64:30:5c:fb:e0:02:26:d1:f5:c5:54:9e:44:f7:7d:9d:
        98:c1:57:91:6c:f1:0a:6d:18:c8:4d:b7:3c:cc:b2:c4:1b:0a:
        fc:56:3f:e0:05:6b:b4:e7:67:51:b5:0e:81:99:0e:1a:15:78:
        a5:40:3c:b5:20:1a:09:83:a3:71:65:32:c3:b2:21:00:ec:54:
        9a:f6:e8:c8:b8:2c:35:cb:dc:1b:5e:52:a6:df:2c:0a:18:ec:
        6c:ae:16:d7:03:99:8c:b8:93:cd:71:68:3a:07:9a:85:8c:c0:
        93:a8:29:53
-----BEGIN CERTIFICATE-----
MIIDWTCCAkGgAwIBAgIQGn2jLQmo1+XxkNJp0KtupTANBgkqhkiG9w0BAQsFADAV
MRMwEQYDVQQDDAp0ZWFtNTAtbmV0MB4XDTIzMDQyMDAwMTEwNloXDTI2MDQwNDAw
MTEwNlowGDEWMBQGA1UEAwwNdGVhbTUwLWNsaWVudDCCASIwDQYJKoZIhvcNAQEB
BQADggEPADCCAQoCggEBAMuk/1CjNwcLDz1UJdTG9hkHyNLeDTEYkMx2FQ7yIkAZ
7GlbBlpYS3isd93qfnlmwds/cAegQIvRlmyPsl5mv9kbSS+1F05v3Fqw6CpT4NcO
KAfSCUgBp2o2RJReqkprquFEwVJRQlOMHB7SNPEx0cNH9h07pVkhxLyWYlUOj7Se
21HEqcVKHbhsvA1JHacxpqaLkUIMsCfq+gQsl7PxaWd0TubZbVZQVJThRBj21q9Z
IgxTXqQqkqZok3/3m0mh69CEjr4Ugt/n7qgwPGFAI4PlX+mCHfntFoUW2oEXG8tU
WfZGDLlVke1Hns4B1/sOk8ENfuItWEEIj7LBalCme0cCAwEAAaOBoTCBnjAJBgNV
HRMEAjAAMB0GA1UdDgQWBBSKKqyW6v5sPWn8rDW3K87C4uDoTDBQBgNVHSMESTBH
gBQBcEFaavpKzuo3LFyG+ecnLWYzu6EZpBcwFTETMBEGA1UEAwwKdGVhbTUwLW5l
dIIUUCr10VJ8gbf8+FT8YhUH1OmCjmAwEwYDVR0lBAwwCgYIKwYBBQUHAwIwCwYD
VR0PBAQDAgeAMA0GCSqGSIb3DQEBCwUAA4IBAQAuQL8c38HB8osePzP5VjW2ftds
afw8nfGrtbK0aNdfCdm7DYkI7eRRWR3uM1H4IkTwRedhXju0GFQ7XQbB8939VuCO
wEGoioS+6QG7KaP9e8OfIzMh/FuP6J9o1z8V6j/Yp269Rj4FLDfpRLSNK5e1bW9h
6YqUnY7r1RhbfCxkrPKByHP8bLVzvHjWT7pG3Ck3RWQwXPvgAibR9cVUnkT3fZ2Y
wVeRbPEKbRjITbc8zLLEGwr8Vj/gBWu052dRtQ6BmQ4aFXilQDy1IBoJg6NxZTLD
siEA7FSa9ujIuCw1y9wbXlKm3ywKGOxsrhbXA5mMuJPNcWg6B5qFjMCTqClT
-----END CERTIFICATE-----
