Certificate:
    Data:
        Version: 3 (0x2)
        Serial Number:
            27:fe:dd:8e:14:13:c6:bf:31:4e:8c:81:13:a7:5b:54
        Signature Algorithm: sha256WithRSAEncryption
        Issuer: CN=team50-net
        Validity
            Not Before: Apr 20 22:54:42 2023 GMT
            Not After : Apr  4 22:54:42 2026 GMT
        Subject: CN=team50-client
        Subject Public Key Info:
            Public Key Algorithm: rsaEncryption
                Public-Key: (2048 bit)
                Modulus:
                    00:cb:55:82:30:8e:bb:4f:f3:77:94:12:c5:33:71:
                    39:15:05:92:d0:98:3a:15:f6:aa:72:b5:8a:c5:95:
                    92:40:87:0f:d1:50:91:bc:83:bf:08:37:6b:87:ee:
                    7f:24:b5:fa:e1:2b:0a:17:ca:8d:3c:30:12:ae:a8:
                    70:eb:e4:6c:82:96:b5:2b:97:9c:ce:b9:dc:87:b0:
                    b7:f0:9b:2f:e5:7b:14:4a:3a:15:18:db:94:7f:0a:
                    9f:d0:d6:b3:a4:7a:20:cb:31:a3:21:67:63:e9:eb:
                    b2:83:1a:4c:3e:61:82:c5:a9:7f:e6:05:f7:38:4b:
                    44:0f:55:68:c4:b2:33:eb:7c:be:86:a3:c5:00:b2:
                    cc:7f:cd:91:8c:b7:dd:89:f3:a9:c8:66:53:3a:34:
                    e6:dc:fa:16:5f:bb:e5:30:1f:48:49:cb:3d:83:7d:
                    ad:a6:09:1a:23:d2:2c:fe:fa:30:83:9e:af:60:74:
                    1e:85:a2:cd:59:4d:6d:7b:94:8a:50:3c:6d:29:e4:
                    80:65:83:1d:d0:8a:28:22:7d:88:2e:96:44:71:f9:
                    9c:16:e7:4c:65:1b:16:88:f3:8a:ff:e1:c4:18:4c:
                    8f:57:49:ab:33:0d:79:28:59:bd:24:52:ec:55:12:
                    8c:1f:a3:49:b1:03:f4:80:6a:44:6a:b2:1a:4d:c6:
                    ac:2b
                Exponent: 65537 (0x10001)
        X509v3 extensions:
            X509v3 Basic Constraints: 
                CA:FALSE
            X509v3 Subject Key Identifier: 
                83:A4:DA:D2:AC:E8:62:11:A7:1A:47:C6:20:F9:DF:4D:6D:57:A9:27
            X509v3 Authority Key Identifier: 
                keyid:39:77:04:B9:CC:D3:9F:D6:8F:69:3E:64:72:22:17:FA:B4:88:78:5F
                DirName:/CN=team50-net
                serial:49:10:1C:3D:A1:99:1A:F7:35:AB:7A:5E:04:DD:0C:52:E6:C4:E4:A1
            X509v3 Extended Key Usage: 
                TLS Web Client Authentication
            X509v3 Key Usage: 
                Digital Signature
    Signature Algorithm: sha256WithRSAEncryption
    Signature Value:
        87:b0:cd:e6:b4:8d:2f:e3:59:08:b5:37:2d:53:33:f5:73:f6:
        12:bc:1f:40:04:28:6a:84:7c:6c:68:50:c8:fb:13:06:71:8b:
        ad:cb:65:61:05:c5:cc:71:cc:17:70:d8:be:9f:da:3e:f2:31:
        a2:79:73:47:d4:bf:1b:14:e2:d8:be:30:33:56:06:12:e5:b1:
        32:0d:68:60:3d:21:2f:f5:71:00:79:44:c7:53:6d:cc:5e:4a:
        52:81:6c:b8:a3:cb:17:a9:b9:fd:5d:ac:34:62:27:90:54:4c:
        15:fa:72:3d:e4:c9:e0:b1:6b:1e:24:fd:b6:90:4c:29:5a:71:
        10:d3:a1:cc:1b:af:27:cf:da:7f:21:c1:fd:30:46:0c:0c:8a:
        32:45:b8:e9:bd:56:a8:47:56:60:95:de:0f:4f:63:59:d5:61:
        02:46:c4:39:21:e9:4f:db:ff:15:b9:f2:83:ea:6e:6a:a6:89:
        ae:0a:2e:85:d7:1f:69:2a:2b:27:29:fa:ba:94:48:3e:e3:81:
        f3:9d:67:f3:9d:f0:8a:43:60:8f:0e:01:32:92:3f:88:68:70:
        35:08:c9:89:1d:15:c5:83:00:ba:67:df:7c:ef:e8:10:ab:73:
        61:48:54:eb:d6:3e:aa:37:37:6c:7e:c1:19:db:98:f2:bb:06:
        f1:59:37:72
-----BEGIN CERTIFICATE-----
MIIDWTCCAkGgAwIBAgIQJ/7djhQTxr8xToyBE6dbVDANBgkqhkiG9w0BAQsFADAV
MRMwEQYDVQQDDAp0ZWFtNTAtbmV0MB4XDTIzMDQyMDIyNTQ0MloXDTI2MDQwNDIy
NTQ0MlowGDEWMBQGA1UEAwwNdGVhbTUwLWNsaWVudDCCASIwDQYJKoZIhvcNAQEB
BQADggEPADCCAQoCggEBAMtVgjCOu0/zd5QSxTNxORUFktCYOhX2qnK1isWVkkCH
D9FQkbyDvwg3a4fufyS1+uErChfKjTwwEq6ocOvkbIKWtSuXnM653Iewt/CbL+V7
FEo6FRjblH8Kn9DWs6R6IMsxoyFnY+nrsoMaTD5hgsWpf+YF9zhLRA9VaMSyM+t8
voajxQCyzH/NkYy33YnzqchmUzo05tz6Fl+75TAfSEnLPYN9raYJGiPSLP76MIOe
r2B0HoWizVlNbXuUilA8bSnkgGWDHdCKKCJ9iC6WRHH5nBbnTGUbFojziv/hxBhM
j1dJqzMNeShZvSRS7FUSjB+jSbED9IBqRGqyGk3GrCsCAwEAAaOBoTCBnjAJBgNV
HRMEAjAAMB0GA1UdDgQWBBSDpNrSrOhiEacaR8Yg+d9NbVepJzBQBgNVHSMESTBH
gBQ5dwS5zNOf1o9pPmRyIhf6tIh4X6EZpBcwFTETMBEGA1UEAwwKdGVhbTUwLW5l
dIIUSRAcPaGZGvc1q3peBN0MUubE5KEwEwYDVR0lBAwwCgYIKwYBBQUHAwIwCwYD
VR0PBAQDAgeAMA0GCSqGSIb3DQEBCwUAA4IBAQCHsM3mtI0v41kItTctUzP1c/YS
vB9ABChqhHxsaFDI+xMGcYuty2VhBcXMccwXcNi+n9o+8jGieXNH1L8bFOLYvjAz
VgYS5bEyDWhgPSEv9XEAeUTHU23MXkpSgWy4o8sXqbn9Xaw0YieQVEwV+nI95Mng
sWseJP22kEwpWnEQ06HMG68nz9p/IcH9MEYMDIoyRbjpvVaoR1Zgld4PT2NZ1WEC
RsQ5IelP2/8VufKD6m5qpomuCi6F1x9pKisnKfq6lEg+44HznWfznfCKQ2CPDgEy
kj+IaHA1CMmJHRXFgwC6Z9987+gQq3NhSFTr1j6qNzdsfsEZ25jyuwbxWTdy
-----END CERTIFICATE-----
