Certificate:
    Data:
        Version: 3 (0x2)
        Serial Number:
            10:4f:d7:57:03:a5:91:7e:e7:6d:7e:a8:c8:db:ab:ee
        Signature Algorithm: sha256WithRSAEncryption
        Issuer: CN=team14-net
        Validity
            Not Before: Apr 20 00:10:14 2023 GMT
            Not After : Apr  4 00:10:14 2026 GMT
        Subject: CN=team14-client
        Subject Public Key Info:
            Public Key Algorithm: rsaEncryption
                Public-Key: (2048 bit)
                Modulus:
                    00:a7:63:92:d2:78:ba:b2:60:8b:d5:45:52:6e:cc:
                    f3:0d:f0:28:5f:4d:80:55:0c:72:bd:5c:7c:53:90:
                    54:66:36:c3:ad:26:9e:00:70:91:ce:b6:a9:b8:10:
                    97:0b:6e:16:dc:aa:f7:79:cd:f7:4c:a6:d4:87:28:
                    db:9a:53:d8:9a:5c:5f:95:3d:2d:32:5a:86:7b:04:
                    b7:3c:42:88:cd:4f:c9:7e:cf:0c:cf:04:94:0c:18:
                    83:19:f7:bd:a9:bf:90:be:5c:e4:0c:2d:b2:bc:c8:
                    bd:8f:6c:7f:ed:b9:84:e0:ec:31:db:ab:dd:9a:b6:
                    b6:35:84:98:b8:f1:aa:c5:79:08:27:83:e1:be:45:
                    b2:0c:4b:bf:93:4c:ca:0a:b8:b8:24:b2:e0:74:66:
                    6c:ee:ea:bc:a8:ae:45:72:e6:4a:e4:12:1b:14:d2:
                    2d:7e:15:41:e4:1f:57:91:d9:59:7d:70:85:e3:91:
                    96:5a:63:f1:2c:cd:2b:86:e9:93:15:6b:95:c4:04:
                    73:7d:e7:d2:70:5a:ec:46:22:93:43:54:c2:42:06:
                    51:5c:a9:1b:95:fa:6f:c2:72:b8:d1:aa:0b:26:66:
                    00:7e:2e:34:13:d3:eb:bb:c6:dc:84:d5:91:f3:46:
                    ee:67:65:4b:ad:41:12:85:9a:71:c4:79:d6:76:e5:
                    c2:eb
                Exponent: 65537 (0x10001)
        X509v3 extensions:
            X509v3 Basic Constraints: 
                CA:FALSE
            X509v3 Subject Key Identifier: 
                1D:F6:F2:64:32:44:A1:58:F3:BC:29:A3:7B:84:12:C7:17:0D:2F:C5
            X509v3 Authority Key Identifier: 
                keyid:2B:9F:B7:E4:BC:38:15:37:FC:21:2D:4D:D2:83:99:84:CB:C6:D6:15
                DirName:/CN=team14-net
                serial:25:EC:B2:E9:CB:87:2C:D7:21:7D:6A:5F:FE:11:E4:62:A3:36:16:DB
            X509v3 Extended Key Usage: 
                TLS Web Client Authentication
            X509v3 Key Usage: 
                Digital Signature
    Signature Algorithm: sha256WithRSAEncryption
    Signature Value:
        66:ad:73:29:b1:79:6a:83:62:23:d0:0a:87:63:ab:36:bb:10:
        7f:24:79:0e:5d:10:2b:d3:c1:60:07:fe:0b:da:b4:39:fe:6d:
        c2:f7:4e:0c:42:3b:c2:c1:4a:a8:10:a5:e2:5f:51:86:d2:41:
        cf:24:70:95:6a:51:4c:b7:85:0f:de:c5:a1:67:41:02:17:f3:
        d8:e3:b2:63:d0:52:38:6f:f5:16:0e:07:a4:d1:3e:05:c4:69:
        f6:96:86:58:70:97:df:54:d9:c2:b7:d1:da:87:42:b7:a2:4f:
        7c:8f:8f:d3:69:8c:c3:3e:21:a7:f2:87:83:8f:85:ab:87:53:
        a8:af:3e:cb:cd:0e:2b:6b:12:bb:79:de:10:be:11:f1:8c:34:
        60:1a:bc:b8:eb:c9:6d:33:e5:7d:9e:6c:b0:75:ba:9e:04:86:
        d3:6c:83:d5:68:8c:b7:71:60:f2:2d:82:11:bb:f0:5c:09:02:
        19:15:c4:a7:8f:8d:80:02:40:d6:d9:f2:55:ad:ad:38:de:53:
        09:d5:2c:8e:ab:de:56:8f:92:25:39:12:7c:e6:e3:42:a8:2b:
        31:3f:6f:79:30:b3:18:2f:51:e5:da:47:1e:0f:a7:b4:4c:ad:
        4f:90:06:f9:9d:48:71:4b:fd:04:3c:61:5a:51:5e:29:af:94:
        d3:a0:e7:ec
-----BEGIN CERTIFICATE-----
MIIDWTCCAkGgAwIBAgIQEE/XVwOlkX7nbX6oyNur7jANBgkqhkiG9w0BAQsFADAV
MRMwEQYDVQQDDAp0ZWFtMTQtbmV0MB4XDTIzMDQyMDAwMTAxNFoXDTI2MDQwNDAw
MTAxNFowGDEWMBQGA1UEAwwNdGVhbTE0LWNsaWVudDCCASIwDQYJKoZIhvcNAQEB
BQADggEPADCCAQoCggEBAKdjktJ4urJgi9VFUm7M8w3wKF9NgFUMcr1cfFOQVGY2
w60mngBwkc62qbgQlwtuFtyq93nN90ym1Ico25pT2JpcX5U9LTJahnsEtzxCiM1P
yX7PDM8ElAwYgxn3vam/kL5c5AwtsrzIvY9sf+25hODsMdur3Zq2tjWEmLjxqsV5
CCeD4b5FsgxLv5NMygq4uCSy4HRmbO7qvKiuRXLmSuQSGxTSLX4VQeQfV5HZWX1w
heORllpj8SzNK4bpkxVrlcQEc33n0nBa7EYik0NUwkIGUVypG5X6b8JyuNGqCyZm
AH4uNBPT67vG3ITVkfNG7mdlS61BEoWaccR51nblwusCAwEAAaOBoTCBnjAJBgNV
HRMEAjAAMB0GA1UdDgQWBBQd9vJkMkShWPO8KaN7hBLHFw0vxTBQBgNVHSMESTBH
gBQrn7fkvDgVN/whLU3Sg5mEy8bWFaEZpBcwFTETMBEGA1UEAwwKdGVhbTE0LW5l
dIIUJeyy6cuHLNchfWpf/hHkYqM2FtswEwYDVR0lBAwwCgYIKwYBBQUHAwIwCwYD
VR0PBAQDAgeAMA0GCSqGSIb3DQEBCwUAA4IBAQBmrXMpsXlqg2Ij0AqHY6s2uxB/
JHkOXRAr08FgB/4L2rQ5/m3C904MQjvCwUqoEKXiX1GG0kHPJHCValFMt4UP3sWh
Z0ECF/PY47Jj0FI4b/UWDgek0T4FxGn2loZYcJffVNnCt9Hah0K3ok98j4/TaYzD
PiGn8oeDj4Wrh1Oorz7LzQ4raxK7ed4QvhHxjDRgGry468ltM+V9nmywdbqeBIbT
bIPVaIy3cWDyLYIRu/BcCQIZFcSnj42AAkDW2fJVra043lMJ1SyOq95Wj5IlORJ8
5uNCqCsxP295MLMYL1Hl2kceD6e0TK1PkAb5nUhxS/0EPGFaUV4pr5TToOfs
-----END CERTIFICATE-----
