Certificate:
    Data:
        Version: 3 (0x2)
        Serial Number:
            d5:62:0f:8e:bd:12:1a:a5:47:c1:2d:df:a1:69:d8:6e
        Signature Algorithm: sha256WithRSAEncryption
        Issuer: CN=team14-net
        Validity
            Not Before: Apr 20 22:53:44 2023 GMT
            Not After : Apr  4 22:53:44 2026 GMT
        Subject: CN=team14-server
        Subject Public Key Info:
            Public Key Algorithm: rsaEncryption
                Public-Key: (2048 bit)
                Modulus:
                    00:b4:89:ae:f5:83:aa:d0:f5:99:57:80:ec:7c:51:
                    da:3a:d5:f3:95:9a:4b:f8:4c:88:65:78:23:ab:3b:
                    9b:f5:39:6c:fd:c1:d6:74:bb:20:af:90:4f:99:97:
                    f6:c7:be:2d:42:d1:e0:ca:41:36:1f:7f:b9:a9:88:
                    ee:e1:e4:2f:de:77:fc:61:a5:72:7c:05:77:88:11:
                    98:88:c9:f5:94:ed:b0:87:f4:ff:95:d5:e5:c8:32:
                    4d:eb:43:fe:03:8c:0e:34:8d:00:cc:a1:49:c3:59:
                    6e:4b:ec:96:6f:8b:59:bf:f2:e4:73:af:d9:57:2a:
                    51:88:71:3c:ef:5e:f2:bc:4a:8f:fa:9d:91:e5:eb:
                    37:8d:c4:25:40:e3:39:09:3e:26:de:62:18:00:18:
                    a2:8c:df:44:b4:bf:63:22:29:c5:6c:3c:ff:27:43:
                    6e:9e:d1:56:e7:bc:53:27:97:0d:4f:f6:04:59:c1:
                    dc:9f:e0:2e:44:89:4a:17:af:d6:97:bb:f3:57:63:
                    eb:d4:14:9c:6d:10:f7:db:ea:23:29:86:81:82:b5:
                    65:a9:c4:7d:ac:77:38:e7:14:23:24:1e:3a:09:91:
                    59:34:cf:26:1d:fb:b5:0b:28:3c:74:76:81:f5:de:
                    33:d9:eb:07:f3:9a:37:06:de:76:67:f7:a6:d0:a3:
                    12:2d
                Exponent: 65537 (0x10001)
        X509v3 extensions:
            X509v3 Basic Constraints: 
                CA:FALSE
            X509v3 Subject Key Identifier: 
                25:C4:17:48:0D:DC:68:DE:D4:65:3C:CA:FD:4D:AF:5A:EC:5D:C7:96
            X509v3 Authority Key Identifier: 
                keyid:EE:13:D4:FD:86:25:1A:61:4A:CF:E1:76:64:51:B1:D8:EC:F4:26:57
                DirName:/CN=team14-net
                serial:79:B0:96:ED:99:E9:99:7E:88:6D:BA:1A:2B:3D:2A:AA:42:B7:9F:52
            X509v3 Extended Key Usage: 
                TLS Web Server Authentication
            X509v3 Key Usage: 
                Digital Signature, Key Encipherment
            X509v3 Subject Alternative Name: 
                DNS:team14-server
    Signature Algorithm: sha256WithRSAEncryption
    Signature Value:
        7a:9c:09:aa:2c:b2:5f:a7:d1:de:99:e5:d3:52:e0:4e:28:dd:
        61:06:2c:91:c8:1d:d7:e7:ef:1c:09:b1:fa:02:41:19:91:84:
        71:d1:de:07:f2:b8:15:42:21:19:d9:18:d4:9f:a9:47:3a:a6:
        64:06:3d:1b:8a:37:9f:e8:17:ca:33:f9:68:96:da:08:73:18:
        e0:e6:bc:b0:9a:32:2f:33:ea:be:83:0a:b3:0e:29:bc:6e:f1:
        c5:21:a3:26:26:b8:b6:38:53:a8:81:e7:c4:bf:f1:5e:c7:8a:
        da:dc:a7:3a:a5:a9:e4:2c:6b:9b:0b:4a:11:fe:59:12:87:63:
        4e:13:8d:24:0d:44:2d:1f:f7:23:f8:b5:40:7f:ac:a1:fb:9e:
        d8:a1:2c:1b:5a:43:f8:8d:2e:53:eb:e1:12:c7:a8:0b:85:31:
        2b:4b:ba:ec:67:fc:f5:9f:02:46:f1:b4:a3:2f:33:fa:73:f8:
        7e:a6:eb:18:4c:9d:f5:bf:c6:f4:4b:7a:7e:fc:24:ac:74:f6:
        7a:0c:27:3c:96:a3:e7:4d:52:f7:6b:61:9c:71:7a:5e:ad:df:
        9c:00:5d:3c:06:57:a7:69:79:21:4b:94:eb:8d:2f:51:2e:50:
        ae:a9:14:cb:cd:e1:2b:36:2a:11:49:73:4c:1c:86:cd:8c:77:
        37:1e:75:68
-----BEGIN CERTIFICATE-----
MIIDdDCCAlygAwIBAgIRANViD469EhqlR8Et36Fp2G4wDQYJKoZIhvcNAQELBQAw
FTETMBEGA1UEAwwKdGVhbTE0LW5ldDAeFw0yMzA0MjAyMjUzNDRaFw0yNjA0MDQy
MjUzNDRaMBgxFjAUBgNVBAMMDXRlYW0xNC1zZXJ2ZXIwggEiMA0GCSqGSIb3DQEB
AQUAA4IBDwAwggEKAoIBAQC0ia71g6rQ9ZlXgOx8Udo61fOVmkv4TIhleCOrO5v1
OWz9wdZ0uyCvkE+Zl/bHvi1C0eDKQTYff7mpiO7h5C/ed/xhpXJ8BXeIEZiIyfWU
7bCH9P+V1eXIMk3rQ/4DjA40jQDMoUnDWW5L7JZvi1m/8uRzr9lXKlGIcTzvXvK8
So/6nZHl6zeNxCVA4zkJPibeYhgAGKKM30S0v2MiKcVsPP8nQ26e0VbnvFMnlw1P
9gRZwdyf4C5EiUoXr9aXu/NXY+vUFJxtEPfb6iMphoGCtWWpxH2sdzjnFCMkHjoJ
kVk0zyYd+7ULKDx0doH13jPZ6wfzmjcG3nZn96bQoxItAgMBAAGjgbswgbgwCQYD
VR0TBAIwADAdBgNVHQ4EFgQUJcQXSA3caN7UZTzK/U2vWuxdx5YwUAYDVR0jBEkw
R4AU7hPU/YYlGmFKz+F2ZFGx2Oz0JlehGaQXMBUxEzARBgNVBAMMCnRlYW0xNC1u
ZXSCFHmwlu2Z6Zl+iG26Gis9KqpCt59SMBMGA1UdJQQMMAoGCCsGAQUFBwMBMAsG
A1UdDwQEAwIFoDAYBgNVHREEETAPgg10ZWFtMTQtc2VydmVyMA0GCSqGSIb3DQEB
CwUAA4IBAQB6nAmqLLJfp9HemeXTUuBOKN1hBiyRyB3X5+8cCbH6AkEZkYRx0d4H
8rgVQiEZ2RjUn6lHOqZkBj0bijef6BfKM/loltoIcxjg5rywmjIvM+q+gwqzDim8
bvHFIaMmJri2OFOogefEv/Fex4ra3Kc6pankLGubC0oR/lkSh2NOE40kDUQtH/cj
+LVAf6yh+57YoSwbWkP4jS5T6+ESx6gLhTErS7rsZ/z1nwJG8bSjLzP6c/h+pusY
TJ31v8b0S3p+/CSsdPZ6DCc8lqPnTVL3a2GccXperd+cAF08BlenaXkhS5TrjS9R
LlCuqRTLzeErNioRSXNMHIbNjHc3HnVo
-----END CERTIFICATE-----
