Certificate:
    Data:
        Version: 3 (0x2)
        Serial Number:
            e4:39:87:53:9a:e2:cd:e1:cc:7a:5e:94:a6:05:9b:5b
        Signature Algorithm: sha256WithRSAEncryption
        Issuer: CN=team14-net
        Validity
            Not Before: Apr 20 22:53:43 2023 GMT
            Not After : Apr  4 22:53:43 2026 GMT
        Subject: CN=team14-client
        Subject Public Key Info:
            Public Key Algorithm: rsaEncryption
                Public-Key: (2048 bit)
                Modulus:
                    00:b5:7b:c6:0f:39:72:d9:15:ce:41:b8:f0:6e:e6:
                    d9:a1:23:53:72:4d:fa:81:a6:53:0e:69:f0:19:ae:
                    14:d0:fa:61:ed:33:e1:f7:84:8c:27:74:eb:04:9a:
                    15:0a:52:d2:dc:70:18:02:88:e4:6a:c1:b5:96:63:
                    c6:3c:eb:c6:de:19:04:f6:29:fd:22:7d:9d:a7:28:
                    c6:64:a2:0f:0e:a9:43:73:91:b6:c8:d3:21:9b:bd:
                    90:e9:dd:87:1a:04:dd:0e:4b:c9:77:ad:2d:3e:87:
                    19:25:61:fb:9a:8e:37:96:62:72:de:1e:cd:92:2e:
                    a7:3d:12:82:8d:f4:f4:df:b7:8d:4c:5c:e4:0f:be:
                    52:bc:d7:8d:00:d6:40:2c:b2:a0:77:a3:bd:31:e3:
                    67:b6:e7:b1:de:eb:ef:f2:fb:d3:5b:96:ff:67:30:
                    14:de:ed:52:9e:c1:e5:a2:c3:60:2e:4c:80:ad:dc:
                    68:4a:a0:f4:c3:d2:e8:95:d1:c9:ad:22:af:78:3a:
                    d2:fd:48:43:55:6a:7d:4f:b3:1f:ef:5a:9c:e8:00:
                    88:72:88:7d:bb:99:1d:54:f6:ad:8a:e3:0f:6d:f3:
                    52:bf:7e:59:fc:55:11:28:3d:64:e4:00:2d:2c:ce:
                    72:be:e1:e1:d4:4c:24:a1:82:51:b2:80:53:55:f0:
                    eb:f5
                Exponent: 65537 (0x10001)
        X509v3 extensions:
            X509v3 Basic Constraints: 
                CA:FALSE
            X509v3 Subject Key Identifier: 
                99:56:CC:E3:1F:72:27:2E:29:C9:DD:7C:CF:E2:55:6F:A4:B1:CA:B3
            X509v3 Authority Key Identifier: 
                keyid:EE:13:D4:FD:86:25:1A:61:4A:CF:E1:76:64:51:B1:D8:EC:F4:26:57
                DirName:/CN=team14-net
                serial:79:B0:96:ED:99:E9:99:7E:88:6D:BA:1A:2B:3D:2A:AA:42:B7:9F:52
            X509v3 Extended Key Usage: 
                TLS Web Client Authentication
            X509v3 Key Usage: 
                Digital Signature
    Signature Algorithm: sha256WithRSAEncryption
    Signature Value:
        49:53:14:f5:8e:3d:85:2c:e1:07:0e:bc:af:0c:2c:30:b9:1e:
        87:2f:cf:80:d7:aa:3e:ac:1e:2f:c4:b6:bf:95:bd:40:df:30:
        ca:fb:ee:34:25:1a:c2:6a:9b:f3:9f:9f:49:0b:2f:da:d8:cd:
        39:f8:95:d1:93:2f:91:bc:04:37:fa:13:1a:1d:0b:db:09:20:
        eb:6b:2a:80:ff:0c:e1:6c:2d:74:ca:f1:86:f1:8e:51:83:37:
        94:91:cc:73:e4:2c:dc:bd:2e:40:18:c4:0f:df:f6:f4:3d:29:
        eb:1d:3f:0e:55:ab:30:e4:53:bf:36:96:68:ae:8e:fd:10:de:
        0e:41:44:79:9e:0f:ba:10:58:d1:09:c5:62:63:fd:4e:2f:fe:
        a1:1b:33:a9:31:16:99:ac:59:cd:94:ae:29:75:b3:0e:c5:1b:
        53:6b:99:15:7c:1b:60:74:14:62:86:49:3e:1b:a0:1a:a7:30:
        17:fa:5a:8c:15:ab:06:b5:0a:71:a9:2f:b1:27:43:66:48:3b:
        47:b8:60:ab:96:5a:01:00:94:dc:49:63:92:a3:11:ee:5b:23:
        8a:6a:bf:92:09:e4:46:35:85:26:f4:2a:a9:24:7e:fa:30:36:
        eb:df:bc:90:2f:27:b3:9c:05:b5:eb:a7:c4:e4:1e:f4:bf:81:
        1b:3a:23:a2
-----BEGIN CERTIFICATE-----
MIIDWjCCAkKgAwIBAgIRAOQ5h1Oa4s3hzHpelKYFm1swDQYJKoZIhvcNAQELBQAw
FTETMBEGA1UEAwwKdGVhbTE0LW5ldDAeFw0yMzA0MjAyMjUzNDNaFw0yNjA0MDQy
MjUzNDNaMBgxFjAUBgNVBAMMDXRlYW0xNC1jbGllbnQwggEiMA0GCSqGSIb3DQEB
AQUAA4IBDwAwggEKAoIBAQC1e8YPOXLZFc5BuPBu5tmhI1NyTfqBplMOafAZrhTQ
+mHtM+H3hIwndOsEmhUKUtLccBgCiORqwbWWY8Y868beGQT2Kf0ifZ2nKMZkog8O
qUNzkbbI0yGbvZDp3YcaBN0OS8l3rS0+hxklYfuajjeWYnLeHs2SLqc9EoKN9PTf
t41MXOQPvlK8140A1kAssqB3o70x42e257He6+/y+9Nblv9nMBTe7VKeweWiw2Au
TICt3GhKoPTD0uiV0cmtIq94OtL9SENVan1Psx/vWpzoAIhyiH27mR1U9q2K4w9t
81K/fln8VREoPWTkAC0sznK+4eHUTCShglGygFNV8Ov1AgMBAAGjgaEwgZ4wCQYD
VR0TBAIwADAdBgNVHQ4EFgQUmVbM4x9yJy4pyd18z+JVb6SxyrMwUAYDVR0jBEkw
R4AU7hPU/YYlGmFKz+F2ZFGx2Oz0JlehGaQXMBUxEzARBgNVBAMMCnRlYW0xNC1u
ZXSCFHmwlu2Z6Zl+iG26Gis9KqpCt59SMBMGA1UdJQQMMAoGCCsGAQUFBwMCMAsG
A1UdDwQEAwIHgDANBgkqhkiG9w0BAQsFAAOCAQEASVMU9Y49hSzhBw68rwwsMLke
hy/PgNeqPqweL8S2v5W9QN8wyvvuNCUawmqb85+fSQsv2tjNOfiV0ZMvkbwEN/oT
Gh0L2wkg62sqgP8M4WwtdMrxhvGOUYM3lJHMc+Qs3L0uQBjED9/29D0p6x0/DlWr
MORTvzaWaK6O/RDeDkFEeZ4PuhBY0QnFYmP9Ti/+oRszqTEWmaxZzZSuKXWzDsUb
U2uZFXwbYHQUYoZJPhugGqcwF/pajBWrBrUKcakvsSdDZkg7R7hgq5ZaAQCU3Elj
kqMR7lsjimq/kgnkRjWFJvQqqSR++jA269+8kC8ns5wFteunxOQe9L+BGzojog==
-----END CERTIFICATE-----
