Certificate:
    Data:
        Version: 3 (0x2)
        Serial Number:
            10:59:38:2c:7a:2a:6a:ec:0e:80:3c:0e:47:1d:ca:61
        Signature Algorithm: sha256WithRSAEncryption
        Issuer: CN=team21-net
        Validity
            Not Before: Apr 20 22:53:55 2023 GMT
            Not After : Apr  4 22:53:55 2026 GMT
        Subject: CN=team21-client
        Subject Public Key Info:
            Public Key Algorithm: rsaEncryption
                Public-Key: (2048 bit)
                Modulus:
                    00:ba:03:cc:c6:3e:b9:63:56:62:d5:3c:ae:f0:84:
                    14:84:50:b5:a4:9a:54:02:ca:7a:53:c4:03:9d:68:
                    a9:07:8a:15:e3:2c:f0:ed:92:6d:07:ae:25:5d:3d:
                    1a:43:8d:af:8c:d3:38:09:80:66:f3:7a:8f:bf:14:
                    94:fd:7b:c0:60:26:60:94:a6:be:ef:34:91:17:56:
                    18:da:47:c7:c3:98:31:c5:6f:d8:94:7c:12:0c:ef:
                    e8:7b:ec:2b:99:0b:17:b7:91:13:cf:97:a6:b8:09:
                    c4:5e:ea:93:4a:32:ce:0d:91:96:7c:5b:fa:02:f6:
                    0d:f4:f2:45:b7:c0:24:c7:cb:eb:c1:9a:86:8e:8a:
                    e8:62:ce:b2:0c:f2:75:9e:c0:ff:1b:db:68:d6:b9:
                    1a:f2:07:4a:71:96:03:d4:38:bc:e2:96:ad:7c:c6:
                    da:e2:85:28:5a:42:8b:d3:e7:f4:78:58:08:4c:07:
                    e0:fd:4c:75:a4:2f:7b:5e:7a:8b:3d:3c:08:b6:44:
                    68:25:0b:3a:aa:05:4c:7b:9f:7b:8c:5d:37:c5:05:
                    dd:fa:4a:f8:2e:27:26:48:b5:3a:6d:55:1b:7a:3f:
                    02:b5:9b:19:66:44:f1:e0:d5:db:7a:f0:53:41:7f:
                    d5:b4:bc:14:5e:21:5a:a2:7f:d1:03:8f:30:d9:fa:
                    16:03
                Exponent: 65537 (0x10001)
        X509v3 extensions:
            X509v3 Basic Constraints: 
                CA:FALSE
            X509v3 Subject Key Identifier: 
                5A:49:62:A3:39:8D:C0:78:1A:2A:74:73:E8:8F:BD:9F:6A:5C:5D:D1
            X509v3 Authority Key Identifier: 
                keyid:75:44:BB:F7:F8:BD:8A:40:7B:6A:4F:AD:F1:A3:79:EC:A9:0B:2E:A0
                DirName:/CN=team21-net
                serial:38:24:C3:60:AB:91:8E:19:13:68:E2:75:A7:01:38:09:FB:5F:67:FB
            X509v3 Extended Key Usage: 
                TLS Web Client Authentication
            X509v3 Key Usage: 
                Digital Signature
    Signature Algorithm: sha256WithRSAEncryption
    Signature Value:
        1a:58:99:28:c9:5b:28:bc:d4:52:28:5a:1b:79:11:28:fb:20:
        4b:8f:ba:f5:ff:5a:17:20:ee:aa:db:63:94:fa:b0:1d:0c:84:
        9b:ca:77:d8:7a:9d:2b:0c:84:cf:7c:98:35:0a:6b:a7:05:4d:
        c1:77:77:e0:8a:ea:62:fa:77:1e:33:46:60:56:2c:92:99:00:
        9d:5b:ea:5c:80:24:da:59:1a:4d:f2:4d:39:8c:53:4a:7a:67:
        59:3c:72:6b:7f:22:2a:51:80:e3:2e:9f:2d:06:03:8b:f7:a1:
        5e:c7:03:9b:b6:e0:04:92:7a:eb:a2:83:33:a5:9e:6b:4c:ee:
        da:3b:0f:cc:7e:d1:e0:74:0f:a1:88:ab:96:ce:bf:6e:c7:74:
        88:ec:19:3c:27:6f:a5:e9:93:d3:e3:54:90:38:a9:9e:6e:1d:
        8e:a5:a3:71:d6:29:a6:6d:89:06:79:18:30:38:d8:de:0b:06:
        30:5d:fd:dc:21:a3:52:11:c8:dc:43:eb:20:eb:e8:c1:9c:5e:
        bd:8f:c4:2a:bf:66:43:81:3f:58:47:6e:d0:61:81:31:1f:8f:
        8d:d8:f4:4a:f9:46:97:3c:f1:32:be:e9:1f:34:e6:83:72:30:
        ce:df:27:86:7e:6c:fe:9f:74:91:6d:81:4b:73:a7:91:72:0d:
        ea:e8:7b:76
-----BEGIN CERTIFICATE-----
MIIDWTCCAkGgAwIBAgIQEFk4LHoqauwOgDwORx3KYTANBgkqhkiG9w0BAQsFADAV
MRMwEQYDVQQDDAp0ZWFtMjEtbmV0MB4XDTIzMDQyMDIyNTM1NVoXDTI2MDQwNDIy
NTM1NVowGDEWMBQGA1UEAwwNdGVhbTIxLWNsaWVudDCCASIwDQYJKoZIhvcNAQEB
BQADggEPADCCAQoCggEBALoDzMY+uWNWYtU8rvCEFIRQtaSaVALKelPEA51oqQeK
FeMs8O2SbQeuJV09GkONr4zTOAmAZvN6j78UlP17wGAmYJSmvu80kRdWGNpHx8OY
McVv2JR8Egzv6HvsK5kLF7eRE8+XprgJxF7qk0oyzg2Rlnxb+gL2DfTyRbfAJMfL
68Gaho6K6GLOsgzydZ7A/xvbaNa5GvIHSnGWA9Q4vOKWrXzG2uKFKFpCi9Pn9HhY
CEwH4P1MdaQve156iz08CLZEaCULOqoFTHufe4xdN8UF3fpK+C4nJki1Om1VG3o/
ArWbGWZE8eDV23rwU0F/1bS8FF4hWqJ/0QOPMNn6FgMCAwEAAaOBoTCBnjAJBgNV
HRMEAjAAMB0GA1UdDgQWBBRaSWKjOY3AeBoqdHPoj72falxd0TBQBgNVHSMESTBH
gBR1RLv3+L2KQHtqT63xo3nsqQsuoKEZpBcwFTETMBEGA1UEAwwKdGVhbTIxLW5l
dIIUOCTDYKuRjhkTaOJ1pwE4CftfZ/swEwYDVR0lBAwwCgYIKwYBBQUHAwIwCwYD
VR0PBAQDAgeAMA0GCSqGSIb3DQEBCwUAA4IBAQAaWJkoyVsovNRSKFobeREo+yBL
j7r1/1oXIO6q22OU+rAdDISbynfYep0rDITPfJg1CmunBU3Bd3fgiupi+nceM0Zg
ViySmQCdW+pcgCTaWRpN8k05jFNKemdZPHJrfyIqUYDjLp8tBgOL96FexwObtuAE
knrrooMzpZ5rTO7aOw/MftHgdA+hiKuWzr9ux3SI7Bk8J2+l6ZPT41SQOKmebh2O
paNx1immbYkGeRgwONjeCwYwXf3cIaNSEcjcQ+sg6+jBnF69j8Qqv2ZDgT9YR27Q
YYExH4+N2PRK+UaXPPEyvukfNOaDcjDO3yeGfmz+n3SRbYFLc6eRcg3q6Ht2
-----END CERTIFICATE-----
