Certificate:
    Data:
        Version: 3 (0x2)
        Serial Number:
            7a:08:e0:18:cb:3d:cd:6b:59:08:76:4b:29:d9:1d:f8
        Signature Algorithm: sha256WithRSAEncryption
        Issuer: CN=team21-net
        Validity
            Not Before: Apr 20 22:53:56 2023 GMT
            Not After : Apr  4 22:53:56 2026 GMT
        Subject: CN=team21-server
        Subject Public Key Info:
            Public Key Algorithm: rsaEncryption
                Public-Key: (2048 bit)
                Modulus:
                    00:91:3f:f9:cf:b1:38:af:30:23:32:fe:46:6b:cc:
                    92:e9:87:24:5f:9c:85:41:c6:ee:4b:a8:77:d6:cc:
                    3a:72:08:88:2b:3b:15:e7:f9:e4:ee:86:7d:e9:2e:
                    4f:f6:cd:dc:09:2a:ef:51:62:27:3f:6e:53:4d:80:
                    06:e5:18:22:c0:ce:b2:59:89:16:38:7d:2c:03:36:
                    74:9f:f5:ac:67:24:d7:56:a0:ac:4b:c3:ba:ca:a1:
                    88:50:86:43:26:32:cf:ec:99:01:a4:c1:ac:b1:0d:
                    cf:6a:95:00:34:fa:eb:44:0b:1e:7a:95:f7:48:5a:
                    ac:65:42:8f:f6:ab:d8:7c:72:bc:44:a1:1e:39:23:
                    d7:49:40:28:69:4a:ea:b5:f5:c0:ff:e5:6b:4a:1c:
                    8d:11:db:6f:f2:c8:d6:49:3b:d5:87:81:05:70:57:
                    9e:0c:eb:85:b2:3c:01:15:d2:9a:a9:95:89:c7:5d:
                    79:14:e6:9a:7e:6a:a4:3a:d3:ef:cd:ab:8e:f2:9a:
                    07:7f:32:35:93:d4:0b:c5:5a:74:10:27:99:49:3e:
                    44:c0:2f:32:f6:08:23:20:1c:2c:18:6b:95:0a:ad:
                    1b:94:f4:11:10:15:66:91:5b:64:95:4d:dc:9b:5f:
                    1b:bd:48:59:b3:3e:32:d1:30:bd:af:84:fd:33:86:
                    3b:9d
                Exponent: 65537 (0x10001)
        X509v3 extensions:
            X509v3 Basic Constraints: 
                CA:FALSE
            X509v3 Subject Key Identifier: 
                91:81:97:A1:12:25:E8:A7:48:8C:EF:C1:09:1F:92:C5:74:20:DF:73
            X509v3 Authority Key Identifier: 
                keyid:75:44:BB:F7:F8:BD:8A:40:7B:6A:4F:AD:F1:A3:79:EC:A9:0B:2E:A0
                DirName:/CN=team21-net
                serial:38:24:C3:60:AB:91:8E:19:13:68:E2:75:A7:01:38:09:FB:5F:67:FB
            X509v3 Extended Key Usage: 
                TLS Web Server Authentication
            X509v3 Key Usage: 
                Digital Signature, Key Encipherment
            X509v3 Subject Alternative Name: 
                DNS:team21-server
    Signature Algorithm: sha256WithRSAEncryption
    Signature Value:
        4c:9c:81:86:15:43:22:59:a9:0b:83:81:67:06:e0:94:a7:0f:
        d6:4a:83:52:68:ec:d6:e5:9d:44:0c:1c:65:27:a0:ea:8b:7f:
        12:bc:cc:db:08:09:7b:9b:38:cd:a7:88:76:f2:d7:de:47:1f:
        a3:2c:94:91:c6:94:77:62:1a:b0:fa:4b:84:9c:04:99:ef:5d:
        a0:37:53:c9:52:60:04:85:1b:62:b7:e0:d1:c9:f6:cf:01:b7:
        5c:75:9d:c3:09:77:28:1a:90:4a:63:73:a5:1f:94:50:a2:f0:
        06:05:6b:55:c5:ad:04:86:05:e1:f0:99:0e:d5:b9:93:3e:3e:
        09:da:ca:45:cd:13:93:1d:a0:d6:4e:18:de:cc:7c:fd:4a:f7:
        bc:3b:6d:7e:c0:da:ce:99:03:1b:a4:ff:c1:54:a5:ec:96:5f:
        3b:c6:c4:fd:da:1e:ce:95:e0:ea:c4:45:49:60:fe:20:5c:63:
        c0:58:88:5e:c8:74:00:d2:d6:ed:4d:39:95:68:d3:60:52:0b:
        23:83:10:24:2c:a3:1c:65:11:11:c0:27:37:41:d1:8d:98:90:
        b1:54:6b:2c:13:a7:82:9e:6d:01:bf:59:76:48:5d:72:3b:d6:
        1b:8d:ef:26:2f:a6:c4:eb:84:6c:6c:5a:5c:95:2f:43:82:ac:
        08:74:cd:98
-----BEGIN CERTIFICATE-----
MIIDczCCAlugAwIBAgIQegjgGMs9zWtZCHZLKdkd+DANBgkqhkiG9w0BAQsFADAV
MRMwEQYDVQQDDAp0ZWFtMjEtbmV0MB4XDTIzMDQyMDIyNTM1NloXDTI2MDQwNDIy
NTM1NlowGDEWMBQGA1UEAwwNdGVhbTIxLXNlcnZlcjCCASIwDQYJKoZIhvcNAQEB
BQADggEPADCCAQoCggEBAJE/+c+xOK8wIzL+RmvMkumHJF+chUHG7kuod9bMOnII
iCs7Fef55O6GfekuT/bN3Akq71FiJz9uU02ABuUYIsDOslmJFjh9LAM2dJ/1rGck
11agrEvDusqhiFCGQyYyz+yZAaTBrLENz2qVADT660QLHnqV90harGVCj/ar2Hxy
vEShHjkj10lAKGlK6rX1wP/la0ocjRHbb/LI1kk71YeBBXBXngzrhbI8ARXSmqmV
icddeRTmmn5qpDrT782rjvKaB38yNZPUC8VadBAnmUk+RMAvMvYIIyAcLBhrlQqt
G5T0ERAVZpFbZJVN3JtfG71IWbM+MtEwva+E/TOGO50CAwEAAaOBuzCBuDAJBgNV
HRMEAjAAMB0GA1UdDgQWBBSRgZehEiXop0iM78EJH5LFdCDfczBQBgNVHSMESTBH
gBR1RLv3+L2KQHtqT63xo3nsqQsuoKEZpBcwFTETMBEGA1UEAwwKdGVhbTIxLW5l
dIIUOCTDYKuRjhkTaOJ1pwE4CftfZ/swEwYDVR0lBAwwCgYIKwYBBQUHAwEwCwYD
VR0PBAQDAgWgMBgGA1UdEQQRMA+CDXRlYW0yMS1zZXJ2ZXIwDQYJKoZIhvcNAQEL
BQADggEBAEycgYYVQyJZqQuDgWcG4JSnD9ZKg1Jo7NblnUQMHGUnoOqLfxK8zNsI
CXubOM2niHby195HH6MslJHGlHdiGrD6S4ScBJnvXaA3U8lSYASFG2K34NHJ9s8B
t1x1ncMJdygakEpjc6UflFCi8AYFa1XFrQSGBeHwmQ7VuZM+PgnaykXNE5MdoNZO
GN7MfP1K97w7bX7A2s6ZAxuk/8FUpeyWXzvGxP3aHs6V4OrERUlg/iBcY8BYiF7I
dADS1u1NOZVo02BSCyODECQsoxxlERHAJzdB0Y2YkLFUaywTp4KebQG/WXZIXXI7
1huN7yYvpsTrhGxsWlyVL0OCrAh0zZg=
-----END CERTIFICATE-----
