Certificate:
    Data:
        Version: 3 (0x2)
        Serial Number:
            fa:f9:4e:8e:59:96:12:cc:33:2e:72:25:1e:e5:c1:fe
        Signature Algorithm: sha256WithRSAEncryption
        Issuer: CN=team21-net
        Validity
            Not Before: Apr 20 00:10:26 2023 GMT
            Not After : Apr  4 00:10:26 2026 GMT
        Subject: CN=team21-server
        Subject Public Key Info:
            Public Key Algorithm: rsaEncryption
                Public-Key: (2048 bit)
                Modulus:
                    00:ac:80:c8:1a:83:51:b9:c0:66:58:3b:cd:2b:3e:
                    2e:2d:ab:06:c9:ed:f4:01:13:ab:a6:43:0d:eb:c6:
                    d7:a0:82:2c:f3:8c:8a:68:ad:46:dd:cd:ed:16:3b:
                    02:4c:2c:df:aa:3c:e9:a3:b3:51:f1:5a:3f:30:5d:
                    df:8b:3f:ae:5d:96:90:97:ce:6d:3f:a9:55:4e:15:
                    d6:db:2e:72:45:86:cf:44:e9:a0:67:08:a1:53:e6:
                    28:22:59:f5:38:e1:98:f9:ea:b8:3c:54:ff:3e:f9:
                    cd:56:8a:96:96:05:9d:c1:3d:e4:b7:5d:15:50:96:
                    31:8f:a9:20:77:e3:12:c8:7a:97:56:c9:58:27:b5:
                    4d:8a:4a:9a:e4:cc:fe:2b:05:3e:56:c2:2e:3d:83:
                    2b:21:82:94:19:94:ac:f0:4f:1c:20:30:39:61:3a:
                    24:c0:b1:2d:7c:51:dd:44:78:fa:11:e6:fe:ee:e6:
                    2f:31:ff:cb:47:12:61:e5:51:f5:a4:77:25:40:ac:
                    7a:5b:01:c3:c3:f9:8c:91:13:31:e3:27:d8:ee:be:
                    7a:f8:5c:cb:93:41:f4:85:55:47:0d:ae:f3:77:0a:
                    37:16:ee:86:c0:f9:9a:fb:be:ab:cb:79:8a:db:70:
                    b5:72:37:31:f7:ae:7f:f0:2f:d9:97:19:8e:cb:7c:
                    30:ff
                Exponent: 65537 (0x10001)
        X509v3 extensions:
            X509v3 Basic Constraints: 
                CA:FALSE
            X509v3 Subject Key Identifier: 
                B4:4C:6F:05:13:A9:83:85:82:7A:F5:59:5F:B2:94:C9:48:B9:F3:0C
            X509v3 Authority Key Identifier: 
                keyid:02:91:A4:75:24:B2:50:45:DB:77:7B:49:9C:9E:27:A0:F7:86:92:B0
                DirName:/CN=team21-net
                serial:1A:58:21:0F:E3:18:47:BF:46:1A:1D:58:8F:67:01:BC:C0:4E:A4:8E
            X509v3 Extended Key Usage: 
                TLS Web Server Authentication
            X509v3 Key Usage: 
                Digital Signature, Key Encipherment
            X509v3 Subject Alternative Name: 
                DNS:team21-server
    Signature Algorithm: sha256WithRSAEncryption
    Signature Value:
        14:81:44:c8:5c:d1:90:be:96:3d:79:4a:81:44:bd:dc:27:b7:
        43:34:3f:50:fa:b0:03:ad:61:56:02:b2:b1:c2:e1:a3:c3:d0:
        e7:2d:a2:66:89:a7:61:63:25:ee:52:d6:a5:6a:5d:f5:f0:6d:
        4c:5c:33:f9:90:7b:cb:0e:d0:47:1e:f7:ea:86:c3:e4:0e:c6:
        7b:f0:e6:ec:e2:1d:f8:5e:d4:de:37:79:91:c5:09:7e:14:ef:
        37:98:46:0a:41:79:84:83:12:4f:6f:e7:aa:56:2f:a8:2c:e0:
        37:2d:98:11:63:4c:b2:13:fe:56:75:37:ec:d4:bd:6c:34:89:
        83:5b:e7:73:bf:a7:95:60:ae:13:b3:bc:0c:1c:72:44:a5:54:
        91:f0:d8:c6:fa:f3:b5:e7:bf:f1:39:c9:24:97:54:90:3a:f8:
        4a:fb:ee:30:fb:67:0d:30:59:96:de:3b:68:61:d1:03:8a:6e:
        74:5e:32:bd:6a:79:de:d0:78:29:68:77:9a:c0:ea:c0:f4:ce:
        e0:4b:c3:67:27:66:a5:9f:08:df:38:bc:3f:db:ab:7e:bc:27:
        0a:de:e4:e7:8a:d2:c7:cd:28:31:4b:c9:bf:14:af:9f:e5:e3:
        d9:6f:6e:c3:36:73:fc:7b:b7:87:bc:85:7a:23:4c:84:3a:15:
        6f:fd:af:02
-----BEGIN CERTIFICATE-----
MIIDdDCCAlygAwIBAgIRAPr5To5ZlhLMMy5yJR7lwf4wDQYJKoZIhvcNAQELBQAw
FTETMBEGA1UEAwwKdGVhbTIxLW5ldDAeFw0yMzA0MjAwMDEwMjZaFw0yNjA0MDQw
MDEwMjZaMBgxFjAUBgNVBAMMDXRlYW0yMS1zZXJ2ZXIwggEiMA0GCSqGSIb3DQEB
AQUAA4IBDwAwggEKAoIBAQCsgMgag1G5wGZYO80rPi4tqwbJ7fQBE6umQw3rxteg
gizzjIporUbdze0WOwJMLN+qPOmjs1HxWj8wXd+LP65dlpCXzm0/qVVOFdbbLnJF
hs9E6aBnCKFT5igiWfU44Zj56rg8VP8++c1WipaWBZ3BPeS3XRVQljGPqSB34xLI
epdWyVgntU2KSprkzP4rBT5Wwi49gyshgpQZlKzwTxwgMDlhOiTAsS18Ud1EePoR
5v7u5i8x/8tHEmHlUfWkdyVArHpbAcPD+YyREzHjJ9juvnr4XMuTQfSFVUcNrvN3
CjcW7obA+Zr7vqvLeYrbcLVyNzH3rn/wL9mXGY7LfDD/AgMBAAGjgbswgbgwCQYD
VR0TBAIwADAdBgNVHQ4EFgQUtExvBROpg4WCevVZX7KUyUi58wwwUAYDVR0jBEkw
R4AUApGkdSSyUEXbd3tJnJ4noPeGkrChGaQXMBUxEzARBgNVBAMMCnRlYW0yMS1u
ZXSCFBpYIQ/jGEe/RhodWI9nAbzATqSOMBMGA1UdJQQMMAoGCCsGAQUFBwMBMAsG
A1UdDwQEAwIFoDAYBgNVHREEETAPgg10ZWFtMjEtc2VydmVyMA0GCSqGSIb3DQEB
CwUAA4IBAQAUgUTIXNGQvpY9eUqBRL3cJ7dDND9Q+rADrWFWArKxwuGjw9DnLaJm
iadhYyXuUtalal318G1MXDP5kHvLDtBHHvfqhsPkDsZ78Obs4h34XtTeN3mRxQl+
FO83mEYKQXmEgxJPb+eqVi+oLOA3LZgRY0yyE/5WdTfs1L1sNImDW+dzv6eVYK4T
s7wMHHJEpVSR8NjG+vO157/xOckkl1SQOvhK++4w+2cNMFmW3jtoYdEDim50XjK9
anne0HgpaHeawOrA9M7gS8NnJ2alnwjfOLw/26t+vCcK3uTnitLHzSgxS8m/FK+f
5ePZb27DNnP8e7eHvIV6I0yEOhVv/a8C
-----END CERTIFICATE-----
