Certificate:
    Data:
        Version: 3 (0x2)
        Serial Number:
            83:1c:62:3f:d1:04:07:4c:5a:cf:3a:e9:d7:38:85:05
        Signature Algorithm: sha256WithRSAEncryption
        Issuer: CN=team19-net
        Validity
            Not Before: Apr 20 22:53:52 2023 GMT
            Not After : Apr  4 22:53:52 2026 GMT
        Subject: CN=team19-client
        Subject Public Key Info:
            Public Key Algorithm: rsaEncryption
                Public-Key: (2048 bit)
                Modulus:
                    00:a8:74:0d:7c:bd:04:97:74:db:2b:1d:cf:ad:b1:
                    4b:15:fc:5e:4d:aa:be:52:13:60:ed:60:4e:d3:10:
                    8a:ea:97:68:5d:da:dd:d7:91:76:07:f5:b8:0b:41:
                    57:d8:55:2a:d0:50:22:39:9b:4d:9d:7a:b7:b2:3d:
                    16:d4:a5:86:d0:e3:49:90:ce:e3:5d:28:28:2f:d1:
                    f7:05:ad:48:98:07:02:87:8c:a2:17:bc:5c:2e:57:
                    6d:e2:8d:ba:11:fd:c9:ef:0f:e0:5b:86:56:25:da:
                    6f:32:89:59:68:58:18:2b:e2:c1:5b:a2:cd:c9:2a:
                    e4:47:fd:6f:97:88:f4:3d:f3:f6:d5:b1:5b:0e:fb:
                    ca:91:f1:65:e9:e6:12:60:0b:f7:32:2a:24:4c:02:
                    0f:50:6c:44:2d:42:91:1d:70:fa:75:87:58:83:d8:
                    6e:c7:46:85:4e:50:56:03:d4:e6:0e:c3:55:2d:e3:
                    89:bb:bf:d3:55:b0:95:b0:b5:9f:04:53:05:e0:04:
                    e4:a9:3e:d1:61:ff:22:eb:e4:bf:49:c3:9d:98:ed:
                    99:ca:54:fc:34:c3:74:ef:d4:06:9d:d2:31:8f:06:
                    39:76:bd:75:a2:30:41:6d:e5:ed:7e:27:fe:d3:35:
                    1a:8a:4e:c6:be:d1:63:04:51:fe:2c:49:82:20:14:
                    69:bf
                Exponent: 65537 (0x10001)
        X509v3 extensions:
            X509v3 Basic Constraints: 
                CA:FALSE
            X509v3 Subject Key Identifier: 
                C2:95:CF:2D:D7:78:11:BA:E6:74:DE:A1:1C:E3:11:90:E6:72:86:17
            X509v3 Authority Key Identifier: 
                keyid:23:03:CE:D4:1E:0A:71:4F:A8:CB:10:74:72:AC:5D:74:CD:4D:FB:B0
                DirName:/CN=team19-net
                serial:5B:F4:A8:A4:4C:E0:88:28:EF:DB:82:81:03:5A:40:B2:47:0A:3A:4F
            X509v3 Extended Key Usage: 
                TLS Web Client Authentication
            X509v3 Key Usage: 
                Digital Signature
    Signature Algorithm: sha256WithRSAEncryption
    Signature Value:
        69:83:32:65:f6:7f:48:83:36:29:41:83:9a:85:7d:84:9d:c2:
        71:0b:9d:e3:56:54:71:7f:37:d8:fb:14:1e:c5:60:9c:3f:61:
        02:f9:79:12:2b:ac:69:ce:93:30:78:d7:31:5e:8c:97:1e:43:
        54:fd:b6:69:27:61:b6:8e:79:9c:a6:8f:f7:88:34:8a:8e:2e:
        01:a7:0c:83:d1:60:be:9f:70:99:52:5e:b9:19:5d:94:7e:9e:
        10:a7:b1:68:f4:d7:c1:ff:96:c8:fa:d7:99:56:d4:be:cc:3c:
        e1:f4:20:18:5f:f0:5f:31:9f:2c:98:bd:89:7f:7b:8e:68:da:
        fa:68:21:c1:ee:4d:c0:e6:1d:da:37:8f:70:8f:c2:39:f0:e3:
        ac:6f:8d:ea:43:c5:ab:73:81:b3:65:c8:02:14:88:14:05:1d:
        5b:9e:d4:15:bc:33:d6:e1:36:d6:9f:eb:9e:f6:c7:92:30:bc:
        61:64:0e:74:da:82:55:63:63:9e:04:09:8f:c2:6e:a6:eb:11:
        19:30:cd:fe:8c:5b:3d:9d:f7:59:fe:56:9b:86:23:29:12:d3:
        ef:55:45:b9:89:b7:da:0d:d5:42:16:4b:9d:a1:78:5a:c2:e4:
        53:3a:4a:f4:2b:f8:48:0e:d5:85:d3:02:d4:da:90:2f:34:87:
        11:f0:3d:71
-----BEGIN CERTIFICATE-----
MIIDWjCCAkKgAwIBAgIRAIMcYj/RBAdMWs866dc4hQUwDQYJKoZIhvcNAQELBQAw
FTETMBEGA1UEAwwKdGVhbTE5LW5ldDAeFw0yMzA0MjAyMjUzNTJaFw0yNjA0MDQy
MjUzNTJaMBgxFjAUBgNVBAMMDXRlYW0xOS1jbGllbnQwggEiMA0GCSqGSIb3DQEB
AQUAA4IBDwAwggEKAoIBAQCodA18vQSXdNsrHc+tsUsV/F5Nqr5SE2DtYE7TEIrq
l2hd2t3XkXYH9bgLQVfYVSrQUCI5m02dereyPRbUpYbQ40mQzuNdKCgv0fcFrUiY
BwKHjKIXvFwuV23ijboR/cnvD+BbhlYl2m8yiVloWBgr4sFbos3JKuRH/W+XiPQ9
8/bVsVsO+8qR8WXp5hJgC/cyKiRMAg9QbEQtQpEdcPp1h1iD2G7HRoVOUFYD1OYO
w1Ut44m7v9NVsJWwtZ8EUwXgBOSpPtFh/yLr5L9Jw52Y7ZnKVPw0w3Tv1Aad0jGP
Bjl2vXWiMEFt5e1+J/7TNRqKTsa+0WMEUf4sSYIgFGm/AgMBAAGjgaEwgZ4wCQYD
VR0TBAIwADAdBgNVHQ4EFgQUwpXPLdd4EbrmdN6hHOMRkOZyhhcwUAYDVR0jBEkw
R4AUIwPO1B4KcU+oyxB0cqxddM1N+7ChGaQXMBUxEzARBgNVBAMMCnRlYW0xOS1u
ZXSCFFv0qKRM4Igo79uCgQNaQLJHCjpPMBMGA1UdJQQMMAoGCCsGAQUFBwMCMAsG
A1UdDwQEAwIHgDANBgkqhkiG9w0BAQsFAAOCAQEAaYMyZfZ/SIM2KUGDmoV9hJ3C
cQud41ZUcX832PsUHsVgnD9hAvl5Eiusac6TMHjXMV6Mlx5DVP22aSdhto55nKaP
94g0io4uAacMg9Fgvp9wmVJeuRldlH6eEKexaPTXwf+WyPrXmVbUvsw84fQgGF/w
XzGfLJi9iX97jmja+mghwe5NwOYd2jePcI/COfDjrG+N6kPFq3OBs2XIAhSIFAUd
W57UFbwz1uE21p/rnvbHkjC8YWQOdNqCVWNjngQJj8JupusRGTDN/oxbPZ33Wf5W
m4YjKRLT71VFuYm32g3VQhZLnaF4WsLkUzpK9Cv4SA7VhdMC1NqQLzSHEfA9cQ==
-----END CERTIFICATE-----
