Certificate:
    Data:
        Version: 3 (0x2)
        Serial Number:
            94:6f:d4:c2:c5:82:ba:c5:3d:30:12:5b:c5:8b:6f:98
        Signature Algorithm: sha256WithRSAEncryption
        Issuer: CN=team19-net
        Validity
            Not Before: Apr 20 00:10:23 2023 GMT
            Not After : Apr  4 00:10:23 2026 GMT
        Subject: CN=team19-client
        Subject Public Key Info:
            Public Key Algorithm: rsaEncryption
                Public-Key: (2048 bit)
                Modulus:
                    00:cd:e2:d4:0e:bd:f7:0e:dc:d9:3d:f0:92:c4:5a:
                    82:56:c6:d8:8a:7c:2c:12:a0:e0:73:80:8f:0f:09:
                    df:58:32:67:f3:2e:49:19:8b:a5:53:1d:06:81:82:
                    21:0f:14:34:f9:c6:d9:3f:89:19:b4:6f:4b:55:69:
                    89:c7:4d:54:eb:24:fd:ac:5f:cd:57:f1:c7:2c:4d:
                    49:db:0d:a4:3f:ad:d8:38:e8:20:42:b1:47:8f:9f:
                    33:0e:ca:a5:93:4c:43:9c:74:e8:ba:cb:83:a2:a9:
                    4d:ee:b7:18:f4:49:40:1f:b8:fd:c7:c0:c7:89:db:
                    1a:ee:11:6c:c8:06:61:02:c9:71:81:b8:fb:78:c8:
                    7f:8f:bc:d3:34:27:79:1b:6a:2a:d7:da:26:44:b0:
                    c2:e7:ec:5c:60:0d:b8:d4:78:75:54:f7:06:82:7e:
                    6c:e9:8f:39:a4:45:0f:be:bb:98:d3:86:d9:fc:73:
                    23:2e:72:84:20:06:03:06:9c:a0:ea:e7:ad:35:c8:
                    d8:84:54:f8:ea:98:cc:2a:fc:3c:db:74:c6:15:5a:
                    2a:75:05:c0:ce:2d:47:7e:1c:dc:78:39:87:8d:af:
                    9e:2d:57:d7:8e:02:48:7c:88:bb:06:f9:ac:07:d9:
                    44:d3:39:b0:6f:0f:8d:5a:c0:fb:28:33:c4:32:5c:
                    65:c5
                Exponent: 65537 (0x10001)
        X509v3 extensions:
            X509v3 Basic Constraints: 
                CA:FALSE
            X509v3 Subject Key Identifier: 
                10:33:DD:EE:B2:41:60:BB:0B:4E:76:55:C9:57:07:CE:07:A5:81:4F
            X509v3 Authority Key Identifier: 
                keyid:C6:1A:A1:DD:23:DD:3B:1B:CC:E1:85:C9:36:98:ED:F5:AE:E3:01:7C
                DirName:/CN=team19-net
                serial:15:2D:42:AF:F0:A4:A6:85:D2:B8:05:3A:7A:5E:FE:B6:3C:61:D6:D4
            X509v3 Extended Key Usage: 
                TLS Web Client Authentication
            X509v3 Key Usage: 
                Digital Signature
    Signature Algorithm: sha256WithRSAEncryption
    Signature Value:
        46:d1:a9:24:f3:72:9d:58:a9:2f:7e:a5:37:02:06:79:31:0b:
        aa:20:26:65:5f:7d:56:33:f0:81:59:f6:58:90:e6:80:bb:a7:
        a7:cd:5c:12:44:f3:b5:11:5c:a5:25:23:c4:92:83:d8:48:00:
        80:44:fa:07:32:e1:91:f9:e5:36:25:ee:bc:2f:33:22:aa:39:
        27:f0:60:a4:19:f6:6d:fb:ed:39:da:f9:9e:43:68:fc:7f:7d:
        e1:e5:ae:48:65:cc:f7:fb:7f:d8:cc:4a:06:09:3e:0a:4b:f5:
        7e:0e:ec:79:c8:44:25:80:18:c4:b1:ce:a5:55:3a:de:39:ad:
        31:7c:63:d5:9a:65:59:85:60:3b:9b:7d:30:8b:46:47:54:d5:
        26:0d:41:54:85:fd:16:cd:91:74:be:bb:c9:4e:d2:d0:8c:13:
        30:f7:d7:00:ca:d5:40:b4:74:b7:0d:fb:c2:4a:77:61:49:47:
        75:6a:30:69:c8:38:97:76:ad:f1:63:a2:c5:43:f7:e6:c9:7c:
        b1:5d:69:fd:a8:c3:50:61:70:e0:63:31:cf:b2:14:07:47:5d:
        c9:1c:64:a6:26:f8:f5:18:a2:01:ba:9a:94:94:76:02:83:c3:
        ba:2d:7f:c4:1e:1f:79:ad:06:18:9d:d1:77:7c:51:b3:c7:d6:
        be:44:65:90
-----BEGIN CERTIFICATE-----
MIIDWjCCAkKgAwIBAgIRAJRv1MLFgrrFPTASW8WLb5gwDQYJKoZIhvcNAQELBQAw
FTETMBEGA1UEAwwKdGVhbTE5LW5ldDAeFw0yMzA0MjAwMDEwMjNaFw0yNjA0MDQw
MDEwMjNaMBgxFjAUBgNVBAMMDXRlYW0xOS1jbGllbnQwggEiMA0GCSqGSIb3DQEB
AQUAA4IBDwAwggEKAoIBAQDN4tQOvfcO3Nk98JLEWoJWxtiKfCwSoOBzgI8PCd9Y
MmfzLkkZi6VTHQaBgiEPFDT5xtk/iRm0b0tVaYnHTVTrJP2sX81X8ccsTUnbDaQ/
rdg46CBCsUePnzMOyqWTTEOcdOi6y4OiqU3utxj0SUAfuP3HwMeJ2xruEWzIBmEC
yXGBuPt4yH+PvNM0J3kbairX2iZEsMLn7FxgDbjUeHVU9waCfmzpjzmkRQ++u5jT
htn8cyMucoQgBgMGnKDq5601yNiEVPjqmMwq/DzbdMYVWip1BcDOLUd+HNx4OYeN
r54tV9eOAkh8iLsG+awH2UTTObBvD41awPsoM8QyXGXFAgMBAAGjgaEwgZ4wCQYD
VR0TBAIwADAdBgNVHQ4EFgQUEDPd7rJBYLsLTnZVyVcHzgelgU8wUAYDVR0jBEkw
R4AUxhqh3SPdOxvM4YXJNpjt9a7jAXyhGaQXMBUxEzARBgNVBAMMCnRlYW0xOS1u
ZXSCFBUtQq/wpKaF0rgFOnpe/rY8YdbUMBMGA1UdJQQMMAoGCCsGAQUFBwMCMAsG
A1UdDwQEAwIHgDANBgkqhkiG9w0BAQsFAAOCAQEARtGpJPNynVipL36lNwIGeTEL
qiAmZV99VjPwgVn2WJDmgLunp81cEkTztRFcpSUjxJKD2EgAgET6BzLhkfnlNiXu
vC8zIqo5J/BgpBn2bfvtOdr5nkNo/H994eWuSGXM9/t/2MxKBgk+Ckv1fg7sechE
JYAYxLHOpVU63jmtMXxj1ZplWYVgO5t9MItGR1TVJg1BVIX9Fs2RdL67yU7S0IwT
MPfXAMrVQLR0tw37wkp3YUlHdWowacg4l3at8WOixUP35sl8sV1p/ajDUGFw4GMx
z7IUB0ddyRxkpib49RiiAbqalJR2AoPDui1/xB4fea0GGJ3Rd3xRs8fWvkRlkA==
-----END CERTIFICATE-----
