Certificate:
    Data:
        Version: 3 (0x2)
        Serial Number:
            18:ab:d5:3a:56:21:3f:6b:96:c9:de:39:db:5d:4a:76
        Signature Algorithm: sha256WithRSAEncryption
        Issuer: CN=team58-net
        Validity
            Not Before: Apr 20 00:11:18 2023 GMT
            Not After : Apr  4 00:11:18 2026 GMT
        Subject: CN=team58-server
        Subject Public Key Info:
            Public Key Algorithm: rsaEncryption
                Public-Key: (2048 bit)
                Modulus:
                    00:cd:d3:71:06:e9:9f:67:5f:dc:62:f9:94:29:41:
                    58:6d:c1:4d:3f:51:8f:ee:bc:8b:88:13:41:cc:67:
                    65:76:8f:b5:c2:ce:3f:78:b5:1d:10:9f:01:88:63:
                    d1:ba:8f:7c:4a:e3:a6:f7:20:f5:ff:5c:64:a0:81:
                    f4:83:ed:d0:72:a8:04:e8:36:93:de:6f:47:11:7e:
                    30:9e:e9:fc:c9:0a:8b:8d:5c:3e:65:d6:75:9c:ea:
                    7b:af:07:34:17:58:f0:54:14:1e:9a:fc:02:21:b2:
                    43:42:3e:0a:d1:ed:b5:0f:58:6f:f9:92:2e:d5:ee:
                    48:2c:d0:9d:fb:85:dc:16:df:91:e1:0b:0a:cd:0e:
                    86:18:35:ca:22:b6:10:b3:49:ad:da:6b:40:18:f9:
                    d1:2a:d1:c1:b3:93:d9:78:77:d5:70:4f:78:3b:77:
                    14:a3:c0:3e:ea:48:41:96:e5:60:9c:0d:88:ff:bc:
                    56:99:68:f5:fa:ee:e9:0b:2d:ca:b6:88:bc:cc:d6:
                    e6:b7:05:d4:08:26:89:40:93:5e:d6:44:c2:bf:c5:
                    ac:fd:42:69:bc:03:60:c0:4f:3d:24:71:65:a2:b9:
                    2c:e3:79:9a:d7:6f:7e:61:39:ad:41:fa:da:58:cb:
                    51:d1:e8:06:de:94:d3:af:cb:f6:17:7b:cd:8b:48:
                    92:5f
                Exponent: 65537 (0x10001)
        X509v3 extensions:
            X509v3 Basic Constraints: 
                CA:FALSE
            X509v3 Subject Key Identifier: 
                18:6A:D8:CA:EA:B6:CC:85:B2:1D:8F:54:05:3B:51:CA:08:A6:F8:86
            X509v3 Authority Key Identifier: 
                keyid:63:65:F0:AB:89:50:C9:5F:AB:0E:7E:67:97:E0:8A:AF:1D:41:CB:E4
                DirName:/CN=team58-net
                serial:3C:6A:E8:59:EE:63:A4:3B:EA:10:D2:F0:62:0D:DC:E8:4C:9F:31:14
            X509v3 Extended Key Usage: 
                TLS Web Server Authentication
            X509v3 Key Usage: 
                Digital Signature, Key Encipherment
            X509v3 Subject Alternative Name: 
                DNS:team58-server
    Signature Algorithm: sha256WithRSAEncryption
    Signature Value:
        3e:a0:86:c2:8e:3e:bf:a4:49:b9:76:93:47:7c:5f:5e:60:87:
        c1:a6:9a:b4:d3:ba:d7:bc:cb:45:9f:d6:d3:68:96:66:c5:f8:
        8e:46:f1:ac:10:f4:58:f4:b3:f7:7d:dd:0a:ac:9a:c5:4b:b0:
        38:96:4a:82:56:d9:f1:19:b7:d8:02:05:70:7c:57:e6:79:58:
        f2:67:16:04:84:94:d5:71:28:5b:ce:10:42:04:78:88:4f:4d:
        f0:d7:b7:99:b2:a9:90:a2:a6:58:a0:f1:9a:a3:fd:c2:bf:7e:
        06:52:f4:6b:88:68:3d:86:73:c0:14:43:61:c9:fe:25:bb:45:
        dc:56:c6:c4:06:e2:e2:67:4d:cb:d0:ef:4a:ba:38:06:bc:c7:
        2d:1c:c8:97:1d:3b:65:46:63:75:38:2b:ef:20:3b:2b:3d:41:
        98:4d:45:9b:97:8d:10:c0:c0:5f:c9:49:b0:69:13:b0:ef:1d:
        3c:9b:b0:b2:cd:03:63:3c:0a:a5:7e:a3:4e:bd:b9:78:9b:40:
        4b:4d:6d:83:89:94:69:24:86:18:c5:be:f5:ef:9e:2e:ab:23:
        1e:a2:3e:be:ad:95:3d:7f:02:44:9c:da:2f:7d:c4:3c:77:dc:
        97:c2:f8:44:33:60:c3:6c:7c:3c:77:bb:85:37:4c:6d:5e:bd:
        91:7e:5c:fa
-----BEGIN CERTIFICATE-----
MIIDczCCAlugAwIBAgIQGKvVOlYhP2uWyd45211KdjANBgkqhkiG9w0BAQsFADAV
MRMwEQYDVQQDDAp0ZWFtNTgtbmV0MB4XDTIzMDQyMDAwMTExOFoXDTI2MDQwNDAw
MTExOFowGDEWMBQGA1UEAwwNdGVhbTU4LXNlcnZlcjCCASIwDQYJKoZIhvcNAQEB
BQADggEPADCCAQoCggEBAM3TcQbpn2df3GL5lClBWG3BTT9Rj+68i4gTQcxnZXaP
tcLOP3i1HRCfAYhj0bqPfErjpvcg9f9cZKCB9IPt0HKoBOg2k95vRxF+MJ7p/MkK
i41cPmXWdZzqe68HNBdY8FQUHpr8AiGyQ0I+CtHttQ9Yb/mSLtXuSCzQnfuF3Bbf
keELCs0Ohhg1yiK2ELNJrdprQBj50SrRwbOT2Xh31XBPeDt3FKPAPupIQZblYJwN
iP+8Vplo9fru6QstyraIvMzW5rcF1AgmiUCTXtZEwr/FrP1CabwDYMBPPSRxZaK5
LON5mtdvfmE5rUH62ljLUdHoBt6U06/L9hd7zYtIkl8CAwEAAaOBuzCBuDAJBgNV
HRMEAjAAMB0GA1UdDgQWBBQYatjK6rbMhbIdj1QFO1HKCKb4hjBQBgNVHSMESTBH
gBRjZfCriVDJX6sOfmeX4IqvHUHL5KEZpBcwFTETMBEGA1UEAwwKdGVhbTU4LW5l
dIIUPGroWe5jpDvqENLwYg3c6EyfMRQwEwYDVR0lBAwwCgYIKwYBBQUHAwEwCwYD
VR0PBAQDAgWgMBgGA1UdEQQRMA+CDXRlYW01OC1zZXJ2ZXIwDQYJKoZIhvcNAQEL
BQADggEBAD6ghsKOPr+kSbl2k0d8X15gh8GmmrTTute8y0Wf1tNolmbF+I5G8awQ
9Fj0s/d93QqsmsVLsDiWSoJW2fEZt9gCBXB8V+Z5WPJnFgSElNVxKFvOEEIEeIhP
TfDXt5myqZCiplig8Zqj/cK/fgZS9GuIaD2Gc8AUQ2HJ/iW7RdxWxsQG4uJnTcvQ
70q6OAa8xy0cyJcdO2VGY3U4K+8gOys9QZhNRZuXjRDAwF/JSbBpE7DvHTybsLLN
A2M8CqV+o069uXibQEtNbYOJlGkkhhjFvvXvni6rIx6iPr6tlT1/AkSc2i99xDx3
3JfC+EQzYMNsfDx3u4U3TG1evZF+XPo=
-----END CERTIFICATE-----
