Certificate:
    Data:
        Version: 3 (0x2)
        Serial Number:
            d4:f5:45:2f:00:97:d5:97:53:6d:23:0c:c4:f6:29:cb
        Signature Algorithm: sha256WithRSAEncryption
        Issuer: CN=team38-net
        Validity
            Not Before: Apr 20 00:10:51 2023 GMT
            Not After : Apr  4 00:10:51 2026 GMT
        Subject: CN=team38-client
        Subject Public Key Info:
            Public Key Algorithm: rsaEncryption
                Public-Key: (2048 bit)
                Modulus:
                    00:a8:cd:b5:c0:da:c2:ab:0c:a7:a1:62:2f:90:55:
                    0e:db:e9:23:7b:d1:69:5c:99:07:98:ed:0c:5e:f3:
                    a5:ac:34:a4:d6:34:88:d0:34:bc:da:1f:d7:54:eb:
                    79:8d:32:bf:a7:6d:51:5f:28:c1:f4:17:16:00:5a:
                    82:f3:e8:21:16:7a:e8:87:b6:9e:97:1b:27:af:4c:
                    6b:5d:41:0a:ad:58:48:2c:4f:e6:9c:43:3c:13:42:
                    27:c9:28:41:34:97:de:a4:ef:56:30:66:d3:f5:34:
                    be:9a:70:64:3e:b3:d8:fd:dd:ac:1d:4e:69:5d:76:
                    19:f3:1d:19:cc:68:a2:b4:cc:fe:c6:0c:b6:f4:dd:
                    f0:01:bb:7b:19:4c:25:d8:fa:e5:64:79:18:e5:d2:
                    1d:d6:2a:a5:de:f3:6d:0e:7d:9c:31:78:b4:0e:4a:
                    2c:23:94:04:11:0e:bd:2b:0c:f7:f0:e1:dd:fa:45:
                    47:06:c0:40:b0:0d:0e:8a:97:13:b9:56:e3:61:46:
                    89:32:bb:47:1d:bd:fe:d5:c4:2f:98:07:76:80:90:
                    87:93:d8:6d:66:f0:37:26:c5:cd:04:bf:28:b3:3c:
                    af:1d:de:0e:54:2e:27:e6:b9:40:02:5e:e3:ce:63:
                    02:23:f5:6a:09:01:88:2a:39:d4:cc:6b:97:23:25:
                    0d:bb
                Exponent: 65537 (0x10001)
        X509v3 extensions:
            X509v3 Basic Constraints: 
                CA:FALSE
            X509v3 Subject Key Identifier: 
                F5:8A:AF:09:B8:9F:EA:7C:FB:5B:77:20:87:9E:C0:24:43:2A:61:F5
            X509v3 Authority Key Identifier: 
                keyid:16:CE:B7:5F:26:E7:48:07:B4:B2:06:78:6C:5A:CA:A7:D8:A2:A5:18
                DirName:/CN=team38-net
                serial:63:5D:25:0E:20:E4:5A:CE:DB:A3:47:3D:D2:88:D9:29:08:43:28:AB
            X509v3 Extended Key Usage: 
                TLS Web Client Authentication
            X509v3 Key Usage: 
                Digital Signature
    Signature Algorithm: sha256WithRSAEncryption
    Signature Value:
        80:71:76:e4:ba:57:b8:b0:c1:8e:b6:df:7d:55:c7:01:9e:98:
        43:32:c1:a1:e9:05:b3:46:b4:7a:6b:da:46:7a:d7:10:63:39:
        98:d1:cf:d1:9e:58:dd:1e:28:32:9e:07:a9:af:d8:83:e4:c9:
        23:fd:7c:b6:79:c9:57:64:34:4d:35:21:e3:37:35:20:15:a2:
        52:5d:04:6d:d2:3a:31:b3:03:f0:11:ee:60:15:d1:26:e1:da:
        71:f6:f3:7d:b3:3d:69:87:f0:ff:a0:f5:99:6e:9f:1b:64:45:
        62:b8:a2:cf:b2:14:64:f5:71:e6:6b:9a:f5:d3:c0:9d:0c:0d:
        e8:9c:96:cc:b4:86:48:d7:62:86:87:7b:3e:08:a8:54:b0:a1:
        b1:89:0b:44:c4:d5:21:df:cb:6d:81:53:f9:c9:48:66:a5:e1:
        38:7e:33:d8:a1:39:a6:4c:61:83:27:b8:67:9a:dc:60:93:64:
        ad:47:00:ca:dc:88:12:a9:b6:3a:85:50:ea:e8:75:ee:c5:bb:
        ce:2d:5c:2a:92:a2:79:30:a3:77:e7:2b:8c:a0:0f:d9:97:c7:
        3c:7a:27:9b:c2:c8:e4:4b:9f:87:4b:5b:04:5c:1d:7c:14:2f:
        fc:40:aa:a6:58:08:fb:00:0c:24:d6:de:15:e1:04:54:ac:f2:
        06:0f:dc:ad
-----BEGIN CERTIFICATE-----
MIIDWjCCAkKgAwIBAgIRANT1RS8Al9WXU20jDMT2KcswDQYJKoZIhvcNAQELBQAw
FTETMBEGA1UEAwwKdGVhbTM4LW5ldDAeFw0yMzA0MjAwMDEwNTFaFw0yNjA0MDQw
MDEwNTFaMBgxFjAUBgNVBAMMDXRlYW0zOC1jbGllbnQwggEiMA0GCSqGSIb3DQEB
AQUAA4IBDwAwggEKAoIBAQCozbXA2sKrDKehYi+QVQ7b6SN70WlcmQeY7Qxe86Ws
NKTWNIjQNLzaH9dU63mNMr+nbVFfKMH0FxYAWoLz6CEWeuiHtp6XGyevTGtdQQqt
WEgsT+acQzwTQifJKEE0l96k71YwZtP1NL6acGQ+s9j93awdTmlddhnzHRnMaKK0
zP7GDLb03fABu3sZTCXY+uVkeRjl0h3WKqXe820OfZwxeLQOSiwjlAQRDr0rDPfw
4d36RUcGwECwDQ6KlxO5VuNhRokyu0cdvf7VxC+YB3aAkIeT2G1m8Dcmxc0Evyiz
PK8d3g5ULifmuUACXuPOYwIj9WoJAYgqOdTMa5cjJQ27AgMBAAGjgaEwgZ4wCQYD
VR0TBAIwADAdBgNVHQ4EFgQU9YqvCbif6nz7W3cgh57AJEMqYfUwUAYDVR0jBEkw
R4AUFs63XybnSAe0sgZ4bFrKp9iipRihGaQXMBUxEzARBgNVBAMMCnRlYW0zOC1u
ZXSCFGNdJQ4g5FrO26NHPdKI2SkIQyirMBMGA1UdJQQMMAoGCCsGAQUFBwMCMAsG
A1UdDwQEAwIHgDANBgkqhkiG9w0BAQsFAAOCAQEAgHF25LpXuLDBjrbffVXHAZ6Y
QzLBoekFs0a0emvaRnrXEGM5mNHP0Z5Y3R4oMp4Hqa/Yg+TJI/18tnnJV2Q0TTUh
4zc1IBWiUl0EbdI6MbMD8BHuYBXRJuHacfbzfbM9aYfw/6D1mW6fG2RFYriiz7IU
ZPVx5mua9dPAnQwN6JyWzLSGSNdihod7PgioVLChsYkLRMTVId/LbYFT+clIZqXh
OH4z2KE5pkxhgye4Z5rcYJNkrUcAytyIEqm2OoVQ6uh17sW7zi1cKpKieTCjd+cr
jKAP2ZfHPHonm8LI5Eufh0tbBFwdfBQv/ECqplgI+wAMJNbeFeEEVKzyBg/crQ==
-----END CERTIFICATE-----
