Certificate:
    Data:
        Version: 3 (0x2)
        Serial Number:
            02:56:e4:9a:82:66:43:24:2d:26:00:2c:c2:8c:87:39
        Signature Algorithm: sha256WithRSAEncryption
        Issuer: CN=team20-net
        Validity
            Not Before: Apr 20 00:10:24 2023 GMT
            Not After : Apr  4 00:10:24 2026 GMT
        Subject: CN=team20-server
        Subject Public Key Info:
            Public Key Algorithm: rsaEncryption
                Public-Key: (2048 bit)
                Modulus:
                    00:9f:41:c6:1f:db:bc:cb:63:ac:14:aa:3b:59:54:
                    6f:45:b8:c6:85:ba:43:fa:05:5b:d3:19:86:27:93:
                    91:01:6a:af:57:1c:91:29:de:33:83:5c:cf:4f:35:
                    b5:b0:6b:9c:87:91:b4:76:34:72:83:04:84:26:06:
                    c5:1a:78:56:c7:c9:b3:32:d9:b7:8a:b6:2d:0c:94:
                    af:6d:76:17:da:92:43:36:0f:35:b1:a9:2c:4d:04:
                    0f:b5:ac:b6:a9:7f:95:0a:0f:03:94:8e:db:e2:6d:
                    35:53:bc:0d:61:e2:b4:86:39:d9:b6:43:68:9d:02:
                    a7:bd:81:77:59:6f:63:28:da:69:15:33:93:a2:d9:
                    e1:c7:62:3d:1e:c6:f7:a3:c3:c4:73:8c:8b:d9:42:
                    ec:2a:31:f2:19:57:c5:58:1b:10:6d:d3:9b:e7:cd:
                    2f:ad:90:17:ef:e8:4a:4b:2f:cb:04:88:b3:87:f1:
                    8d:27:1d:ad:8c:55:cb:15:f2:2b:09:08:52:a9:21:
                    a2:bc:16:d0:90:7f:f5:10:ce:3c:9b:66:7f:61:53:
                    24:61:0e:ee:0a:4e:aa:e8:f8:f3:77:3d:09:d5:75:
                    8e:e8:fe:c0:06:f5:0c:8c:36:93:af:75:3a:d4:83:
                    64:61:5d:56:fe:1e:78:e4:47:f7:8d:e1:4a:ad:ad:
                    62:03
                Exponent: 65537 (0x10001)
        X509v3 extensions:
            X509v3 Basic Constraints: 
                CA:FALSE
            X509v3 Subject Key Identifier: 
                02:9B:B3:1E:7C:A3:26:0B:A0:4D:57:DA:F6:01:D3:44:66:D8:48:A9
            X509v3 Authority Key Identifier: 
                keyid:CD:B0:F5:E0:83:14:8F:2C:46:9B:46:90:8F:CE:7E:E3:C9:3C:31:F8
                DirName:/CN=team20-net
                serial:38:A2:BB:BB:FC:82:23:25:51:EE:1C:04:20:7D:3C:A9:4A:86:F4:88
            X509v3 Extended Key Usage: 
                TLS Web Server Authentication
            X509v3 Key Usage: 
                Digital Signature, Key Encipherment
            X509v3 Subject Alternative Name: 
                DNS:team20-server
    Signature Algorithm: sha256WithRSAEncryption
    Signature Value:
        53:b6:72:fa:3b:f2:14:39:a1:57:41:94:6a:46:2e:d5:4f:d8:
        91:4e:ff:4b:0e:99:07:5f:c5:8f:9e:8b:48:98:ac:47:49:6c:
        3b:09:17:0a:49:97:cf:8a:7f:8a:3a:87:2f:04:c2:98:9a:29:
        db:32:93:6a:a9:35:8d:6c:54:75:5a:32:20:2a:67:cb:14:b4:
        e1:07:d4:d7:b4:08:28:60:2c:74:1b:84:1e:f1:56:10:63:a0:
        d9:68:b3:d8:07:0a:9a:51:06:c3:82:f3:46:97:6c:87:0d:a3:
        59:77:4f:b8:1e:85:4c:b0:ee:b1:ac:fc:38:3c:25:f7:7a:f6:
        27:d0:92:fb:20:2a:d1:23:a8:64:b0:b2:93:35:54:21:0c:f6:
        a9:6d:97:a5:33:a0:55:91:c1:f7:d9:78:a4:fd:9f:f5:13:b6:
        17:bb:1c:01:07:59:c0:c0:b3:09:9d:df:a7:4c:d9:89:ea:56:
        68:97:2e:0b:63:d9:f6:25:0e:27:f5:04:32:b6:88:ae:72:50:
        1f:dc:04:de:c1:9e:ab:42:63:4f:e8:73:86:4a:7c:db:82:d8:
        cf:c8:03:19:dd:a5:e2:35:55:16:d5:49:92:89:ac:c3:73:40:
        43:7c:00:00:f2:67:24:63:02:9c:91:74:31:7d:ce:7f:08:a0:
        28:82:00:23
-----BEGIN CERTIFICATE-----
MIIDczCCAlugAwIBAgIQAlbkmoJmQyQtJgAswoyHOTANBgkqhkiG9w0BAQsFADAV
MRMwEQYDVQQDDAp0ZWFtMjAtbmV0MB4XDTIzMDQyMDAwMTAyNFoXDTI2MDQwNDAw
MTAyNFowGDEWMBQGA1UEAwwNdGVhbTIwLXNlcnZlcjCCASIwDQYJKoZIhvcNAQEB
BQADggEPADCCAQoCggEBAJ9Bxh/bvMtjrBSqO1lUb0W4xoW6Q/oFW9MZhieTkQFq
r1cckSneM4Ncz081tbBrnIeRtHY0coMEhCYGxRp4VsfJszLZt4q2LQyUr212F9qS
QzYPNbGpLE0ED7Wstql/lQoPA5SO2+JtNVO8DWHitIY52bZDaJ0Cp72Bd1lvYyja
aRUzk6LZ4cdiPR7G96PDxHOMi9lC7Cox8hlXxVgbEG3Tm+fNL62QF+/oSksvywSI
s4fxjScdrYxVyxXyKwkIUqkhorwW0JB/9RDOPJtmf2FTJGEO7gpOquj483c9CdV1
juj+wAb1DIw2k691OtSDZGFdVv4eeORH943hSq2tYgMCAwEAAaOBuzCBuDAJBgNV
HRMEAjAAMB0GA1UdDgQWBBQCm7MefKMmC6BNV9r2AdNEZthIqTBQBgNVHSMESTBH
gBTNsPXggxSPLEabRpCPzn7jyTwx+KEZpBcwFTETMBEGA1UEAwwKdGVhbTIwLW5l
dIIUOKK7u/yCIyVR7hwEIH08qUqG9IgwEwYDVR0lBAwwCgYIKwYBBQUHAwEwCwYD
VR0PBAQDAgWgMBgGA1UdEQQRMA+CDXRlYW0yMC1zZXJ2ZXIwDQYJKoZIhvcNAQEL
BQADggEBAFO2cvo78hQ5oVdBlGpGLtVP2JFO/0sOmQdfxY+ei0iYrEdJbDsJFwpJ
l8+Kf4o6hy8EwpiaKdsyk2qpNY1sVHVaMiAqZ8sUtOEH1Ne0CChgLHQbhB7xVhBj
oNlos9gHCppRBsOC80aXbIcNo1l3T7gehUyw7rGs/Dg8Jfd69ifQkvsgKtEjqGSw
spM1VCEM9qltl6UzoFWRwffZeKT9n/UTthe7HAEHWcDAswmd36dM2YnqVmiXLgtj
2fYlDif1BDK2iK5yUB/cBN7BnqtCY0/oc4ZKfNuC2M/IAxndpeI1VRbVSZKJrMNz
QEN8AADyZyRjApyRdDF9zn8IoCiCACM=
-----END CERTIFICATE-----
