Certificate:
    Data:
        Version: 3 (0x2)
        Serial Number:
            82:6d:ad:84:b4:15:35:d8:b0:41:e4:3d:69:6f:ed:eb
        Signature Algorithm: sha256WithRSAEncryption
        Issuer: CN=team20-net
        Validity
            Not Before: Apr 20 22:53:53 2023 GMT
            Not After : Apr  4 22:53:53 2026 GMT
        Subject: CN=team20-server
        Subject Public Key Info:
            Public Key Algorithm: rsaEncryption
                Public-Key: (2048 bit)
                Modulus:
                    00:9c:91:62:c7:f1:92:94:6f:9d:81:7d:a0:cf:2d:
                    21:82:c9:de:2e:75:2b:56:3f:7a:42:6b:2c:a5:e8:
                    a9:c9:f2:4e:23:56:9b:88:29:eb:ae:a4:24:4a:2f:
                    c8:a6:d9:75:2e:85:3a:42:36:50:18:43:80:a9:4f:
                    cd:96:7e:be:a7:b8:55:fa:ee:6a:73:8a:e9:d4:33:
                    b3:85:58:3a:36:a3:4c:6b:9d:cf:57:3a:c9:40:da:
                    59:9a:9c:c6:d7:51:b8:1f:ab:c1:4d:56:5e:47:22:
                    f6:86:b5:87:64:6e:15:45:17:0e:f0:d9:ac:99:f3:
                    e4:7a:6d:b6:a0:29:d7:ed:87:0f:bc:48:50:3a:dd:
                    95:34:75:92:c3:9d:ba:2d:8e:59:15:6e:d3:e9:02:
                    f4:19:44:85:8f:59:03:90:a8:e1:73:e8:05:bc:6f:
                    00:33:a1:c9:dd:b9:47:74:38:65:78:ca:35:68:a9:
                    c9:98:23:fb:d1:b1:a1:72:2d:f5:49:24:da:2b:35:
                    d4:1d:2a:71:63:3f:ed:83:b9:96:a2:8d:b3:6b:79:
                    15:72:f3:09:00:de:48:21:83:9d:e4:71:b1:93:bf:
                    03:92:4f:a2:08:4a:fa:00:7c:2a:a0:71:4e:d3:c3:
                    b2:d2:36:dc:cc:04:61:24:f8:e5:6f:ef:a9:2f:5d:
                    03:f5
                Exponent: 65537 (0x10001)
        X509v3 extensions:
            X509v3 Basic Constraints: 
                CA:FALSE
            X509v3 Subject Key Identifier: 
                1D:B2:BF:B6:A8:FC:52:E4:74:31:21:17:33:11:EE:23:89:46:65:3D
            X509v3 Authority Key Identifier: 
                keyid:68:6F:A0:80:DF:9B:54:73:2C:64:69:E4:BD:08:95:7F:F2:DC:3C:04
                DirName:/CN=team20-net
                serial:4B:64:52:26:5D:E8:A7:DF:76:57:39:2D:9D:F1:1E:8A:F5:CD:EB:10
            X509v3 Extended Key Usage: 
                TLS Web Server Authentication
            X509v3 Key Usage: 
                Digital Signature, Key Encipherment
            X509v3 Subject Alternative Name: 
                DNS:team20-server
    Signature Algorithm: sha256WithRSAEncryption
    Signature Value:
        37:b5:2e:3a:7a:b9:d5:b0:ce:7b:bc:ae:41:80:af:b5:e2:4c:
        bb:bd:d6:df:c5:90:19:0c:07:bd:0f:23:fa:c5:39:66:35:f1:
        f5:8f:b8:48:de:b3:e2:9b:8d:47:cc:de:ec:f7:bd:60:b6:ca:
        ed:ca:5d:4a:13:21:18:87:2e:45:dc:e1:1b:56:8c:f4:60:3f:
        05:df:10:ff:b8:0a:36:f7:cb:7e:21:88:a8:36:5a:b6:f2:d5:
        e6:01:8b:95:46:cc:16:00:a1:69:f8:8b:e4:d7:38:c5:04:dd:
        65:06:a5:d6:8d:7d:9f:cf:69:8c:6b:69:2f:b0:00:7d:9d:cc:
        34:db:8a:b0:26:90:00:46:09:75:58:7f:39:83:0c:c8:9a:58:
        75:46:8e:e6:eb:7d:2d:45:e6:bf:50:8f:f1:29:85:1c:e6:b5:
        e5:54:96:26:9d:9f:09:0b:3e:8f:e1:08:d2:76:bb:ff:16:71:
        19:1e:19:11:8b:be:29:3a:24:e5:c8:96:be:82:be:07:84:77:
        82:cc:76:cd:76:b4:a1:47:ef:4a:32:99:d4:0c:d7:e3:77:1a:
        3b:74:f5:71:05:ff:88:18:d2:4f:fd:dc:85:d1:5d:60:f3:d9:
        05:3b:81:b1:fc:f5:8a:74:15:50:ae:c1:66:e2:8b:91:2e:68:
        9b:8d:66:7c
-----BEGIN CERTIFICATE-----
MIIDdDCCAlygAwIBAgIRAIJtrYS0FTXYsEHkPWlv7eswDQYJKoZIhvcNAQELBQAw
FTETMBEGA1UEAwwKdGVhbTIwLW5ldDAeFw0yMzA0MjAyMjUzNTNaFw0yNjA0MDQy
MjUzNTNaMBgxFjAUBgNVBAMMDXRlYW0yMC1zZXJ2ZXIwggEiMA0GCSqGSIb3DQEB
AQUAA4IBDwAwggEKAoIBAQCckWLH8ZKUb52BfaDPLSGCyd4udStWP3pCayyl6KnJ
8k4jVpuIKeuupCRKL8im2XUuhTpCNlAYQ4CpT82Wfr6nuFX67mpziunUM7OFWDo2
o0xrnc9XOslA2lmanMbXUbgfq8FNVl5HIvaGtYdkbhVFFw7w2ayZ8+R6bbagKdft
hw+8SFA63ZU0dZLDnbotjlkVbtPpAvQZRIWPWQOQqOFz6AW8bwAzocnduUd0OGV4
yjVoqcmYI/vRsaFyLfVJJNorNdQdKnFjP+2DuZaijbNreRVy8wkA3kghg53kcbGT
vwOST6IISvoAfCqgcU7Tw7LSNtzMBGEk+OVv76kvXQP1AgMBAAGjgbswgbgwCQYD
VR0TBAIwADAdBgNVHQ4EFgQUHbK/tqj8UuR0MSEXMxHuI4lGZT0wUAYDVR0jBEkw
R4AUaG+ggN+bVHMsZGnkvQiVf/LcPAShGaQXMBUxEzARBgNVBAMMCnRlYW0yMC1u
ZXSCFEtkUiZd6Kffdlc5LZ3xHor1zesQMBMGA1UdJQQMMAoGCCsGAQUFBwMBMAsG
A1UdDwQEAwIFoDAYBgNVHREEETAPgg10ZWFtMjAtc2VydmVyMA0GCSqGSIb3DQEB
CwUAA4IBAQA3tS46ernVsM57vK5BgK+14ky7vdbfxZAZDAe9DyP6xTlmNfH1j7hI
3rPim41HzN7s971gtsrtyl1KEyEYhy5F3OEbVoz0YD8F3xD/uAo298t+IYioNlq2
8tXmAYuVRswWAKFp+Ivk1zjFBN1lBqXWjX2fz2mMa2kvsAB9ncw024qwJpAARgl1
WH85gwzImlh1Ro7m630tRea/UI/xKYUc5rXlVJYmnZ8JCz6P4QjSdrv/FnEZHhkR
i74pOiTlyJa+gr4HhHeCzHbNdrShR+9KMpnUDNfjdxo7dPVxBf+IGNJP/dyF0V1g
89kFO4Gx/PWKdBVQrsFm4ouRLmibjWZ8
-----END CERTIFICATE-----
