Certificate:
    Data:
        Version: 3 (0x2)
        Serial Number:
            b6:68:e0:22:4f:a9:d2:9e:28:b7:dd:4d:01:16:74:db
        Signature Algorithm: sha256WithRSAEncryption
        Issuer: CN=team20-net
        Validity
            Not Before: Apr 20 22:53:53 2023 GMT
            Not After : Apr  4 22:53:53 2026 GMT
        Subject: CN=team20-client
        Subject Public Key Info:
            Public Key Algorithm: rsaEncryption
                Public-Key: (2048 bit)
                Modulus:
                    00:b4:39:b6:e0:a3:54:0c:c6:84:b4:c8:91:6e:0e:
                    90:97:05:54:7c:69:88:25:cb:ac:b1:d3:b4:9c:78:
                    a0:c7:e3:2b:66:79:d5:5c:1b:33:f9:56:9d:bb:a9:
                    8a:ba:fb:79:cb:e8:e8:c7:40:b1:b2:08:da:77:ba:
                    fe:69:3e:87:e1:3e:ec:10:78:7e:4d:00:14:4f:74:
                    f8:83:a1:ea:f9:a9:0c:12:f2:3e:47:52:96:2c:51:
                    0d:9e:5f:7f:da:a5:91:7f:fb:f7:1b:6f:28:fb:c2:
                    52:45:2e:f2:c2:c8:9b:e8:0d:0f:cc:fa:fc:a6:62:
                    54:e4:80:4d:c2:bf:41:4f:39:2d:9b:5e:8b:5a:e8:
                    b1:dd:f4:82:aa:66:e7:99:c9:53:02:0f:a6:01:74:
                    9e:0b:02:db:ce:df:8d:e7:f9:67:74:dc:27:62:02:
                    bf:32:ba:e1:7b:80:9b:f8:40:d3:1b:79:00:21:44:
                    b2:dd:7c:41:55:45:1a:2f:5c:a0:62:1b:79:e5:19:
                    8b:80:79:48:01:40:62:91:96:ac:38:2a:74:ba:6d:
                    dd:8a:bc:24:f6:47:c2:c6:46:c9:7d:ac:84:5a:0c:
                    85:20:f2:18:0e:df:b7:62:9b:70:52:e0:30:7a:ad:
                    33:2d:56:d0:dd:3c:a7:c7:15:5a:a1:e0:4b:9a:72:
                    b2:ff
                Exponent: 65537 (0x10001)
        X509v3 extensions:
            X509v3 Basic Constraints: 
                CA:FALSE
            X509v3 Subject Key Identifier: 
                7C:AD:7C:AF:33:B7:8B:FA:87:C6:58:EA:3F:31:63:19:B8:8D:AD:E3
            X509v3 Authority Key Identifier: 
                keyid:68:6F:A0:80:DF:9B:54:73:2C:64:69:E4:BD:08:95:7F:F2:DC:3C:04
                DirName:/CN=team20-net
                serial:4B:64:52:26:5D:E8:A7:DF:76:57:39:2D:9D:F1:1E:8A:F5:CD:EB:10
            X509v3 Extended Key Usage: 
                TLS Web Client Authentication
            X509v3 Key Usage: 
                Digital Signature
    Signature Algorithm: sha256WithRSAEncryption
    Signature Value:
        5f:4f:19:06:52:bf:ae:51:fb:e1:42:89:f2:35:6f:7e:c0:1e:
        08:b0:f9:7b:88:dc:63:90:75:23:e8:d1:1f:4f:1f:de:d6:38:
        8d:58:9b:31:d3:20:82:98:b7:21:ff:3a:cc:6a:1b:c6:0c:d9:
        10:df:52:e8:8c:35:81:93:20:01:1c:8d:e0:86:b6:78:0c:35:
        d9:fa:66:8e:ea:f0:33:b2:87:a1:c4:9d:c4:af:76:b7:77:ed:
        b0:13:b8:32:6e:89:1d:db:91:30:58:f5:b4:f3:04:73:aa:fb:
        92:98:95:0c:14:43:f3:29:fc:31:d2:32:42:5a:2d:55:2d:40:
        a1:92:d1:e5:fe:37:7d:75:82:63:07:7e:02:9b:c5:10:0a:66:
        c3:56:33:d5:70:ae:e1:fc:9d:3e:e2:cf:da:0a:6a:79:b1:e5:
        7b:10:d1:f4:e7:0e:fd:d1:42:6c:49:0d:65:00:36:df:75:41:
        ee:0f:2b:c6:c9:15:62:6a:3c:0a:43:f3:8f:ea:ca:84:14:89:
        c0:38:fd:64:93:92:91:fd:82:e7:7f:38:af:c4:b6:47:f6:a8:
        ab:89:c2:c8:18:b0:28:cf:f3:89:ad:dd:e8:91:f6:40:6d:c8:
        06:d8:3f:72:e7:35:4d:46:2e:72:df:c2:ed:38:df:86:c5:a4:
        6e:5a:0e:07
-----BEGIN CERTIFICATE-----
MIIDWjCCAkKgAwIBAgIRALZo4CJPqdKeKLfdTQEWdNswDQYJKoZIhvcNAQELBQAw
FTETMBEGA1UEAwwKdGVhbTIwLW5ldDAeFw0yMzA0MjAyMjUzNTNaFw0yNjA0MDQy
MjUzNTNaMBgxFjAUBgNVBAMMDXRlYW0yMC1jbGllbnQwggEiMA0GCSqGSIb3DQEB
AQUAA4IBDwAwggEKAoIBAQC0Obbgo1QMxoS0yJFuDpCXBVR8aYgly6yx07SceKDH
4ytmedVcGzP5Vp27qYq6+3nL6OjHQLGyCNp3uv5pPofhPuwQeH5NABRPdPiDoer5
qQwS8j5HUpYsUQ2eX3/apZF/+/cbbyj7wlJFLvLCyJvoDQ/M+vymYlTkgE3Cv0FP
OS2bXota6LHd9IKqZueZyVMCD6YBdJ4LAtvO343n+Wd03CdiAr8yuuF7gJv4QNMb
eQAhRLLdfEFVRRovXKBiG3nlGYuAeUgBQGKRlqw4KnS6bd2KvCT2R8LGRsl9rIRa
DIUg8hgO37dim3BS4DB6rTMtVtDdPKfHFVqh4EuacrL/AgMBAAGjgaEwgZ4wCQYD
VR0TBAIwADAdBgNVHQ4EFgQUfK18rzO3i/qHxljqPzFjGbiNreMwUAYDVR0jBEkw
R4AUaG+ggN+bVHMsZGnkvQiVf/LcPAShGaQXMBUxEzARBgNVBAMMCnRlYW0yMC1u
ZXSCFEtkUiZd6Kffdlc5LZ3xHor1zesQMBMGA1UdJQQMMAoGCCsGAQUFBwMCMAsG
A1UdDwQEAwIHgDANBgkqhkiG9w0BAQsFAAOCAQEAX08ZBlK/rlH74UKJ8jVvfsAe
CLD5e4jcY5B1I+jRH08f3tY4jVibMdMggpi3If86zGobxgzZEN9S6Iw1gZMgARyN
4Ia2eAw12fpmjurwM7KHocSdxK92t3ftsBO4Mm6JHduRMFj1tPMEc6r7kpiVDBRD
8yn8MdIyQlotVS1AoZLR5f43fXWCYwd+ApvFEApmw1Yz1XCu4fydPuLP2gpqebHl
exDR9OcO/dFCbEkNZQA233VB7g8rxskVYmo8CkPzj+rKhBSJwDj9ZJOSkf2C5384
r8S2R/aoq4nCyBiwKM/zia3d6JH2QG3IBtg/cuc1TUYuct/C7TjfhsWkbloOBw==
-----END CERTIFICATE-----
