Certificate:
    Data:
        Version: 3 (0x2)
        Serial Number:
            02:af:61:c7:dc:ec:99:30:12:64:e5:7c:04:e7:72:89
        Signature Algorithm: sha256WithRSAEncryption
        Issuer: CN=team2-net
        Validity
            Not Before: Apr 20 22:53:26 2023 GMT
            Not After : Apr  4 22:53:26 2026 GMT
        Subject: CN=team2-server
        Subject Public Key Info:
            Public Key Algorithm: rsaEncryption
                Public-Key: (2048 bit)
                Modulus:
                    00:ba:14:d9:53:fd:02:ce:24:66:71:37:0c:b2:5b:
                    1a:04:e7:33:6a:d9:7e:b4:27:3a:6c:9f:8d:bf:3b:
                    86:5f:a0:70:ee:fb:de:53:3e:10:c1:17:80:a8:e5:
                    0a:79:80:a1:b7:ed:d7:7a:2f:1e:a5:e3:49:2f:99:
                    3d:16:80:0c:50:b7:1b:10:55:67:8d:41:20:3b:19:
                    74:50:95:c7:88:22:0b:f4:36:bb:2b:03:36:6a:0c:
                    43:bb:0c:14:9f:ac:24:00:a6:56:0e:09:b7:04:d5:
                    b1:af:d9:ef:c6:77:cf:b9:a6:58:ba:6a:c4:09:1a:
                    e6:2c:eb:a5:3d:c0:02:00:88:a0:64:62:26:e3:82:
                    3b:38:6e:9c:5b:15:07:e9:c5:3a:de:a6:b9:69:12:
                    ae:00:7c:6e:7a:e4:a2:53:3b:c2:48:b0:e9:27:0e:
                    c0:c1:38:58:de:86:fd:13:53:ea:3f:e4:09:05:8b:
                    b0:8a:da:c4:0f:9d:2d:3e:41:5b:fa:5e:d7:5b:ee:
                    7a:90:ae:b1:55:d3:35:02:2f:cd:f1:d2:a1:25:61:
                    df:fe:08:ee:93:fc:ac:5f:48:bb:7c:4b:7f:0f:76:
                    1f:47:06:05:6e:1d:e6:f9:ad:cf:97:ad:cd:38:14:
                    40:e9:33:ac:bb:cc:57:3b:44:f5:50:b8:6f:f1:f9:
                    55:01
                Exponent: 65537 (0x10001)
        X509v3 extensions:
            X509v3 Basic Constraints: 
                CA:FALSE
            X509v3 Subject Key Identifier: 
                1D:59:24:EB:82:0B:CC:ED:FF:D5:87:DB:FF:63:2A:A3:0B:EC:3A:75
            X509v3 Authority Key Identifier: 
                keyid:72:E3:03:0B:87:AB:23:56:CA:DB:48:9E:90:C9:F1:7E:CF:81:90:E5
                DirName:/CN=team2-net
                serial:76:FA:41:AA:49:32:21:6A:01:8C:C8:99:1C:27:CF:EE:71:86:C7:FF
            X509v3 Extended Key Usage: 
                TLS Web Server Authentication
            X509v3 Key Usage: 
                Digital Signature, Key Encipherment
            X509v3 Subject Alternative Name: 
                DNS:team2-server
    Signature Algorithm: sha256WithRSAEncryption
    Signature Value:
        61:de:12:84:c8:06:eb:1d:46:c6:6c:40:db:0c:91:a1:f8:cf:
        90:af:64:2e:d9:36:d1:8a:85:9c:7f:48:79:fc:28:ff:c0:4f:
        61:d6:66:bb:7e:c7:05:90:66:0f:56:c3:94:81:66:00:68:3f:
        0d:81:4b:bc:8c:51:c9:d4:d9:79:39:9d:d6:d1:63:a1:f5:b7:
        e0:d5:71:0c:05:48:4b:62:3e:0a:9b:41:21:1e:f7:be:e3:56:
        ad:74:c2:a1:71:26:3b:9c:8d:cb:57:28:22:08:96:a4:1e:46:
        0b:11:22:59:83:ed:43:e3:06:cd:95:57:8b:1d:92:65:33:a0:
        a2:ae:af:c0:68:2b:f6:91:d4:7d:33:10:da:28:9c:90:94:27:
        ac:ae:96:da:20:50:7e:22:c7:60:6d:2f:99:d8:bf:db:31:62:
        18:da:24:c0:21:18:24:69:f9:f3:c1:ed:45:16:65:17:96:42:
        ee:a2:26:16:bb:33:ae:90:fd:56:76:00:d5:c4:0e:f6:60:a0:
        5a:da:d4:3d:ab:60:8f:40:4b:15:ed:b6:e3:84:1e:e7:d0:16:
        20:a6:51:c4:e8:4b:d2:c6:0b:5a:7a:b4:78:af:9e:b5:80:49:
        a7:2a:b7:4e:b7:10:3d:da:af:c9:eb:fe:86:66:32:82:be:53:
        91:eb:8a:fe
-----BEGIN CERTIFICATE-----
MIIDbzCCAlegAwIBAgIQAq9hx9zsmTASZOV8BOdyiTANBgkqhkiG9w0BAQsFADAU
MRIwEAYDVQQDDAl0ZWFtMi1uZXQwHhcNMjMwNDIwMjI1MzI2WhcNMjYwNDA0MjI1
MzI2WjAXMRUwEwYDVQQDDAx0ZWFtMi1zZXJ2ZXIwggEiMA0GCSqGSIb3DQEBAQUA
A4IBDwAwggEKAoIBAQC6FNlT/QLOJGZxNwyyWxoE5zNq2X60Jzpsn42/O4ZfoHDu
+95TPhDBF4Co5Qp5gKG37dd6Lx6l40kvmT0WgAxQtxsQVWeNQSA7GXRQlceIIgv0
NrsrAzZqDEO7DBSfrCQAplYOCbcE1bGv2e/Gd8+5pli6asQJGuYs66U9wAIAiKBk
Yibjgjs4bpxbFQfpxTreprlpEq4AfG565KJTO8JIsOknDsDBOFjehv0TU+o/5AkF
i7CK2sQPnS0+QVv6Xtdb7nqQrrFV0zUCL83x0qElYd/+CO6T/KxfSLt8S38Pdh9H
BgVuHeb5rc+Xrc04FEDpM6y7zFc7RPVQuG/x+VUBAgMBAAGjgbkwgbYwCQYDVR0T
BAIwADAdBgNVHQ4EFgQUHVkk64ILzO3/1Yfb/2MqowvsOnUwTwYDVR0jBEgwRoAU
cuMDC4erI1bK20iekMnxfs+BkOWhGKQWMBQxEjAQBgNVBAMMCXRlYW0yLW5ldIIU
dvpBqkkyIWoBjMiZHCfP7nGGx/8wEwYDVR0lBAwwCgYIKwYBBQUHAwEwCwYDVR0P
BAQDAgWgMBcGA1UdEQQQMA6CDHRlYW0yLXNlcnZlcjANBgkqhkiG9w0BAQsFAAOC
AQEAYd4ShMgG6x1GxmxA2wyRofjPkK9kLtk20YqFnH9Iefwo/8BPYdZmu37HBZBm
D1bDlIFmAGg/DYFLvIxRydTZeTmd1tFjofW34NVxDAVIS2I+CptBIR73vuNWrXTC
oXEmO5yNy1coIgiWpB5GCxEiWYPtQ+MGzZVXix2SZTOgoq6vwGgr9pHUfTMQ2iic
kJQnrK6W2iBQfiLHYG0vmdi/2zFiGNokwCEYJGn588HtRRZlF5ZC7qImFrszrpD9
VnYA1cQO9mCgWtrUPatgj0BLFe2244Qe59AWIKZRxOhL0sYLWnq0eK+etYBJpyq3
TrcQPdqvyev+hmYygr5TkeuK/g==
-----END CERTIFICATE-----
