Certificate:
    Data:
        Version: 3 (0x2)
        Serial Number:
            0f:a5:3b:51:bb:1e:dd:29:ad:cb:ad:73:02:51:fc:0e
        Signature Algorithm: sha256WithRSAEncryption
        Issuer: CN=team2-net
        Validity
            Not Before: Apr 20 00:09:56 2023 GMT
            Not After : Apr  4 00:09:56 2026 GMT
        Subject: CN=team2-server
        Subject Public Key Info:
            Public Key Algorithm: rsaEncryption
                Public-Key: (2048 bit)
                Modulus:
                    00:9e:95:c5:22:c9:b4:da:4c:46:b3:8e:7e:1d:e5:
                    3c:b0:b2:9b:b2:7b:8e:3a:fc:5d:02:c4:42:91:c0:
                    f4:3f:b8:bb:a4:22:56:1e:d0:ca:aa:43:71:d1:e4:
                    14:65:ba:ba:eb:88:64:81:59:63:3a:86:e0:f6:57:
                    56:ee:7b:17:e8:e4:9a:83:57:9c:f2:5c:d5:d4:1b:
                    ba:85:2a:a3:c3:00:30:bc:c2:86:31:d6:1c:11:11:
                    2e:43:51:f6:e8:72:f7:27:5b:50:82:24:76:eb:1f:
                    f8:ce:16:84:bb:e4:65:a5:25:1c:fb:53:1a:84:4d:
                    c0:7f:99:77:98:7e:20:30:e0:c9:8a:56:80:dc:8c:
                    0a:ea:c6:dd:6a:97:f9:73:d1:06:21:b6:57:43:72:
                    8a:1e:c9:21:be:e1:48:a6:ef:4f:36:d8:cb:b1:e7:
                    6f:88:ad:9c:95:3b:58:15:20:2a:bb:60:35:42:25:
                    b0:17:2b:7e:b5:a0:f9:db:ef:23:cf:af:c7:34:9a:
                    40:d1:81:58:4b:5a:fb:b2:47:12:d7:3e:f5:9f:92:
                    8a:61:06:dd:eb:ec:77:39:22:94:59:6e:51:a5:df:
                    4b:bf:9f:68:79:a9:17:ff:66:5d:fc:1f:af:d7:b7:
                    16:b5:e5:9c:79:a5:39:65:8f:31:02:03:db:ea:2c:
                    89:87
                Exponent: 65537 (0x10001)
        X509v3 extensions:
            X509v3 Basic Constraints: 
                CA:FALSE
            X509v3 Subject Key Identifier: 
                B7:F0:3D:C1:30:45:35:B0:82:60:3A:CC:22:DC:D0:EA:F2:F6:95:17
            X509v3 Authority Key Identifier: 
                keyid:68:CC:2D:71:A7:A6:6C:6A:85:EF:F0:92:02:79:D8:69:B6:DC:51:33
                DirName:/CN=team2-net
                serial:07:E5:62:44:E5:94:C5:25:9A:FB:7C:E6:D0:AC:D2:E0:0E:DA:05:8E
            X509v3 Extended Key Usage: 
                TLS Web Server Authentication
            X509v3 Key Usage: 
                Digital Signature, Key Encipherment
            X509v3 Subject Alternative Name: 
                DNS:team2-server
    Signature Algorithm: sha256WithRSAEncryption
    Signature Value:
        74:87:8d:79:61:94:2c:29:6c:44:bd:0b:49:b1:38:00:61:38:
        9b:a5:e2:c9:4a:bc:7b:eb:35:62:ff:e6:21:21:c1:45:66:f0:
        d4:9f:b2:a1:81:0e:cc:f0:45:72:da:b2:21:76:97:3b:dd:44:
        c3:da:3a:77:54:b0:af:48:01:16:94:1f:71:42:ad:21:1f:f7:
        91:90:21:86:dd:44:e0:e6:b3:f5:30:d7:15:a9:ca:97:d9:6b:
        95:2b:92:85:f7:f3:0d:87:9c:ed:92:76:9d:76:c6:5c:f3:1d:
        cb:23:7b:32:60:ea:f3:52:c1:ca:4f:19:85:3d:cf:90:d9:f1:
        68:da:73:f5:5e:93:b5:ff:83:50:9f:a3:7c:84:b5:8c:63:30:
        1f:22:da:86:c3:40:62:25:b1:5a:75:b1:53:c1:da:31:37:46:
        95:10:f5:a4:40:ef:53:ce:58:09:2c:cd:a2:9d:7b:1d:ed:66:
        7e:e0:41:99:55:c2:12:77:ec:2b:c8:91:1e:c1:37:b2:a3:ba:
        f9:b2:51:b6:d3:44:df:82:11:4c:b8:75:15:f9:cc:2a:bd:c9:
        a0:36:fb:28:be:01:b8:d6:ab:87:47:5e:2b:b0:4d:05:58:93:
        1c:9e:c3:b1:09:a4:e3:f6:94:66:76:25:1e:7b:0f:09:29:7d:
        d1:45:9d:f8
-----BEGIN CERTIFICATE-----
MIIDbzCCAlegAwIBAgIQD6U7Ubse3Smty61zAlH8DjANBgkqhkiG9w0BAQsFADAU
MRIwEAYDVQQDDAl0ZWFtMi1uZXQwHhcNMjMwNDIwMDAwOTU2WhcNMjYwNDA0MDAw
OTU2WjAXMRUwEwYDVQQDDAx0ZWFtMi1zZXJ2ZXIwggEiMA0GCSqGSIb3DQEBAQUA
A4IBDwAwggEKAoIBAQCelcUiybTaTEazjn4d5Tywspuye446/F0CxEKRwPQ/uLuk
IlYe0MqqQ3HR5BRlurrriGSBWWM6huD2V1buexfo5JqDV5zyXNXUG7qFKqPDADC8
woYx1hwRES5DUfbocvcnW1CCJHbrH/jOFoS75GWlJRz7UxqETcB/mXeYfiAw4MmK
VoDcjArqxt1ql/lz0QYhtldDcooeySG+4Uim70822Mux52+IrZyVO1gVICq7YDVC
JbAXK361oPnb7yPPr8c0mkDRgVhLWvuyRxLXPvWfkophBt3r7Hc5IpRZblGl30u/
n2h5qRf/Zl38H6/Xtxa15Zx5pTlljzECA9vqLImHAgMBAAGjgbkwgbYwCQYDVR0T
BAIwADAdBgNVHQ4EFgQUt/A9wTBFNbCCYDrMItzQ6vL2lRcwTwYDVR0jBEgwRoAU
aMwtcaembGqF7/CSAnnYabbcUTOhGKQWMBQxEjAQBgNVBAMMCXRlYW0yLW5ldIIU
B+ViROWUxSWa+3zm0KzS4A7aBY4wEwYDVR0lBAwwCgYIKwYBBQUHAwEwCwYDVR0P
BAQDAgWgMBcGA1UdEQQQMA6CDHRlYW0yLXNlcnZlcjANBgkqhkiG9w0BAQsFAAOC
AQEAdIeNeWGULClsRL0LSbE4AGE4m6XiyUq8e+s1Yv/mISHBRWbw1J+yoYEOzPBF
ctqyIXaXO91Ew9o6d1Swr0gBFpQfcUKtIR/3kZAhht1E4Oaz9TDXFanKl9lrlSuS
hffzDYec7ZJ2nXbGXPMdyyN7MmDq81LByk8ZhT3PkNnxaNpz9V6Ttf+DUJ+jfIS1
jGMwHyLahsNAYiWxWnWxU8HaMTdGlRD1pEDvU85YCSzNop17He1mfuBBmVXCEnfs
K8iRHsE3sqO6+bJRttNE34IRTLh1FfnMKr3JoDb7KL4BuNarh0deK7BNBViTHJ7D
sQmk4/aUZnYlHnsPCSl90UWd+A==
-----END CERTIFICATE-----
