Certificate:
    Data:
        Version: 3 (0x2)
        Serial Number:
            2c:03:89:db:f8:31:4b:bf:e8:23:7a:1e:02:47:a8:ba
        Signature Algorithm: sha256WithRSAEncryption
        Issuer: CN=team2-net
        Validity
            Not Before: Apr 20 00:09:56 2023 GMT
            Not After : Apr  4 00:09:56 2026 GMT
        Subject: CN=team2-client
        Subject Public Key Info:
            Public Key Algorithm: rsaEncryption
                Public-Key: (2048 bit)
                Modulus:
                    00:a2:8a:35:05:12:de:c7:16:77:92:b9:aa:4f:34:
                    52:26:e8:c9:39:2d:1b:99:3a:3d:fb:0b:82:2e:f7:
                    26:e9:50:4d:2d:04:ec:9a:ed:94:83:c4:45:91:e2:
                    f4:e1:2c:4c:24:17:e6:4b:30:52:da:3d:a2:3a:92:
                    bb:50:2f:46:b3:39:e8:70:52:4b:db:00:8e:69:c7:
                    e2:df:c9:31:ef:85:7e:1f:89:9a:90:84:5c:fa:dd:
                    3e:4d:cb:68:72:b8:cc:93:06:c1:a6:e0:48:78:70:
                    c1:06:1b:88:3b:e6:19:73:22:f0:7d:1e:0e:50:59:
                    0a:60:a6:9e:e9:3b:28:d6:b4:ee:58:02:ed:00:cf:
                    b1:b6:68:47:1a:ad:7a:b5:66:bf:e4:f0:f1:98:65:
                    3e:45:83:28:b5:14:2f:6d:38:86:1d:cc:60:39:09:
                    02:ea:86:0f:ec:e6:73:bd:76:55:93:09:ec:44:0a:
                    11:85:28:c9:ba:64:34:e8:03:ad:c9:9d:86:8e:61:
                    ec:60:8a:a7:ad:7a:78:34:48:41:2d:9b:51:a3:96:
                    cd:ef:2f:43:2c:80:a5:77:57:08:9b:8a:2b:14:3d:
                    ee:79:30:df:0a:e7:2d:17:17:63:b9:0a:9e:e8:9d:
                    29:46:9b:b6:b0:44:25:54:e3:4d:48:25:26:ac:63:
                    08:9b
                Exponent: 65537 (0x10001)
        X509v3 extensions:
            X509v3 Basic Constraints: 
                CA:FALSE
            X509v3 Subject Key Identifier: 
                D1:27:02:9E:E2:0F:2A:CA:78:5A:D6:3E:7E:31:4A:5D:23:AA:8E:40
            X509v3 Authority Key Identifier: 
                keyid:68:CC:2D:71:A7:A6:6C:6A:85:EF:F0:92:02:79:D8:69:B6:DC:51:33
                DirName:/CN=team2-net
                serial:07:E5:62:44:E5:94:C5:25:9A:FB:7C:E6:D0:AC:D2:E0:0E:DA:05:8E
            X509v3 Extended Key Usage: 
                TLS Web Client Authentication
            X509v3 Key Usage: 
                Digital Signature
    Signature Algorithm: sha256WithRSAEncryption
    Signature Value:
        15:46:b9:6a:79:72:fc:68:6d:40:16:4a:cb:37:5b:6b:f3:01:
        e5:31:cc:7c:92:a8:97:b7:c4:73:9b:5e:74:6e:b0:4a:19:3c:
        91:61:8a:c5:e7:47:70:e9:88:b3:a0:7f:78:9f:64:4e:c7:ea:
        56:7e:d2:0c:f9:66:d7:bb:ff:85:3b:61:bf:27:14:e8:00:92:
        05:ed:2e:64:5f:8f:d1:81:9c:f9:61:fa:6a:53:30:16:f1:1b:
        ee:c9:77:3c:7d:4c:62:c0:7c:57:61:78:4d:1d:c3:0c:ef:de:
        49:c9:90:2f:26:0b:b1:44:48:75:66:86:be:1c:bb:e0:52:e3:
        9c:19:57:3b:ca:4d:b2:20:1d:ad:0f:a8:7e:99:cb:8c:4a:25:
        cc:3b:f4:33:61:f5:18:ff:74:f8:27:65:a3:bb:5d:b5:a3:d6:
        34:66:0f:ff:26:95:8e:27:a2:04:5e:6f:a4:e5:ab:e6:3c:da:
        d9:4d:02:04:55:d6:df:c6:2a:e1:30:61:66:14:c7:8a:24:7d:
        5e:32:b5:07:3e:ed:d3:7d:d5:02:e8:73:7b:b1:f0:e2:ee:29:
        cb:51:2e:5f:67:83:81:1d:c1:b9:22:a9:f2:88:e0:81:3e:69:
        85:dd:d1:c7:86:75:a4:ef:dc:f6:3e:71:72:20:a0:83:66:9d:
        a5:67:b7:be
-----BEGIN CERTIFICATE-----
MIIDVjCCAj6gAwIBAgIQLAOJ2/gxS7/oI3oeAkeoujANBgkqhkiG9w0BAQsFADAU
MRIwEAYDVQQDDAl0ZWFtMi1uZXQwHhcNMjMwNDIwMDAwOTU2WhcNMjYwNDA0MDAw
OTU2WjAXMRUwEwYDVQQDDAx0ZWFtMi1jbGllbnQwggEiMA0GCSqGSIb3DQEBAQUA
A4IBDwAwggEKAoIBAQCiijUFEt7HFneSuapPNFIm6Mk5LRuZOj37C4Iu9ybpUE0t
BOya7ZSDxEWR4vThLEwkF+ZLMFLaPaI6krtQL0azOehwUkvbAI5px+LfyTHvhX4f
iZqQhFz63T5Ny2hyuMyTBsGm4Eh4cMEGG4g75hlzIvB9Hg5QWQpgpp7pOyjWtO5Y
Au0Az7G2aEcarXq1Zr/k8PGYZT5Fgyi1FC9tOIYdzGA5CQLqhg/s5nO9dlWTCexE
ChGFKMm6ZDToA63JnYaOYexgiqeteng0SEEtm1Gjls3vL0MsgKV3VwibiisUPe55
MN8K5y0XF2O5Cp7onSlGm7awRCVU401IJSasYwibAgMBAAGjgaAwgZ0wCQYDVR0T
BAIwADAdBgNVHQ4EFgQU0ScCnuIPKsp4WtY+fjFKXSOqjkAwTwYDVR0jBEgwRoAU
aMwtcaembGqF7/CSAnnYabbcUTOhGKQWMBQxEjAQBgNVBAMMCXRlYW0yLW5ldIIU
B+ViROWUxSWa+3zm0KzS4A7aBY4wEwYDVR0lBAwwCgYIKwYBBQUHAwIwCwYDVR0P
BAQDAgeAMA0GCSqGSIb3DQEBCwUAA4IBAQAVRrlqeXL8aG1AFkrLN1tr8wHlMcx8
kqiXt8Rzm150brBKGTyRYYrF50dw6YizoH94n2ROx+pWftIM+WbXu/+FO2G/JxTo
AJIF7S5kX4/RgZz5YfpqUzAW8RvuyXc8fUxiwHxXYXhNHcMM795JyZAvJguxREh1
Zoa+HLvgUuOcGVc7yk2yIB2tD6h+mcuMSiXMO/QzYfUY/3T4J2Wju121o9Y0Zg//
JpWOJ6IEXm+k5avmPNrZTQIEVdbfxirhMGFmFMeKJH1eMrUHPu3TfdUC6HN7sfDi
7inLUS5fZ4OBHcG5IqnyiOCBPmmF3dHHhnWk79z2PnFyIKCDZp2lZ7e+
-----END CERTIFICATE-----
