Certificate:
    Data:
        Version: 3 (0x2)
        Serial Number:
            70:45:3b:a5:16:68:19:21:54:85:33:5d:f7:a6:d5:66
        Signature Algorithm: sha256WithRSAEncryption
        Issuer: CN=team2-net
        Validity
            Not Before: Apr 20 22:53:25 2023 GMT
            Not After : Apr  4 22:53:25 2026 GMT
        Subject: CN=team2-client
        Subject Public Key Info:
            Public Key Algorithm: rsaEncryption
                Public-Key: (2048 bit)
                Modulus:
                    00:9d:17:b3:4e:c8:4c:fe:99:59:56:cf:de:d8:fd:
                    6b:8e:af:47:b8:58:e3:ea:b9:dd:be:4f:6a:62:2f:
                    9d:db:dd:a2:fb:0e:42:ca:cb:9c:a0:91:96:eb:ab:
                    dd:62:a0:6a:aa:c9:a2:26:6f:95:af:46:8d:3b:7e:
                    52:73:37:72:11:43:db:f6:b3:68:85:ad:12:dc:c9:
                    e2:52:a8:19:ff:91:e0:aa:fc:3d:0c:33:fb:00:d8:
                    79:14:ca:9b:4f:44:66:7f:15:7e:e4:12:88:36:f3:
                    47:74:49:a2:c6:16:60:63:5a:c1:f7:3d:90:87:42:
                    79:60:83:14:33:c1:e0:8d:e7:26:cd:be:16:3f:de:
                    fd:3d:57:3f:8a:a3:a8:74:3e:d2:b0:5c:cb:f3:0d:
                    68:21:b8:dd:7a:1f:24:86:46:41:df:32:96:b2:cd:
                    94:21:8c:9c:66:24:96:6e:d8:86:3c:46:fb:b1:e8:
                    bf:28:84:5c:c3:20:f2:6e:08:c8:4c:f6:92:f2:0a:
                    65:fb:4b:60:56:f0:87:5a:24:61:38:d9:88:60:2d:
                    01:b4:8f:dc:20:db:72:7d:b1:69:ac:c7:1e:36:cd:
                    45:4c:fc:59:00:c3:97:ff:a1:03:3e:24:2f:e5:bf:
                    5d:14:db:5a:b3:72:9f:e7:19:bc:27:22:c8:6a:98:
                    1c:f3
                Exponent: 65537 (0x10001)
        X509v3 extensions:
            X509v3 Basic Constraints: 
                CA:FALSE
            X509v3 Subject Key Identifier: 
                72:6F:7B:8D:EC:E0:74:A3:F4:EB:4B:11:8C:71:20:57:AB:72:C7:F0
            X509v3 Authority Key Identifier: 
                keyid:72:E3:03:0B:87:AB:23:56:CA:DB:48:9E:90:C9:F1:7E:CF:81:90:E5
                DirName:/CN=team2-net
                serial:76:FA:41:AA:49:32:21:6A:01:8C:C8:99:1C:27:CF:EE:71:86:C7:FF
            X509v3 Extended Key Usage: 
                TLS Web Client Authentication
            X509v3 Key Usage: 
                Digital Signature
    Signature Algorithm: sha256WithRSAEncryption
    Signature Value:
        7e:d1:b9:12:06:4c:dc:e9:b4:38:3d:d2:f6:a3:4e:6d:dc:e0:
        f8:c0:e8:2d:54:87:04:05:af:ef:4b:3e:c6:50:75:bb:c9:41:
        57:98:87:8c:6b:2e:f9:61:21:d5:16:d9:82:a7:7f:e4:85:37:
        5e:f8:8c:70:fb:80:f3:92:08:02:f6:a1:27:81:f6:07:8f:0b:
        6b:19:38:6b:90:06:bf:38:57:e0:3d:53:0c:1f:32:cd:56:1d:
        93:06:34:a4:63:8a:ed:23:67:ba:d4:b5:3d:4b:e0:8e:28:5a:
        80:f5:b3:59:1b:7a:e8:d7:de:58:7e:7c:a8:b0:5e:64:95:ca:
        10:34:33:fe:50:24:4f:99:f1:5a:b3:f7:45:1f:a3:98:75:59:
        3c:2a:f4:d7:8d:08:c3:9d:f7:db:58:ad:be:55:7b:9f:46:91:
        25:69:34:57:2a:a3:7c:52:b4:fe:35:83:6e:c4:c9:5c:9a:f0:
        0f:43:09:c8:eb:00:26:a3:bf:64:96:85:1f:48:7f:7f:b9:fd:
        95:4e:59:4a:d9:ab:16:6e:4e:fa:bf:e7:ac:a4:ed:df:86:76:
        c3:d9:75:35:f8:31:96:a8:d8:4b:b8:d8:f1:38:49:a3:30:d6:
        5c:1a:ac:f0:e2:cf:2a:4a:4e:20:f6:64:a7:46:3b:aa:c4:bf:
        53:ed:59:92
-----BEGIN CERTIFICATE-----
MIIDVjCCAj6gAwIBAgIQcEU7pRZoGSFUhTNd96bVZjANBgkqhkiG9w0BAQsFADAU
MRIwEAYDVQQDDAl0ZWFtMi1uZXQwHhcNMjMwNDIwMjI1MzI1WhcNMjYwNDA0MjI1
MzI1WjAXMRUwEwYDVQQDDAx0ZWFtMi1jbGllbnQwggEiMA0GCSqGSIb3DQEBAQUA
A4IBDwAwggEKAoIBAQCdF7NOyEz+mVlWz97Y/WuOr0e4WOPqud2+T2piL53b3aL7
DkLKy5ygkZbrq91ioGqqyaImb5WvRo07flJzN3IRQ9v2s2iFrRLcyeJSqBn/keCq
/D0MM/sA2HkUyptPRGZ/FX7kEog280d0SaLGFmBjWsH3PZCHQnlggxQzweCN5ybN
vhY/3v09Vz+Ko6h0PtKwXMvzDWghuN16HySGRkHfMpayzZQhjJxmJJZu2IY8Rvux
6L8ohFzDIPJuCMhM9pLyCmX7S2BW8IdaJGE42YhgLQG0j9wg23J9sWmsxx42zUVM
/FkAw5f/oQM+JC/lv10U21qzcp/nGbwnIshqmBzzAgMBAAGjgaAwgZ0wCQYDVR0T
BAIwADAdBgNVHQ4EFgQUcm97jezgdKP060sRjHEgV6tyx/AwTwYDVR0jBEgwRoAU
cuMDC4erI1bK20iekMnxfs+BkOWhGKQWMBQxEjAQBgNVBAMMCXRlYW0yLW5ldIIU
dvpBqkkyIWoBjMiZHCfP7nGGx/8wEwYDVR0lBAwwCgYIKwYBBQUHAwIwCwYDVR0P
BAQDAgeAMA0GCSqGSIb3DQEBCwUAA4IBAQB+0bkSBkzc6bQ4PdL2o05t3OD4wOgt
VIcEBa/vSz7GUHW7yUFXmIeMay75YSHVFtmCp3/khTde+Ixw+4DzkggC9qEngfYH
jwtrGThrkAa/OFfgPVMMHzLNVh2TBjSkY4rtI2e61LU9S+COKFqA9bNZG3ro195Y
fnyosF5klcoQNDP+UCRPmfFas/dFH6OYdVk8KvTXjQjDnffbWK2+VXufRpElaTRX
KqN8UrT+NYNuxMlcmvAPQwnI6wAmo79kloUfSH9/uf2VTllK2asWbk76v+espO3f
hnbD2XU1+DGWqNhLuNjxOEmjMNZcGqzw4s8qSk4g9mSnRjuqxL9T7VmS
-----END CERTIFICATE-----
