Certificate:
    Data:
        Version: 3 (0x2)
        Serial Number:
            1f:7b:05:28:1f:b9:29:07:dc:88:26:a7:5f:63:38:93
        Signature Algorithm: sha256WithRSAEncryption
        Issuer: CN=team47-net
        Validity
            Not Before: Apr 20 00:11:02 2023 GMT
            Not After : Apr  4 00:11:02 2026 GMT
        Subject: CN=team47-client
        Subject Public Key Info:
            Public Key Algorithm: rsaEncryption
                Public-Key: (2048 bit)
                Modulus:
                    00:b4:06:3c:0d:25:6c:58:7b:75:ee:cb:69:08:8f:
                    fc:80:b6:8b:6c:e0:2f:8f:09:a0:47:c6:06:19:42:
                    3b:77:d5:78:87:44:a8:b6:0a:ce:d8:cb:47:ca:8c:
                    0b:ac:5d:6b:4c:41:26:d7:9e:70:34:7b:25:d5:5e:
                    8b:8e:29:8a:bc:e5:44:13:81:3e:a0:ea:1c:a1:61:
                    08:6d:fd:0d:8a:18:9f:7e:7f:10:f3:82:08:57:74:
                    77:67:01:ad:51:95:5a:fe:54:62:50:bd:d9:d9:e2:
                    f4:27:e5:87:97:ce:d4:25:83:59:08:46:13:24:7e:
                    f5:46:3d:77:4d:86:1b:17:5c:40:b2:53:a7:8a:50:
                    19:0a:5d:62:6c:9c:2e:33:9a:e6:d1:8c:7c:4d:da:
                    54:a3:13:85:5f:37:e2:a2:00:2d:6c:fa:09:81:09:
                    1c:0c:d1:91:60:05:0c:d1:e7:94:09:3b:e8:e2:8e:
                    cd:7e:d9:94:1e:75:e9:c8:5d:e9:e9:7d:7f:95:56:
                    48:4e:11:14:ef:65:6b:e8:02:92:bb:31:20:87:1d:
                    7c:6e:52:61:98:58:06:55:09:ef:40:57:1d:ae:68:
                    3f:23:77:18:50:a3:19:c2:4d:93:7a:36:c4:92:e5:
                    e8:0d:75:82:87:8a:9b:9c:8b:98:3f:9f:da:14:ff:
                    7b:f5
                Exponent: 65537 (0x10001)
        X509v3 extensions:
            X509v3 Basic Constraints: 
                CA:FALSE
            X509v3 Subject Key Identifier: 
                C4:47:B7:E1:A2:B3:D4:D0:79:E8:93:AB:A4:61:91:C9:3D:58:A8:65
            X509v3 Authority Key Identifier: 
                keyid:B3:A4:A9:07:15:33:CB:1D:BF:E9:7B:67:CD:9E:F2:09:6A:CB:28:06
                DirName:/CN=team47-net
                serial:5E:6F:12:D6:BE:48:EF:29:C7:5B:CC:07:E5:54:8C:B6:B6:C7:F8:04
            X509v3 Extended Key Usage: 
                TLS Web Client Authentication
            X509v3 Key Usage: 
                Digital Signature
    Signature Algorithm: sha256WithRSAEncryption
    Signature Value:
        52:46:26:97:ed:3e:fb:db:c3:ec:14:29:5b:4a:28:5e:b7:13:
        49:e4:cf:5d:11:ce:d0:82:0a:e1:e9:37:bd:0d:70:ec:7d:31:
        6e:88:bf:fb:55:d6:f5:95:f8:52:24:08:03:df:59:32:2a:7b:
        b0:f6:5b:10:c9:7d:72:a4:6c:58:b8:73:ce:ef:51:c4:ec:5e:
        b8:54:43:fc:79:b8:37:c7:8b:4b:53:8b:5e:a4:24:a6:af:be:
        d2:f1:39:0c:59:28:05:72:0f:e8:f7:9f:e8:e3:6d:45:05:4b:
        e0:84:66:1f:50:2c:ab:4c:25:a2:dc:1c:7d:f5:43:ec:7d:b4:
        24:f6:69:db:de:15:df:65:8d:e8:75:e5:23:ab:71:53:55:9d:
        fe:06:15:6b:58:fe:8f:15:58:fb:16:06:3a:76:69:50:e9:9b:
        aa:85:b4:92:95:06:60:60:54:66:4e:f8:5d:59:fa:da:f7:96:
        9c:3c:15:93:12:41:09:f4:cf:3c:f8:42:f2:0a:9d:c1:c7:81:
        43:b8:4a:a9:3d:62:15:89:3e:2f:90:0a:62:1c:b8:19:54:e8:
        8f:d5:d2:4f:17:aa:a0:01:ae:93:cd:99:b7:38:ba:5e:c2:c0:
        ee:b7:ad:9c:1d:bd:b9:59:a2:e6:2a:af:36:07:9f:26:5e:d2:
        d5:7f:fe:f5
-----BEGIN CERTIFICATE-----
MIIDWTCCAkGgAwIBAgIQH3sFKB+5KQfciCanX2M4kzANBgkqhkiG9w0BAQsFADAV
MRMwEQYDVQQDDAp0ZWFtNDctbmV0MB4XDTIzMDQyMDAwMTEwMloXDTI2MDQwNDAw
MTEwMlowGDEWMBQGA1UEAwwNdGVhbTQ3LWNsaWVudDCCASIwDQYJKoZIhvcNAQEB
BQADggEPADCCAQoCggEBALQGPA0lbFh7de7LaQiP/IC2i2zgL48JoEfGBhlCO3fV
eIdEqLYKztjLR8qMC6xda0xBJteecDR7JdVei44pirzlRBOBPqDqHKFhCG39DYoY
n35/EPOCCFd0d2cBrVGVWv5UYlC92dni9Cflh5fO1CWDWQhGEyR+9UY9d02GGxdc
QLJTp4pQGQpdYmycLjOa5tGMfE3aVKMThV834qIALWz6CYEJHAzRkWAFDNHnlAk7
6OKOzX7ZlB516chd6el9f5VWSE4RFO9la+gCkrsxIIcdfG5SYZhYBlUJ70BXHa5o
PyN3GFCjGcJNk3o2xJLl6A11goeKm5yLmD+f2hT/e/UCAwEAAaOBoTCBnjAJBgNV
HRMEAjAAMB0GA1UdDgQWBBTER7fhorPU0Hnok6ukYZHJPVioZTBQBgNVHSMESTBH
gBSzpKkHFTPLHb/pe2fNnvIJassoBqEZpBcwFTETMBEGA1UEAwwKdGVhbTQ3LW5l
dIIUXm8S1r5I7ynHW8wH5VSMtrbH+AQwEwYDVR0lBAwwCgYIKwYBBQUHAwIwCwYD
VR0PBAQDAgeAMA0GCSqGSIb3DQEBCwUAA4IBAQBSRiaX7T7728PsFClbSihetxNJ
5M9dEc7Qggrh6Te9DXDsfTFuiL/7Vdb1lfhSJAgD31kyKnuw9lsQyX1ypGxYuHPO
71HE7F64VEP8ebg3x4tLU4tepCSmr77S8TkMWSgFcg/o95/o421FBUvghGYfUCyr
TCWi3Bx99UPsfbQk9mnb3hXfZY3odeUjq3FTVZ3+BhVrWP6PFVj7FgY6dmlQ6Zuq
hbSSlQZgYFRmTvhdWfra95acPBWTEkEJ9M88+ELyCp3Bx4FDuEqpPWIViT4vkApi
HLgZVOiP1dJPF6qgAa6TzZm3OLpewsDut62cHb25WaLmKq82B58mXtLVf/71
-----END CERTIFICATE-----
