Certificate:
    Data:
        Version: 3 (0x2)
        Serial Number:
            44:ac:68:1c:f0:80:33:8f:0d:4b:18:49:c2:b0:22:5c
        Signature Algorithm: sha256WithRSAEncryption
        Issuer: CN=team47-net
        Validity
            Not Before: Apr 20 00:11:02 2023 GMT
            Not After : Apr  4 00:11:02 2026 GMT
        Subject: CN=team47-server
        Subject Public Key Info:
            Public Key Algorithm: rsaEncryption
                Public-Key: (2048 bit)
                Modulus:
                    00:9b:aa:d5:e7:1f:82:25:f3:fc:1f:99:5a:21:cf:
                    d3:40:69:6a:48:91:f4:b5:b4:ad:e8:2d:cf:3f:dd:
                    25:8f:7b:b8:02:16:ab:48:1e:e3:a1:2b:3d:88:1e:
                    23:6a:3f:18:22:a1:a6:71:2e:a3:c7:64:46:56:10:
                    9f:40:da:7e:25:a4:06:09:1f:78:4f:b1:9e:bf:a3:
                    8d:d3:98:46:b7:fa:59:12:d5:4c:1b:26:b0:1f:93:
                    28:13:60:eb:4a:2b:b0:9c:8e:93:f0:5e:f2:dc:1a:
                    5a:54:b1:93:4b:08:06:21:87:54:cb:87:ec:95:e1:
                    d1:7a:b3:db:5d:02:e9:06:ca:88:a5:e7:94:42:3b:
                    70:7d:8d:70:94:9e:e3:c4:58:48:85:f7:b9:56:09:
                    aa:a0:b5:b1:0c:26:8b:20:f8:67:b2:ba:7b:65:67:
                    2e:4e:0f:6b:2f:51:ce:7d:ef:fd:0e:e1:5b:41:43:
                    a3:5d:80:c3:db:53:c3:b9:28:fb:e0:11:cb:65:07:
                    40:91:5a:98:eb:51:0c:9a:ec:7d:6a:fc:5b:08:52:
                    56:5f:42:36:1d:54:f8:69:92:e7:15:05:e6:62:5a:
                    f0:89:22:76:64:b3:8a:6b:cb:0b:a4:3e:02:20:31:
                    32:07:51:2c:56:88:ef:dc:6a:12:fe:2a:44:c4:f7:
                    07:67
                Exponent: 65537 (0x10001)
        X509v3 extensions:
            X509v3 Basic Constraints: 
                CA:FALSE
            X509v3 Subject Key Identifier: 
                71:34:6B:FA:01:34:21:D0:C2:E6:74:99:7F:49:47:82:31:9D:67:0A
            X509v3 Authority Key Identifier: 
                keyid:B3:A4:A9:07:15:33:CB:1D:BF:E9:7B:67:CD:9E:F2:09:6A:CB:28:06
                DirName:/CN=team47-net
                serial:5E:6F:12:D6:BE:48:EF:29:C7:5B:CC:07:E5:54:8C:B6:B6:C7:F8:04
            X509v3 Extended Key Usage: 
                TLS Web Server Authentication
            X509v3 Key Usage: 
                Digital Signature, Key Encipherment
            X509v3 Subject Alternative Name: 
                DNS:team47-server
    Signature Algorithm: sha256WithRSAEncryption
    Signature Value:
        6b:b4:5d:e7:8f:c7:65:f6:56:a4:2a:c9:51:90:84:35:00:19:
        5f:2b:fe:a1:eb:29:c5:9b:24:d2:cd:b3:61:06:d7:e9:cf:8c:
        98:a4:92:37:e8:81:3f:a6:34:75:8d:b9:ed:ee:b2:20:ba:bc:
        4d:12:34:22:22:a5:82:ba:da:84:fe:46:fc:1e:df:cc:35:61:
        3f:f2:64:ff:09:f6:6d:b6:b9:3e:b1:fb:14:aa:d5:d7:4f:79:
        b8:f6:82:aa:1d:f2:d9:e6:89:99:5d:4b:db:a1:6c:15:59:8b:
        c0:c5:a8:e4:53:c6:56:18:7b:ce:03:5a:f8:f7:1b:42:e1:0e:
        b5:ce:f4:3a:1a:77:08:c5:6c:8d:80:da:a9:08:eb:b0:ab:51:
        6b:66:ae:5d:4c:0f:c1:3d:51:d6:86:84:32:6d:20:b8:be:8b:
        b7:1d:bc:2d:b2:fa:db:d8:33:e2:14:c1:78:8b:83:c1:71:92:
        a0:86:6a:84:9c:fd:2a:e6:d5:f1:4e:44:0e:3d:6f:60:15:b6:
        a4:ab:03:26:3e:48:7e:33:11:66:cd:ab:d6:cd:bd:e8:20:60:
        d3:1f:8b:6c:a1:85:0d:1a:15:71:56:29:3e:c9:7e:c2:11:50:
        94:15:28:e2:73:91:be:4a:09:6e:b1:f3:2b:ea:89:7d:9b:b9:
        91:73:c6:49
-----BEGIN CERTIFICATE-----
MIIDczCCAlugAwIBAgIQRKxoHPCAM48NSxhJwrAiXDANBgkqhkiG9w0BAQsFADAV
MRMwEQYDVQQDDAp0ZWFtNDctbmV0MB4XDTIzMDQyMDAwMTEwMloXDTI2MDQwNDAw
MTEwMlowGDEWMBQGA1UEAwwNdGVhbTQ3LXNlcnZlcjCCASIwDQYJKoZIhvcNAQEB
BQADggEPADCCAQoCggEBAJuq1ecfgiXz/B+ZWiHP00BpakiR9LW0regtzz/dJY97
uAIWq0ge46ErPYgeI2o/GCKhpnEuo8dkRlYQn0DafiWkBgkfeE+xnr+jjdOYRrf6
WRLVTBsmsB+TKBNg60orsJyOk/Be8twaWlSxk0sIBiGHVMuH7JXh0Xqz210C6QbK
iKXnlEI7cH2NcJSe48RYSIX3uVYJqqC1sQwmiyD4Z7K6e2VnLk4Pay9Rzn3v/Q7h
W0FDo12Aw9tTw7ko++ARy2UHQJFamOtRDJrsfWr8WwhSVl9CNh1U+GmS5xUF5mJa
8IkidmSzimvLC6Q+AiAxMgdRLFaI79xqEv4qRMT3B2cCAwEAAaOBuzCBuDAJBgNV
HRMEAjAAMB0GA1UdDgQWBBRxNGv6ATQh0MLmdJl/SUeCMZ1nCjBQBgNVHSMESTBH
gBSzpKkHFTPLHb/pe2fNnvIJassoBqEZpBcwFTETMBEGA1UEAwwKdGVhbTQ3LW5l
dIIUXm8S1r5I7ynHW8wH5VSMtrbH+AQwEwYDVR0lBAwwCgYIKwYBBQUHAwEwCwYD
VR0PBAQDAgWgMBgGA1UdEQQRMA+CDXRlYW00Ny1zZXJ2ZXIwDQYJKoZIhvcNAQEL
BQADggEBAGu0XeePx2X2VqQqyVGQhDUAGV8r/qHrKcWbJNLNs2EG1+nPjJikkjfo
gT+mNHWNue3usiC6vE0SNCIipYK62oT+Rvwe38w1YT/yZP8J9m22uT6x+xSq1ddP
ebj2gqod8tnmiZldS9uhbBVZi8DFqORTxlYYe84DWvj3G0LhDrXO9DoadwjFbI2A
2qkI67CrUWtmrl1MD8E9UdaGhDJtILi+i7cdvC2y+tvYM+IUwXiLg8FxkqCGaoSc
/Srm1fFORA49b2AVtqSrAyY+SH4zEWbNq9bNveggYNMfi2yhhQ0aFXFWKT7JfsIR
UJQVKOJzkb5KCW6x8yvqiX2buZFzxkk=
-----END CERTIFICATE-----
