Certificate:
    Data:
        Version: 3 (0x2)
        Serial Number:
            5a:dc:63:ca:8b:a6:24:c9:c7:09:cf:4c:9a:11:6c:55
        Signature Algorithm: sha256WithRSAEncryption
        Issuer: CN=team47-net
        Validity
            Not Before: Apr 20 22:54:37 2023 GMT
            Not After : Apr  4 22:54:37 2026 GMT
        Subject: CN=team47-client
        Subject Public Key Info:
            Public Key Algorithm: rsaEncryption
                Public-Key: (2048 bit)
                Modulus:
                    00:87:08:40:a9:4d:5d:d3:af:a1:f0:1b:d4:3e:44:
                    81:36:ac:fb:2d:a1:b1:0f:7e:3c:16:61:6a:25:93:
                    27:71:63:7e:9b:f8:09:c3:1e:42:0f:3f:da:70:a9:
                    36:3e:f1:2a:50:61:82:f3:9b:84:4d:44:4e:96:c0:
                    7a:b8:f0:99:23:d3:d9:77:de:3e:6d:f5:03:7e:17:
                    a4:74:ae:ef:43:e2:2e:7d:b9:d5:dd:8a:76:e0:47:
                    dc:a1:2f:8f:05:24:76:6b:c5:47:d7:38:f6:90:07:
                    52:7e:5c:ab:2d:92:0f:19:6e:18:00:e2:df:da:cb:
                    83:09:0c:8f:85:2e:2e:23:19:7b:60:af:6a:bc:03:
                    52:b4:d0:ac:f1:de:1e:44:f7:94:56:c1:7e:7e:4b:
                    35:1e:82:13:a6:3a:65:5a:4f:02:03:8b:61:7e:b3:
                    0e:b6:6f:36:2d:9f:01:ea:57:46:b1:0a:fe:d1:a3:
                    2c:8c:64:c0:96:9b:ed:8e:38:18:ee:ff:5b:a0:90:
                    c4:ff:53:c3:f2:fc:74:f9:0e:48:d2:ec:fd:52:cf:
                    b2:92:16:34:86:11:b4:92:1a:d9:38:45:76:1f:ab:
                    0e:42:58:93:4e:3f:d3:ee:fa:b0:15:54:87:d3:e0:
                    74:ce:b5:7f:8d:69:c8:70:5e:69:98:91:d0:10:96:
                    c5:bf
                Exponent: 65537 (0x10001)
        X509v3 extensions:
            X509v3 Basic Constraints: 
                CA:FALSE
            X509v3 Subject Key Identifier: 
                A6:A5:6D:F5:55:68:AA:51:94:01:F6:B3:74:83:32:80:9F:99:A9:9E
            X509v3 Authority Key Identifier: 
                keyid:32:1F:D9:72:9A:5F:05:4E:ED:15:5B:0E:15:22:8A:64:F2:E8:98:47
                DirName:/CN=team47-net
                serial:71:EC:EF:18:A0:BF:EF:BE:C8:BC:0D:10:D5:D0:AD:EA:3E:D2:74:0A
            X509v3 Extended Key Usage: 
                TLS Web Client Authentication
            X509v3 Key Usage: 
                Digital Signature
    Signature Algorithm: sha256WithRSAEncryption
    Signature Value:
        72:16:23:23:3f:b9:40:ad:cc:2f:ec:3a:d0:ca:05:d4:0f:cd:
        dc:a2:99:a7:74:0e:ef:cb:3f:14:0a:c8:cb:27:22:e7:ba:4a:
        c4:b0:e0:81:fc:59:1f:52:e3:bd:6e:c3:4d:ce:54:ce:56:cd:
        dd:ee:70:8f:ff:41:91:e4:21:7f:84:ff:8c:f6:08:af:2a:20:
        46:95:a0:12:05:e3:9a:31:0c:cc:e0:d5:19:34:b4:43:1f:04:
        42:b2:45:85:7b:c0:90:7b:cb:1b:e4:d0:12:b3:59:0e:81:92:
        2a:e6:29:99:c3:34:b0:e8:d2:bc:15:b0:f1:b9:8e:21:0a:c5:
        6c:89:7a:77:84:36:92:18:2e:e4:2e:d2:f0:71:0e:12:45:10:
        c7:c5:3a:f6:03:5d:6d:e2:1c:72:29:d2:e0:a7:19:81:2d:ee:
        f0:10:e2:33:ba:b6:77:6a:40:7f:26:6b:fe:09:66:55:7c:94:
        e4:ea:d2:48:cf:92:9e:f1:80:11:10:66:de:68:2e:31:26:2c:
        5b:42:13:7f:f7:df:5b:d5:9e:48:99:da:16:e6:f0:c8:6a:41:
        0c:3b:f8:3f:28:6c:a9:0c:e2:04:c2:20:d0:96:25:d3:ef:0e:
        18:2e:91:f7:0e:ba:9f:27:00:49:6d:e9:e7:09:38:2b:2b:65:
        a5:1f:0f:dc
-----BEGIN CERTIFICATE-----
MIIDWTCCAkGgAwIBAgIQWtxjyoumJMnHCc9MmhFsVTANBgkqhkiG9w0BAQsFADAV
MRMwEQYDVQQDDAp0ZWFtNDctbmV0MB4XDTIzMDQyMDIyNTQzN1oXDTI2MDQwNDIy
NTQzN1owGDEWMBQGA1UEAwwNdGVhbTQ3LWNsaWVudDCCASIwDQYJKoZIhvcNAQEB
BQADggEPADCCAQoCggEBAIcIQKlNXdOvofAb1D5EgTas+y2hsQ9+PBZhaiWTJ3Fj
fpv4CcMeQg8/2nCpNj7xKlBhgvObhE1ETpbAerjwmSPT2XfePm31A34XpHSu70Pi
Ln251d2KduBH3KEvjwUkdmvFR9c49pAHUn5cqy2SDxluGADi39rLgwkMj4UuLiMZ
e2CvarwDUrTQrPHeHkT3lFbBfn5LNR6CE6Y6ZVpPAgOLYX6zDrZvNi2fAepXRrEK
/tGjLIxkwJab7Y44GO7/W6CQxP9Tw/L8dPkOSNLs/VLPspIWNIYRtJIa2ThFdh+r
DkJYk04/0+76sBVUh9PgdM61f41pyHBeaZiR0BCWxb8CAwEAAaOBoTCBnjAJBgNV
HRMEAjAAMB0GA1UdDgQWBBSmpW31VWiqUZQB9rN0gzKAn5mpnjBQBgNVHSMESTBH
gBQyH9lyml8FTu0VWw4VIopk8uiYR6EZpBcwFTETMBEGA1UEAwwKdGVhbTQ3LW5l
dIIUcezvGKC/777IvA0Q1dCt6j7SdAowEwYDVR0lBAwwCgYIKwYBBQUHAwIwCwYD
VR0PBAQDAgeAMA0GCSqGSIb3DQEBCwUAA4IBAQByFiMjP7lArcwv7DrQygXUD83c
opmndA7vyz8UCsjLJyLnukrEsOCB/FkfUuO9bsNNzlTOVs3d7nCP/0GR5CF/hP+M
9givKiBGlaASBeOaMQzM4NUZNLRDHwRCskWFe8CQe8sb5NASs1kOgZIq5imZwzSw
6NK8FbDxuY4hCsVsiXp3hDaSGC7kLtLwcQ4SRRDHxTr2A11t4hxyKdLgpxmBLe7w
EOIzurZ3akB/Jmv+CWZVfJTk6tJIz5Ke8YAREGbeaC4xJixbQhN/999b1Z5ImdoW
5vDIakEMO/g/KGypDOIEwiDQliXT7w4YLpH3DrqfJwBJbennCTgrK2WlHw/c
-----END CERTIFICATE-----
