Certificate:
    Data:
        Version: 3 (0x2)
        Serial Number:
            81:25:56:54:fe:7b:c8:b3:19:da:e5:ce:b4:69:38:40
        Signature Algorithm: sha256WithRSAEncryption
        Issuer: CN=team47-net
        Validity
            Not Before: Apr 20 22:54:37 2023 GMT
            Not After : Apr  4 22:54:37 2026 GMT
        Subject: CN=team47-server
        Subject Public Key Info:
            Public Key Algorithm: rsaEncryption
                Public-Key: (2048 bit)
                Modulus:
                    00:bb:22:d9:f3:3a:f9:b3:ee:de:3c:8c:37:88:76:
                    a3:90:59:4f:e6:18:56:68:70:b1:b9:46:c2:5b:b8:
                    35:9d:6a:12:70:5a:6a:04:54:e5:c9:69:b8:df:31:
                    89:e4:c0:d8:59:60:ed:cd:e7:76:ad:6a:bb:32:29:
                    88:38:bf:d7:20:8c:0a:04:fc:a6:37:d2:3b:ae:98:
                    46:ee:86:b8:65:05:69:4b:6f:06:c4:c8:e2:8d:9a:
                    c6:6e:e9:a7:66:7a:03:72:47:db:60:c5:18:9d:20:
                    34:7e:26:4d:78:ca:29:f7:97:5a:f1:d1:7e:8f:91:
                    13:33:7d:83:19:ec:23:3f:89:27:15:55:eb:92:1a:
                    e0:14:f6:89:9c:25:33:1c:5b:ac:1c:a0:76:2c:0f:
                    d2:c3:f3:e4:1c:e0:ab:3e:c8:12:88:7d:f9:16:a9:
                    ad:87:aa:c2:28:85:39:11:00:29:71:8a:68:e4:48:
                    1d:89:3d:ef:18:97:7e:4e:89:48:20:12:f1:76:f4:
                    84:b9:a8:bb:e4:f0:cf:80:81:42:03:70:ed:ae:18:
                    f5:bf:84:6b:75:2e:ff:25:82:df:e7:db:bd:4d:70:
                    eb:1d:92:93:6d:49:93:8c:f9:46:69:0c:ba:97:47:
                    52:37:b6:a2:f1:8b:af:c4:87:1c:22:95:0b:78:a7:
                    24:d7
                Exponent: 65537 (0x10001)
        X509v3 extensions:
            X509v3 Basic Constraints: 
                CA:FALSE
            X509v3 Subject Key Identifier: 
                AB:F3:23:13:F6:87:E4:67:69:2D:D0:4D:F1:5F:F2:4A:60:AA:A1:21
            X509v3 Authority Key Identifier: 
                keyid:32:1F:D9:72:9A:5F:05:4E:ED:15:5B:0E:15:22:8A:64:F2:E8:98:47
                DirName:/CN=team47-net
                serial:71:EC:EF:18:A0:BF:EF:BE:C8:BC:0D:10:D5:D0:AD:EA:3E:D2:74:0A
            X509v3 Extended Key Usage: 
                TLS Web Server Authentication
            X509v3 Key Usage: 
                Digital Signature, Key Encipherment
            X509v3 Subject Alternative Name: 
                DNS:team47-server
    Signature Algorithm: sha256WithRSAEncryption
    Signature Value:
        4c:6e:a2:da:39:6e:c5:86:95:3d:3a:b4:14:e9:43:e1:e4:fe:
        9d:e6:4c:c3:13:f4:85:61:92:9e:d7:aa:27:74:4f:b3:46:75:
        40:76:8c:da:f5:10:5c:45:48:9e:e4:22:64:61:bf:36:28:a1:
        45:fe:fe:b8:97:c8:84:1d:3b:52:49:2b:55:69:07:c0:02:98:
        bd:79:f9:4f:13:f3:d4:7d:cb:17:b7:b1:5f:aa:f0:a3:6b:82:
        4a:e0:1c:7b:d5:eb:76:02:a4:2d:3f:87:3f:35:60:4b:b8:00:
        ea:b9:5c:0f:26:7d:39:ad:ff:b5:04:4b:0c:26:3d:43:a3:23:
        d4:b1:b6:69:41:6e:3e:68:a5:d4:db:55:17:f5:e2:f0:51:0e:
        41:0b:bb:76:a2:29:a6:1a:6b:0f:5b:cd:1b:83:63:e4:c1:3a:
        ed:8f:aa:ee:c0:43:99:82:b3:f6:6c:5d:86:1a:bd:f6:ab:90:
        85:c5:ef:cf:4b:0c:95:cf:92:a1:d2:25:9c:59:b5:34:48:50:
        0a:de:7e:e4:3b:07:35:08:01:01:5b:f0:8f:b3:1d:00:75:61:
        e4:20:d2:ae:d1:ed:bf:53:3a:18:a8:d8:a6:d3:43:35:22:65:
        9a:bd:14:55:53:de:f1:b9:7a:38:66:3a:08:4e:4f:d2:4a:01:
        f8:cd:9d:f0
-----BEGIN CERTIFICATE-----
MIIDdDCCAlygAwIBAgIRAIElVlT+e8izGdrlzrRpOEAwDQYJKoZIhvcNAQELBQAw
FTETMBEGA1UEAwwKdGVhbTQ3LW5ldDAeFw0yMzA0MjAyMjU0MzdaFw0yNjA0MDQy
MjU0MzdaMBgxFjAUBgNVBAMMDXRlYW00Ny1zZXJ2ZXIwggEiMA0GCSqGSIb3DQEB
AQUAA4IBDwAwggEKAoIBAQC7ItnzOvmz7t48jDeIdqOQWU/mGFZocLG5RsJbuDWd
ahJwWmoEVOXJabjfMYnkwNhZYO3N53atarsyKYg4v9cgjAoE/KY30juumEbuhrhl
BWlLbwbEyOKNmsZu6admegNyR9tgxRidIDR+Jk14yin3l1rx0X6PkRMzfYMZ7CM/
iScVVeuSGuAU9omcJTMcW6wcoHYsD9LD8+Qc4Ks+yBKIffkWqa2HqsIohTkRAClx
imjkSB2JPe8Yl35OiUggEvF29IS5qLvk8M+AgUIDcO2uGPW/hGt1Lv8lgt/n271N
cOsdkpNtSZOM+UZpDLqXR1I3tqLxi6/EhxwilQt4pyTXAgMBAAGjgbswgbgwCQYD
VR0TBAIwADAdBgNVHQ4EFgQUq/MjE/aH5GdpLdBN8V/ySmCqoSEwUAYDVR0jBEkw
R4AUMh/ZcppfBU7tFVsOFSKKZPLomEehGaQXMBUxEzARBgNVBAMMCnRlYW00Ny1u
ZXSCFHHs7xigv+++yLwNENXQreo+0nQKMBMGA1UdJQQMMAoGCCsGAQUFBwMBMAsG
A1UdDwQEAwIFoDAYBgNVHREEETAPgg10ZWFtNDctc2VydmVyMA0GCSqGSIb3DQEB
CwUAA4IBAQBMbqLaOW7FhpU9OrQU6UPh5P6d5kzDE/SFYZKe16ondE+zRnVAdoza
9RBcRUie5CJkYb82KKFF/v64l8iEHTtSSStVaQfAApi9eflPE/PUfcsXt7FfqvCj
a4JK4Bx71et2AqQtP4c/NWBLuADquVwPJn05rf+1BEsMJj1DoyPUsbZpQW4+aKXU
21UX9eLwUQ5BC7t2oimmGmsPW80bg2PkwTrtj6ruwEOZgrP2bF2GGr32q5CFxe/P
SwyVz5Kh0iWcWbU0SFAK3n7kOwc1CAEBW/CPsx0AdWHkINKu0e2/UzoYqNim00M1
ImWavRRVU97xuXo4ZjoITk/SSgH4zZ3w
-----END CERTIFICATE-----
