Certificate:
    Data:
        Version: 3 (0x2)
        Serial Number:
            41:2e:85:c7:ea:6b:3e:e4:7c:ee:e0:32:d3:80:56:11
        Signature Algorithm: sha256WithRSAEncryption
        Issuer: CN=team22-net
        Validity
            Not Before: Apr 20 00:10:27 2023 GMT
            Not After : Apr  4 00:10:27 2026 GMT
        Subject: CN=team22-client
        Subject Public Key Info:
            Public Key Algorithm: rsaEncryption
                Public-Key: (2048 bit)
                Modulus:
                    00:ba:10:04:ef:a7:c1:b5:06:ca:7d:16:6b:de:b9:
                    4d:54:65:16:1f:f2:af:e3:6d:00:b8:76:28:c7:36:
                    3e:af:dd:c3:4b:82:35:1a:b1:83:a3:64:42:b6:31:
                    0c:f4:7b:3e:85:3a:d2:83:d7:c3:60:04:cc:1f:0f:
                    05:60:dc:41:74:23:a9:19:7b:c9:e7:1a:82:ec:c5:
                    8e:66:ae:8f:15:45:4e:e9:16:bb:09:1a:39:96:16:
                    1c:52:87:9d:95:f1:8c:70:a8:6f:3b:c7:4a:01:78:
                    2b:73:e1:6d:64:2d:c4:e3:b6:33:32:6c:95:76:f8:
                    58:17:46:3f:e9:19:bf:16:e5:04:8c:4b:1a:1e:e7:
                    fa:6b:69:9c:87:14:35:f5:09:22:8c:d6:c2:a0:f7:
                    28:c5:94:c7:c8:1c:f5:cc:70:37:45:bb:11:f0:68:
                    ba:64:de:52:04:e9:5e:26:58:55:57:b5:98:11:12:
                    5f:88:0f:bc:20:d6:a2:63:6c:6c:a3:e7:e0:c9:e7:
                    e7:3d:f4:fe:6a:3e:27:92:a0:0e:ae:cb:6d:89:09:
                    75:87:0f:a4:ff:15:88:59:6f:8d:15:1d:2d:5a:ea:
                    78:f0:52:5c:67:4b:9a:c2:ea:b7:d6:08:2d:98:1d:
                    ec:bb:cf:63:8e:03:15:56:23:a3:c1:c8:84:bc:4d:
                    52:fd
                Exponent: 65537 (0x10001)
        X509v3 extensions:
            X509v3 Basic Constraints: 
                CA:FALSE
            X509v3 Subject Key Identifier: 
                3F:F8:19:DF:B2:17:E6:41:CE:8C:9B:00:A5:69:7B:A5:44:75:8B:14
            X509v3 Authority Key Identifier: 
                keyid:A7:12:F1:E5:7C:8C:81:35:9B:09:52:9E:97:FE:93:9A:E1:9B:24:2F
                DirName:/CN=team22-net
                serial:5F:7A:37:D7:6D:BD:76:33:6A:21:DE:92:F2:BD:96:D4:B4:5B:40:CC
            X509v3 Extended Key Usage: 
                TLS Web Client Authentication
            X509v3 Key Usage: 
                Digital Signature
    Signature Algorithm: sha256WithRSAEncryption
    Signature Value:
        3d:0b:c6:e5:90:6a:9e:f2:4a:56:35:0d:28:f3:86:a7:9f:00:
        42:3a:35:dd:47:6b:e9:50:b0:d4:02:40:3a:ab:c3:b6:46:12:
        ce:59:7e:b0:ec:1e:1b:2f:41:7c:f6:a2:ac:cd:76:c6:1c:5d:
        f2:0b:d6:2d:53:6a:35:8a:80:03:c1:1c:bc:f5:cf:3c:4c:35:
        56:a9:05:87:95:2a:45:0f:c3:ce:9c:71:6c:3d:d8:28:a1:3d:
        23:9d:7d:f1:23:53:4c:29:b7:6d:72:a2:7b:97:21:cd:28:fc:
        ce:e3:c2:8d:bc:32:a8:c1:85:d1:6e:06:0d:bc:a8:75:74:8d:
        ea:89:57:f7:57:3d:d0:21:d1:a9:70:8d:17:b5:0f:fc:5a:df:
        e4:20:d8:80:12:2f:5f:40:7a:d8:67:7a:ed:b7:db:35:eb:3b:
        07:5d:43:6a:54:11:75:c9:86:ea:b6:b8:3a:c1:c1:31:bc:d3:
        96:fb:c4:2f:57:82:97:c3:7c:55:bd:4e:4c:b0:c3:64:a9:27:
        f9:c5:ce:43:4e:fe:1b:08:78:9a:31:27:62:75:b1:95:84:1f:
        16:33:00:84:39:49:31:d9:31:6c:4b:64:08:81:79:3b:48:74:
        ae:2e:e6:d9:98:2c:e1:53:3d:c3:14:ea:ff:c7:07:87:1b:db:
        2c:06:bc:32
-----BEGIN CERTIFICATE-----
MIIDWTCCAkGgAwIBAgIQQS6Fx+prPuR87uAy04BWETANBgkqhkiG9w0BAQsFADAV
MRMwEQYDVQQDDAp0ZWFtMjItbmV0MB4XDTIzMDQyMDAwMTAyN1oXDTI2MDQwNDAw
MTAyN1owGDEWMBQGA1UEAwwNdGVhbTIyLWNsaWVudDCCASIwDQYJKoZIhvcNAQEB
BQADggEPADCCAQoCggEBALoQBO+nwbUGyn0Wa965TVRlFh/yr+NtALh2KMc2Pq/d
w0uCNRqxg6NkQrYxDPR7PoU60oPXw2AEzB8PBWDcQXQjqRl7yecaguzFjmaujxVF
TukWuwkaOZYWHFKHnZXxjHCobzvHSgF4K3PhbWQtxOO2MzJslXb4WBdGP+kZvxbl
BIxLGh7n+mtpnIcUNfUJIozWwqD3KMWUx8gc9cxwN0W7EfBoumTeUgTpXiZYVVe1
mBESX4gPvCDWomNsbKPn4Mnn5z30/mo+J5KgDq7LbYkJdYcPpP8ViFlvjRUdLVrq
ePBSXGdLmsLqt9YILZgd7LvPY44DFVYjo8HIhLxNUv0CAwEAAaOBoTCBnjAJBgNV
HRMEAjAAMB0GA1UdDgQWBBQ/+BnfshfmQc6MmwClaXulRHWLFDBQBgNVHSMESTBH
gBSnEvHlfIyBNZsJUp6X/pOa4ZskL6EZpBcwFTETMBEGA1UEAwwKdGVhbTIyLW5l
dIIUX3o31229djNqId6S8r2W1LRbQMwwEwYDVR0lBAwwCgYIKwYBBQUHAwIwCwYD
VR0PBAQDAgeAMA0GCSqGSIb3DQEBCwUAA4IBAQA9C8blkGqe8kpWNQ0o84annwBC
OjXdR2vpULDUAkA6q8O2RhLOWX6w7B4bL0F89qKszXbGHF3yC9YtU2o1ioADwRy8
9c88TDVWqQWHlSpFD8POnHFsPdgooT0jnX3xI1NMKbdtcqJ7lyHNKPzO48KNvDKo
wYXRbgYNvKh1dI3qiVf3Vz3QIdGpcI0XtQ/8Wt/kINiAEi9fQHrYZ3rtt9s16zsH
XUNqVBF1yYbqtrg6wcExvNOW+8QvV4KXw3xVvU5MsMNkqSf5xc5DTv4bCHiaMSdi
dbGVhB8WMwCEOUkx2TFsS2QIgXk7SHSuLubZmCzhUz3DFOr/xweHG9ssBrwy
-----END CERTIFICATE-----
