Certificate:
    Data:
        Version: 3 (0x2)
        Serial Number:
            77:a3:a7:17:38:33:30:b1:d6:79:ad:50:95:7c:93:4f
        Signature Algorithm: sha256WithRSAEncryption
        Issuer: CN=team22-net
        Validity
            Not Before: Apr 20 00:10:27 2023 GMT
            Not After : Apr  4 00:10:27 2026 GMT
        Subject: CN=team22-server
        Subject Public Key Info:
            Public Key Algorithm: rsaEncryption
                Public-Key: (2048 bit)
                Modulus:
                    00:ab:d0:86:9e:93:ca:ed:fd:b4:17:79:65:18:a9:
                    e7:ef:de:a4:c3:01:5e:f4:bd:5d:b8:9a:c4:7d:19:
                    a0:b4:65:9e:8c:54:6a:dd:60:ef:28:a6:07:9b:67:
                    c7:5e:c2:84:6a:96:36:11:a8:80:15:12:ca:d5:d8:
                    63:f1:09:30:8b:c9:94:92:90:71:bf:8d:9e:06:6d:
                    e0:99:23:46:f9:04:7c:18:2f:e7:1b:08:fa:3d:78:
                    13:56:bd:a6:f2:4f:b2:28:ad:b7:d1:94:26:c8:16:
                    0b:84:f5:a1:72:fa:e6:ba:a6:7a:72:27:2d:2a:27:
                    e6:90:58:06:06:46:44:72:00:6b:27:63:90:56:8b:
                    ef:bd:fe:59:ac:a6:5f:3e:3f:e5:2d:d6:59:a0:ec:
                    a8:75:29:65:74:36:66:24:04:09:78:03:e3:0d:e8:
                    24:80:78:e2:c5:6d:43:70:69:ab:4b:c2:4c:58:8a:
                    c7:a8:10:0b:0c:54:f8:36:e6:09:91:da:19:43:71:
                    54:7f:6d:e3:ce:3c:83:a8:ad:df:62:37:29:8d:3c:
                    6a:a5:14:a2:10:b2:a4:ef:fb:ac:d5:e9:9c:94:aa:
                    8c:87:5d:18:62:5c:f0:31:3e:5a:39:4e:db:44:ed:
                    fd:34:58:27:ef:34:42:4e:5e:49:90:8c:48:53:94:
                    66:45
                Exponent: 65537 (0x10001)
        X509v3 extensions:
            X509v3 Basic Constraints: 
                CA:FALSE
            X509v3 Subject Key Identifier: 
                BC:9F:EE:92:3A:9B:F2:03:67:65:9B:E7:D0:3B:7A:7A:8F:38:79:7D
            X509v3 Authority Key Identifier: 
                keyid:A7:12:F1:E5:7C:8C:81:35:9B:09:52:9E:97:FE:93:9A:E1:9B:24:2F
                DirName:/CN=team22-net
                serial:5F:7A:37:D7:6D:BD:76:33:6A:21:DE:92:F2:BD:96:D4:B4:5B:40:CC
            X509v3 Extended Key Usage: 
                TLS Web Server Authentication
            X509v3 Key Usage: 
                Digital Signature, Key Encipherment
            X509v3 Subject Alternative Name: 
                DNS:team22-server
    Signature Algorithm: sha256WithRSAEncryption
    Signature Value:
        67:c2:4d:21:a2:1f:33:cd:b8:df:e0:d3:d0:20:b3:84:a2:4c:
        fb:e8:0e:53:4d:c8:2f:1c:af:fe:fe:d7:6d:64:aa:94:9b:c2:
        f7:18:38:8c:2d:3e:22:20:ae:e6:3c:b5:43:4f:ca:5a:10:fb:
        dd:b4:0a:ae:93:9e:3f:63:72:b3:89:59:1d:2e:a5:79:50:7f:
        ae:83:8f:7b:20:20:f3:4f:8e:09:64:75:f1:7c:fc:3f:d5:cb:
        38:6b:21:02:f3:91:eb:b6:35:3e:21:67:a0:67:68:e8:6d:3e:
        19:29:dd:58:9e:55:05:2e:25:a3:83:f1:ba:f6:b4:b7:07:ef:
        5b:a8:7c:3a:75:ac:15:51:26:25:de:12:ac:ea:16:f6:ac:3b:
        02:90:58:cf:e6:32:e8:00:88:74:86:e3:aa:ca:78:a2:4b:64:
        9f:99:d3:39:09:8a:70:11:b1:59:dc:c1:e9:da:22:c9:5c:ee:
        c7:81:8f:8f:fc:05:81:34:78:58:1c:f1:de:4c:37:50:61:53:
        10:d3:72:5f:9c:d4:1d:5f:06:65:a9:14:13:f8:c4:76:1c:41:
        71:a4:d7:70:17:24:a5:e3:d4:b1:96:cc:9c:42:84:b3:83:4c:
        2a:4f:0c:dc:c9:75:4e:b1:03:8a:83:6c:ca:5d:7c:b3:9f:c1:
        76:3b:3a:44
-----BEGIN CERTIFICATE-----
MIIDczCCAlugAwIBAgIQd6OnFzgzMLHWea1QlXyTTzANBgkqhkiG9w0BAQsFADAV
MRMwEQYDVQQDDAp0ZWFtMjItbmV0MB4XDTIzMDQyMDAwMTAyN1oXDTI2MDQwNDAw
MTAyN1owGDEWMBQGA1UEAwwNdGVhbTIyLXNlcnZlcjCCASIwDQYJKoZIhvcNAQEB
BQADggEPADCCAQoCggEBAKvQhp6Tyu39tBd5ZRip5+/epMMBXvS9XbiaxH0ZoLRl
noxUat1g7yimB5tnx17ChGqWNhGogBUSytXYY/EJMIvJlJKQcb+NngZt4JkjRvkE
fBgv5xsI+j14E1a9pvJPsiitt9GUJsgWC4T1oXL65rqmenInLSon5pBYBgZGRHIA
aydjkFaL773+WaymXz4/5S3WWaDsqHUpZXQ2ZiQECXgD4w3oJIB44sVtQ3Bpq0vC
TFiKx6gQCwxU+DbmCZHaGUNxVH9t4848g6it32I3KY08aqUUohCypO/7rNXpnJSq
jIddGGJc8DE+WjlO20Tt/TRYJ+80Qk5eSZCMSFOUZkUCAwEAAaOBuzCBuDAJBgNV
HRMEAjAAMB0GA1UdDgQWBBS8n+6SOpvyA2dlm+fQO3p6jzh5fTBQBgNVHSMESTBH
gBSnEvHlfIyBNZsJUp6X/pOa4ZskL6EZpBcwFTETMBEGA1UEAwwKdGVhbTIyLW5l
dIIUX3o31229djNqId6S8r2W1LRbQMwwEwYDVR0lBAwwCgYIKwYBBQUHAwEwCwYD
VR0PBAQDAgWgMBgGA1UdEQQRMA+CDXRlYW0yMi1zZXJ2ZXIwDQYJKoZIhvcNAQEL
BQADggEBAGfCTSGiHzPNuN/g09Ags4SiTPvoDlNNyC8cr/7+121kqpSbwvcYOIwt
PiIgruY8tUNPyloQ+920Cq6Tnj9jcrOJWR0upXlQf66Dj3sgIPNPjglkdfF8/D/V
yzhrIQLzkeu2NT4hZ6BnaOhtPhkp3VieVQUuJaOD8br2tLcH71uofDp1rBVRJiXe
EqzqFvasOwKQWM/mMugAiHSG46rKeKJLZJ+Z0zkJinARsVncwenaIslc7seBj4/8
BYE0eFgc8d5MN1BhUxDTcl+c1B1fBmWpFBP4xHYcQXGk13AXJKXj1LGWzJxChLOD
TCpPDNzJdU6xA4qDbMpdfLOfwXY7OkQ=
-----END CERTIFICATE-----
