Certificate:
    Data:
        Version: 3 (0x2)
        Serial Number:
            0d:a1:b4:0e:ee:69:b9:db:8d:f1:56:db:c3:6b:29:c9
        Signature Algorithm: sha256WithRSAEncryption
        Issuer: CN=team26-net
        Validity
            Not Before: Apr 20 22:54:04 2023 GMT
            Not After : Apr  4 22:54:04 2026 GMT
        Subject: CN=team26-server
        Subject Public Key Info:
            Public Key Algorithm: rsaEncryption
                Public-Key: (2048 bit)
                Modulus:
                    00:de:fc:a0:ff:09:48:2b:69:6b:67:e4:7c:11:68:
                    8f:12:2c:f3:e3:40:ae:c7:7e:4a:69:97:3f:d3:53:
                    3e:0a:ff:0a:a5:99:62:5e:da:ca:d2:56:0e:2c:83:
                    8d:08:b2:24:26:aa:86:3d:95:99:db:b4:5c:4c:4e:
                    c1:88:e7:c7:e4:a1:70:19:6d:7f:11:5f:38:ab:a0:
                    01:0a:40:a4:c1:aa:cc:1b:8f:ee:e7:34:24:1d:f9:
                    73:37:7c:b0:df:55:29:c2:28:92:01:9d:28:55:5b:
                    d9:6d:08:b1:ac:f9:eb:92:82:7a:91:50:7d:86:b1:
                    da:30:e7:02:73:81:03:80:7b:39:02:90:53:c7:b3:
                    62:06:09:f3:35:0c:d4:75:55:9b:33:09:e4:27:87:
                    f6:f0:8d:dc:30:4a:64:03:d3:76:e1:9b:7d:3c:cf:
                    b1:3b:80:83:0d:e7:0b:97:64:93:b2:01:09:fd:c4:
                    c7:ab:0a:50:15:29:cd:15:7e:6e:74:ab:09:fa:dd:
                    f4:5f:1d:a3:58:36:93:64:4e:aa:77:10:f7:9a:04:
                    4a:62:ed:86:d5:2f:1d:4b:b0:c1:20:a5:3b:9d:ee:
                    75:3d:61:f7:c9:89:13:00:76:e7:88:cd:5b:83:a1:
                    9c:c4:83:57:05:d6:1f:89:b5:bb:71:85:4c:0a:b6:
                    29:fb
                Exponent: 65537 (0x10001)
        X509v3 extensions:
            X509v3 Basic Constraints: 
                CA:FALSE
            X509v3 Subject Key Identifier: 
                4D:79:1E:14:AC:41:7B:78:62:E9:2C:AD:B7:4D:DE:71:63:B2:1F:9D
            X509v3 Authority Key Identifier: 
                keyid:67:10:90:80:05:C7:96:0C:F6:79:49:06:3B:D2:98:80:77:EF:BB:4A
                DirName:/CN=team26-net
                serial:54:3C:93:34:11:9E:07:F0:F3:29:0E:F7:5E:03:A1:0F:08:05:67:7F
            X509v3 Extended Key Usage: 
                TLS Web Server Authentication
            X509v3 Key Usage: 
                Digital Signature, Key Encipherment
            X509v3 Subject Alternative Name: 
                DNS:team26-server
    Signature Algorithm: sha256WithRSAEncryption
    Signature Value:
        23:70:ad:65:62:b2:68:72:86:7d:ed:f6:ca:1c:9d:5e:d0:4d:
        d2:8a:c8:c8:66:2a:1f:bb:e0:46:43:a8:a0:3b:b9:1e:5f:eb:
        e4:81:14:b3:ff:97:ca:90:f9:aa:22:0b:da:69:0a:b4:5d:d5:
        66:71:d2:32:57:5c:c1:85:70:2a:38:fd:9f:41:31:38:f3:51:
        a3:45:7b:78:2c:2b:24:42:0d:6b:5f:6a:88:19:5d:0d:06:63:
        c8:e2:cd:e5:9d:ad:25:ac:30:76:cb:06:bd:83:0c:72:54:ee:
        21:de:8a:b7:1d:05:79:71:94:7d:5b:16:85:aa:70:1d:25:1e:
        c6:2e:94:5b:59:f0:18:47:5d:e3:6c:5d:d3:b5:f0:9e:c6:5d:
        14:ec:c7:ad:4f:ff:f7:d9:3a:ba:99:2f:c0:ca:a1:7e:57:ca:
        6f:04:f0:05:5b:f2:e7:18:64:93:20:68:2e:c7:fc:33:72:28:
        e6:74:ae:c4:3a:5d:10:5f:8d:8f:ab:14:93:ae:eb:2c:5f:d0:
        f5:d2:fe:03:12:27:ca:c9:98:4f:2c:c8:ad:17:ee:d5:6f:3b:
        13:64:0e:97:9d:25:e4:d0:e9:00:d6:ee:01:d8:7a:71:63:92:
        4a:29:86:d7:6c:03:fa:dd:ca:05:3b:56:68:4b:a8:af:df:2a:
        d8:b9:04:33
-----BEGIN CERTIFICATE-----
MIIDczCCAlugAwIBAgIQDaG0Du5puduN8Vbbw2spyTANBgkqhkiG9w0BAQsFADAV
MRMwEQYDVQQDDAp0ZWFtMjYtbmV0MB4XDTIzMDQyMDIyNTQwNFoXDTI2MDQwNDIy
NTQwNFowGDEWMBQGA1UEAwwNdGVhbTI2LXNlcnZlcjCCASIwDQYJKoZIhvcNAQEB
BQADggEPADCCAQoCggEBAN78oP8JSCtpa2fkfBFojxIs8+NArsd+SmmXP9NTPgr/
CqWZYl7aytJWDiyDjQiyJCaqhj2Vmdu0XExOwYjnx+ShcBltfxFfOKugAQpApMGq
zBuP7uc0JB35czd8sN9VKcIokgGdKFVb2W0Isaz565KCepFQfYax2jDnAnOBA4B7
OQKQU8ezYgYJ8zUM1HVVmzMJ5CeH9vCN3DBKZAPTduGbfTzPsTuAgw3nC5dkk7IB
Cf3Ex6sKUBUpzRV+bnSrCfrd9F8do1g2k2ROqncQ95oESmLthtUvHUuwwSClO53u
dT1h98mJEwB254jNW4OhnMSDVwXWH4m1u3GFTAq2KfsCAwEAAaOBuzCBuDAJBgNV
HRMEAjAAMB0GA1UdDgQWBBRNeR4UrEF7eGLpLK23Td5xY7IfnTBQBgNVHSMESTBH
gBRnEJCABceWDPZ5SQY70piAd++7SqEZpBcwFTETMBEGA1UEAwwKdGVhbTI2LW5l
dIIUVDyTNBGeB/DzKQ73XgOhDwgFZ38wEwYDVR0lBAwwCgYIKwYBBQUHAwEwCwYD
VR0PBAQDAgWgMBgGA1UdEQQRMA+CDXRlYW0yNi1zZXJ2ZXIwDQYJKoZIhvcNAQEL
BQADggEBACNwrWVismhyhn3t9socnV7QTdKKyMhmKh+74EZDqKA7uR5f6+SBFLP/
l8qQ+aoiC9ppCrRd1WZx0jJXXMGFcCo4/Z9BMTjzUaNFe3gsKyRCDWtfaogZXQ0G
Y8jizeWdrSWsMHbLBr2DDHJU7iHeircdBXlxlH1bFoWqcB0lHsYulFtZ8BhHXeNs
XdO18J7GXRTsx61P//fZOrqZL8DKoX5Xym8E8AVb8ucYZJMgaC7H/DNyKOZ0rsQ6
XRBfjY+rFJOu6yxf0PXS/gMSJ8rJmE8syK0X7tVvOxNkDpedJeTQ6QDW7gHYenFj
kkophtdsA/rdygU7VmhLqK/fKti5BDM=
-----END CERTIFICATE-----
