Certificate:
    Data:
        Version: 3 (0x2)
        Serial Number:
            fa:0c:e1:8a:a2:f0:f8:fa:e4:ce:a9:7c:c9:1a:a3:64
        Signature Algorithm: sha256WithRSAEncryption
        Issuer: CN=team26-net
        Validity
            Not Before: Apr 20 00:10:33 2023 GMT
            Not After : Apr  4 00:10:33 2026 GMT
        Subject: CN=team26-client
        Subject Public Key Info:
            Public Key Algorithm: rsaEncryption
                Public-Key: (2048 bit)
                Modulus:
                    00:a9:46:26:35:b5:66:b5:22:fa:d8:49:ef:bf:8c:
                    64:69:e8:df:05:8a:0b:ee:0d:67:0e:19:3f:9b:29:
                    ee:7a:5f:26:a2:03:57:ea:71:b5:82:d5:4f:4f:91:
                    f2:e1:41:d3:a0:fa:a4:e4:d8:a1:0e:29:64:ad:ae:
                    68:d9:d2:38:f3:81:37:02:88:b9:40:35:72:eb:6f:
                    36:cc:b9:af:95:82:32:44:8b:3e:7e:a9:86:bd:01:
                    08:61:bd:9a:df:15:bc:42:b5:04:58:63:f9:ac:f4:
                    d4:d4:fc:ef:f5:3e:b0:f8:2d:ba:9a:66:7f:4e:8b:
                    98:83:89:58:f5:f2:2a:bc:59:87:5c:f8:c1:60:51:
                    62:df:2b:27:d5:a6:01:35:d2:9a:b3:b7:5b:37:f7:
                    c1:0b:e5:76:c2:8a:c8:7a:cb:85:5f:3c:1a:6c:70:
                    02:0f:c5:22:6c:96:6c:22:29:7e:31:58:06:6d:f7:
                    ae:e4:56:73:de:e3:a3:2d:e9:dc:c2:85:4d:fc:40:
                    bf:e4:90:00:51:09:d9:a0:39:ab:b1:34:06:97:16:
                    4a:a9:bd:19:33:9d:8c:41:2d:59:08:32:be:22:c9:
                    7b:b9:ae:95:c1:00:f3:c5:54:66:e0:3e:98:27:c3:
                    37:ff:00:72:bf:8d:0a:98:c5:d6:73:e4:b3:69:48:
                    d7:1f
                Exponent: 65537 (0x10001)
        X509v3 extensions:
            X509v3 Basic Constraints: 
                CA:FALSE
            X509v3 Subject Key Identifier: 
                67:A2:E9:F1:0E:53:7E:64:4F:7A:A8:88:31:51:B7:0B:C7:D2:06:2C
            X509v3 Authority Key Identifier: 
                keyid:25:FE:CF:F6:6A:04:6C:66:62:B2:C2:1F:24:9B:DD:25:40:52:1D:93
                DirName:/CN=team26-net
                serial:36:99:AA:77:A0:6C:96:60:3A:6A:F5:85:6D:09:73:F8:81:E6:9A:0A
            X509v3 Extended Key Usage: 
                TLS Web Client Authentication
            X509v3 Key Usage: 
                Digital Signature
    Signature Algorithm: sha256WithRSAEncryption
    Signature Value:
        87:10:cf:5c:8d:74:a4:c6:74:dd:12:99:29:d0:66:f0:43:2d:
        09:98:2c:ab:4f:06:56:63:c9:db:f3:ae:4f:d4:66:8e:a0:9e:
        22:46:91:38:c4:33:87:38:8d:ee:9a:99:bf:2a:d4:46:97:e1:
        e0:f1:e7:72:e6:cd:a4:30:6e:2b:e2:b0:d6:65:00:0b:f6:00:
        7a:49:05:ff:f3:b5:da:d8:21:50:cd:cd:1f:79:a6:bf:66:8a:
        17:85:99:ff:ab:4e:75:79:14:a9:1a:b3:b1:b2:86:20:12:c3:
        52:eb:f9:08:7a:1f:b9:8a:7e:2c:b2:c0:8b:8a:a9:35:c3:c1:
        bb:0d:aa:3c:84:02:a4:fb:d5:33:eb:46:e5:f5:cc:89:cd:15:
        0c:14:10:db:02:57:76:2d:8c:46:bc:7a:6e:00:80:71:51:0b:
        01:ee:8c:98:29:d4:a8:8a:82:6b:af:d6:bd:68:4f:95:36:b7:
        0c:ca:c6:01:09:df:02:95:cb:ee:6d:b5:c3:fc:58:be:0e:84:
        d7:5b:a9:d9:4e:a8:83:f2:b7:08:f4:fb:3e:1c:09:dc:d9:85:
        75:c6:37:c7:e5:15:1b:8d:4a:0a:30:d1:d8:50:d4:6b:08:43:
        b1:bf:01:58:4e:5c:e8:6d:7a:51:e5:ba:8c:d9:98:81:52:99:
        c8:a1:d8:b6
-----BEGIN CERTIFICATE-----
MIIDWjCCAkKgAwIBAgIRAPoM4Yqi8Pj65M6pfMkao2QwDQYJKoZIhvcNAQELBQAw
FTETMBEGA1UEAwwKdGVhbTI2LW5ldDAeFw0yMzA0MjAwMDEwMzNaFw0yNjA0MDQw
MDEwMzNaMBgxFjAUBgNVBAMMDXRlYW0yNi1jbGllbnQwggEiMA0GCSqGSIb3DQEB
AQUAA4IBDwAwggEKAoIBAQCpRiY1tWa1IvrYSe+/jGRp6N8FigvuDWcOGT+bKe56
XyaiA1fqcbWC1U9PkfLhQdOg+qTk2KEOKWStrmjZ0jjzgTcCiLlANXLrbzbMua+V
gjJEiz5+qYa9AQhhvZrfFbxCtQRYY/ms9NTU/O/1PrD4LbqaZn9Oi5iDiVj18iq8
WYdc+MFgUWLfKyfVpgE10pqzt1s398EL5XbCish6y4VfPBpscAIPxSJslmwiKX4x
WAZt967kVnPe46Mt6dzChU38QL/kkABRCdmgOauxNAaXFkqpvRkznYxBLVkIMr4i
yXu5rpXBAPPFVGbgPpgnwzf/AHK/jQqYxdZz5LNpSNcfAgMBAAGjgaEwgZ4wCQYD
VR0TBAIwADAdBgNVHQ4EFgQUZ6Lp8Q5TfmRPeqiIMVG3C8fSBiwwUAYDVR0jBEkw
R4AUJf7P9moEbGZissIfJJvdJUBSHZOhGaQXMBUxEzARBgNVBAMMCnRlYW0yNi1u
ZXSCFDaZqnegbJZgOmr1hW0Jc/iB5poKMBMGA1UdJQQMMAoGCCsGAQUFBwMCMAsG
A1UdDwQEAwIHgDANBgkqhkiG9w0BAQsFAAOCAQEAhxDPXI10pMZ03RKZKdBm8EMt
CZgsq08GVmPJ2/OuT9RmjqCeIkaROMQzhziN7pqZvyrURpfh4PHncubNpDBuK+Kw
1mUAC/YAekkF//O12tghUM3NH3mmv2aKF4WZ/6tOdXkUqRqzsbKGIBLDUuv5CHof
uYp+LLLAi4qpNcPBuw2qPIQCpPvVM+tG5fXMic0VDBQQ2wJXdi2MRrx6bgCAcVEL
Ae6MmCnUqIqCa6/WvWhPlTa3DMrGAQnfApXL7m21w/xYvg6E11up2U6og/K3CPT7
PhwJ3NmFdcY3x+UVG41KCjDR2FDUawhDsb8BWE5c6G16UeW6jNmYgVKZyKHYtg==
-----END CERTIFICATE-----
