Certificate:
    Data:
        Version: 3 (0x2)
        Serial Number:
            bf:0e:24:f4:2f:b2:b2:d5:96:63:58:be:f6:39:23:aa
        Signature Algorithm: sha256WithRSAEncryption
        Issuer: CN=team9-net
        Validity
            Not Before: Apr 20 00:10:05 2023 GMT
            Not After : Apr  4 00:10:05 2026 GMT
        Subject: CN=team9-server
        Subject Public Key Info:
            Public Key Algorithm: rsaEncryption
                Public-Key: (2048 bit)
                Modulus:
                    00:9c:2c:ce:95:41:dc:d3:04:d6:25:2d:e2:db:d3:
                    a2:1d:8b:b8:fc:e4:b5:62:3b:71:52:61:b6:e1:17:
                    c9:55:fb:8f:ac:2d:f6:b8:f7:db:f9:e3:30:eb:19:
                    7d:7d:a4:e5:2c:bc:d1:a1:ab:39:38:b6:c0:be:d1:
                    59:73:04:4b:68:1b:0e:6b:da:69:a8:78:d3:1d:85:
                    26:92:40:c9:52:42:bd:13:99:54:05:7a:10:89:36:
                    ef:27:3e:a9:49:1f:0e:6a:b2:bc:d0:de:de:e1:71:
                    96:77:3d:18:69:52:a9:e2:6f:be:b4:f4:f1:bf:73:
                    76:3e:41:13:50:e4:e8:93:c5:36:29:b4:e7:4c:b0:
                    7f:45:88:8a:de:78:17:35:a8:63:05:4a:8e:6d:35:
                    70:f5:08:c3:ab:90:3b:bc:ab:eb:30:18:67:33:07:
                    ae:bf:89:bd:db:14:28:89:b2:c6:6b:d6:5b:e3:5d:
                    1d:a9:92:b1:c1:d2:9c:fe:52:97:4c:59:f6:0d:04:
                    31:65:09:30:04:12:27:65:f7:33:b4:cb:80:a8:ec:
                    74:24:78:2b:23:af:7f:8b:25:58:8b:95:2c:40:43:
                    6f:09:0c:30:01:00:2c:c5:d9:7f:9c:31:72:2e:b6:
                    f8:4d:87:b3:91:f0:a3:8e:c1:e2:12:e7:9b:1d:da:
                    a3:85
                Exponent: 65537 (0x10001)
        X509v3 extensions:
            X509v3 Basic Constraints: 
                CA:FALSE
            X509v3 Subject Key Identifier: 
                F0:3F:D2:4E:2C:4D:2A:C9:0D:51:B9:AB:07:5F:86:92:70:0D:BD:A9
            X509v3 Authority Key Identifier: 
                keyid:82:7D:AE:29:5A:FF:AD:33:24:2B:33:23:D8:39:C0:07:D7:D2:44:F3
                DirName:/CN=team9-net
                serial:46:92:C8:59:E9:F7:D5:F1:73:96:F2:67:EC:11:17:AD:DE:A9:4B:2E
            X509v3 Extended Key Usage: 
                TLS Web Server Authentication
            X509v3 Key Usage: 
                Digital Signature, Key Encipherment
            X509v3 Subject Alternative Name: 
                DNS:team9-server
    Signature Algorithm: sha256WithRSAEncryption
    Signature Value:
        07:f8:74:67:29:4d:f6:d5:5d:85:48:d9:85:b0:6b:78:23:c7:
        04:4c:9f:57:18:4b:35:2c:dd:36:01:3a:79:ad:db:93:9c:ff:
        91:2c:ac:3f:69:fd:6e:fa:5e:51:d5:d1:db:5c:9c:29:f9:29:
        1b:ff:d6:1a:42:04:ee:1a:b3:b7:46:7b:96:c3:00:ac:9c:1a:
        c6:34:c4:65:ec:9c:ff:eb:b6:2f:d6:9b:60:36:e1:b4:de:31:
        9e:1c:a1:e1:7b:e9:6c:db:0c:c3:4a:5a:c6:6f:47:cf:e1:77:
        f7:ea:af:6a:3e:7f:bf:fb:a9:d0:d6:08:3a:ba:39:58:61:f4:
        d3:d6:1d:30:11:18:d3:66:b6:07:8f:3a:63:54:ee:19:20:60:
        67:d0:6e:bb:12:56:d8:06:3d:27:72:0c:29:9d:c4:35:28:75:
        42:40:77:09:fe:c3:b6:6c:40:a0:d7:d0:4d:7b:fc:50:49:9d:
        9a:79:20:ab:2d:ad:21:29:41:d8:66:26:4b:91:8c:79:25:e7:
        5f:78:38:a9:1c:27:b5:07:f7:2a:68:9d:34:e6:06:81:5c:e8:
        b0:25:52:6c:70:0d:f0:66:30:8f:d4:52:e0:56:c6:08:44:58:
        14:ac:ea:6f:04:3d:45:99:52:80:c2:d5:88:29:5e:c1:1f:9c:
        60:e8:30:ac
-----BEGIN CERTIFICATE-----
MIIDcDCCAligAwIBAgIRAL8OJPQvsrLVlmNYvvY5I6owDQYJKoZIhvcNAQELBQAw
FDESMBAGA1UEAwwJdGVhbTktbmV0MB4XDTIzMDQyMDAwMTAwNVoXDTI2MDQwNDAw
MTAwNVowFzEVMBMGA1UEAwwMdGVhbTktc2VydmVyMIIBIjANBgkqhkiG9w0BAQEF
AAOCAQ8AMIIBCgKCAQEAnCzOlUHc0wTWJS3i29OiHYu4/OS1YjtxUmG24RfJVfuP
rC32uPfb+eMw6xl9faTlLLzRoas5OLbAvtFZcwRLaBsOa9ppqHjTHYUmkkDJUkK9
E5lUBXoQiTbvJz6pSR8OarK80N7e4XGWdz0YaVKp4m++tPTxv3N2PkETUOTok8U2
KbTnTLB/RYiK3ngXNahjBUqObTVw9QjDq5A7vKvrMBhnMweuv4m92xQoibLGa9Zb
410dqZKxwdKc/lKXTFn2DQQxZQkwBBInZfcztMuAqOx0JHgrI69/iyVYi5UsQENv
CQwwAQAsxdl/nDFyLrb4TYezkfCjjsHiEuebHdqjhQIDAQABo4G5MIG2MAkGA1Ud
EwQCMAAwHQYDVR0OBBYEFPA/0k4sTSrJDVG5qwdfhpJwDb2pME8GA1UdIwRIMEaA
FIJ9rila/60zJCszI9g5wAfX0kTzoRikFjAUMRIwEAYDVQQDDAl0ZWFtOS1uZXSC
FEaSyFnp99Xxc5byZ+wRF63eqUsuMBMGA1UdJQQMMAoGCCsGAQUFBwMBMAsGA1Ud
DwQEAwIFoDAXBgNVHREEEDAOggx0ZWFtOS1zZXJ2ZXIwDQYJKoZIhvcNAQELBQAD
ggEBAAf4dGcpTfbVXYVI2YWwa3gjxwRMn1cYSzUs3TYBOnmt25Oc/5EsrD9p/W76
XlHV0dtcnCn5KRv/1hpCBO4as7dGe5bDAKycGsY0xGXsnP/rti/Wm2A24bTeMZ4c
oeF76WzbDMNKWsZvR8/hd/fqr2o+f7/7qdDWCDq6OVhh9NPWHTARGNNmtgePOmNU
7hkgYGfQbrsSVtgGPSdyDCmdxDUodUJAdwn+w7ZsQKDX0E17/FBJnZp5IKstrSEp
QdhmJkuRjHkl5194OKkcJ7UH9yponTTmBoFc6LAlUmxwDfBmMI/UUuBWxghEWBSs
6m8EPUWZUoDC1YgpXsEfnGDoMKw=
-----END CERTIFICATE-----
