Certificate:
    Data:
        Version: 3 (0x2)
        Serial Number:
            06:11:db:eb:99:99:8e:9f:0a:44:00:e3:b7:b6:8b:93
        Signature Algorithm: sha256WithRSAEncryption
        Issuer: CN=team59-net
        Validity
            Not Before: Apr 20 00:11:19 2023 GMT
            Not After : Apr  4 00:11:19 2026 GMT
        Subject: CN=team59-client
        Subject Public Key Info:
            Public Key Algorithm: rsaEncryption
                Public-Key: (2048 bit)
                Modulus:
                    00:d9:96:cf:73:2b:9a:a3:89:5d:30:dd:e2:54:62:
                    05:2c:89:bc:1d:6b:d3:27:55:23:c5:75:dd:5b:df:
                    5a:6a:02:fa:0d:36:ce:5f:c3:9c:f4:99:4f:9f:59:
                    be:cb:45:3b:7c:79:df:0b:56:28:18:e4:05:c9:2e:
                    7f:a1:6a:34:3f:89:fd:55:98:07:6d:48:7e:f3:27:
                    02:ff:44:a7:ae:ce:fe:8d:ef:50:42:51:3a:dc:4b:
                    0c:36:81:32:71:83:c9:62:06:d3:4f:c7:36:68:18:
                    8c:a0:44:4f:d2:20:77:c9:c7:14:f5:be:08:1f:62:
                    b9:50:f8:7e:3e:c1:a7:4e:58:59:e6:75:ea:4d:56:
                    40:8b:52:a7:dd:df:e8:ff:9d:eb:45:05:a4:03:79:
                    f7:ae:8f:25:4c:d2:e2:ec:ff:b2:bd:b9:b9:b6:23:
                    4d:8b:d0:73:1f:1f:f1:38:f9:c2:48:fe:48:3b:e2:
                    3a:36:2b:b4:43:84:58:12:4c:c3:dc:03:b3:47:56:
                    5a:50:3e:cb:cf:51:ae:84:3a:97:92:05:57:a3:ba:
                    ad:2f:de:d2:63:99:a8:b7:20:a8:76:d6:b1:93:bc:
                    4f:6e:17:af:b5:ff:75:13:8a:f7:83:60:1f:a9:9e:
                    4e:6b:59:97:f8:9b:28:a1:26:9e:c2:07:90:ad:87:
                    66:29
                Exponent: 65537 (0x10001)
        X509v3 extensions:
            X509v3 Basic Constraints: 
                CA:FALSE
            X509v3 Subject Key Identifier: 
                8A:B5:B4:38:52:E4:CF:6C:95:2A:1E:25:E7:DE:73:0D:3F:D7:98:A7
            X509v3 Authority Key Identifier: 
                keyid:79:DC:9E:2D:20:17:BC:B1:3C:C7:10:E8:38:F3:65:6C:03:37:C8:47
                DirName:/CN=team59-net
                serial:7D:7A:38:52:6E:C2:95:F4:19:65:E2:21:32:A5:55:6A:06:1A:4C:33
            X509v3 Extended Key Usage: 
                TLS Web Client Authentication
            X509v3 Key Usage: 
                Digital Signature
    Signature Algorithm: sha256WithRSAEncryption
    Signature Value:
        68:d3:00:a3:7d:43:ad:8c:83:02:6b:3c:f1:92:07:9c:fe:a3:
        02:40:1a:94:de:53:12:8b:29:42:0f:c2:db:1a:80:0a:bc:ce:
        c2:95:cd:34:61:f7:df:d2:ea:0c:c1:ed:3c:e5:42:34:7f:c5:
        80:18:30:bb:e1:f6:7f:99:16:6b:8e:cc:18:59:b2:45:da:2a:
        5f:d4:ed:47:bd:7e:95:95:1b:11:fb:11:fe:a8:e0:3b:fe:81:
        0f:f7:7a:4e:de:eb:34:26:49:bb:a8:44:08:e0:f1:dd:b0:80:
        e4:b2:fe:cf:ea:dd:64:ad:b1:f5:75:8e:5a:c9:87:7f:6c:8e:
        ca:7c:d5:06:da:4a:24:93:4b:eb:1e:75:cc:15:8e:36:5e:ec:
        91:dc:0a:bf:81:f6:f7:c2:ed:5b:dd:06:17:ba:1f:5b:e0:8e:
        2a:5e:49:d7:91:b4:ca:bf:de:62:f0:b6:6f:ff:3a:1c:5e:aa:
        62:5f:13:0d:ed:36:4a:34:b7:25:a5:66:7f:d0:40:7e:27:44:
        b3:7f:58:9e:53:c1:74:f2:b4:5e:fd:3a:fe:92:e3:e3:2e:b6:
        57:dd:c6:1a:50:80:ff:dc:c5:f6:21:7b:0d:d1:b4:6e:e2:6f:
        14:57:59:73:e2:d9:ad:46:92:33:84:d0:28:5a:06:7b:61:ca:
        97:a5:8f:4c
-----BEGIN CERTIFICATE-----
MIIDWTCCAkGgAwIBAgIQBhHb65mZjp8KRADjt7aLkzANBgkqhkiG9w0BAQsFADAV
MRMwEQYDVQQDDAp0ZWFtNTktbmV0MB4XDTIzMDQyMDAwMTExOVoXDTI2MDQwNDAw
MTExOVowGDEWMBQGA1UEAwwNdGVhbTU5LWNsaWVudDCCASIwDQYJKoZIhvcNAQEB
BQADggEPADCCAQoCggEBANmWz3MrmqOJXTDd4lRiBSyJvB1r0ydVI8V13VvfWmoC
+g02zl/DnPSZT59ZvstFO3x53wtWKBjkBckuf6FqND+J/VWYB21IfvMnAv9Ep67O
/o3vUEJROtxLDDaBMnGDyWIG00/HNmgYjKBET9Igd8nHFPW+CB9iuVD4fj7Bp05Y
WeZ16k1WQItSp93f6P+d60UFpAN5966PJUzS4uz/sr25ubYjTYvQcx8f8Tj5wkj+
SDviOjYrtEOEWBJMw9wDs0dWWlA+y89RroQ6l5IFV6O6rS/e0mOZqLcgqHbWsZO8
T24Xr7X/dROK94NgH6meTmtZl/ibKKEmnsIHkK2HZikCAwEAAaOBoTCBnjAJBgNV
HRMEAjAAMB0GA1UdDgQWBBSKtbQ4UuTPbJUqHiXn3nMNP9eYpzBQBgNVHSMESTBH
gBR53J4tIBe8sTzHEOg482VsAzfIR6EZpBcwFTETMBEGA1UEAwwKdGVhbTU5LW5l
dIIUfXo4Um7ClfQZZeIhMqVVagYaTDMwEwYDVR0lBAwwCgYIKwYBBQUHAwIwCwYD
VR0PBAQDAgeAMA0GCSqGSIb3DQEBCwUAA4IBAQBo0wCjfUOtjIMCazzxkgec/qMC
QBqU3lMSiylCD8LbGoAKvM7Clc00Yfff0uoMwe085UI0f8WAGDC74fZ/mRZrjswY
WbJF2ipf1O1HvX6VlRsR+xH+qOA7/oEP93pO3us0Jkm7qEQI4PHdsIDksv7P6t1k
rbH1dY5ayYd/bI7KfNUG2kokk0vrHnXMFY42XuyR3Aq/gfb3wu1b3QYXuh9b4I4q
XknXkbTKv95i8LZv/zocXqpiXxMN7TZKNLclpWZ/0EB+J0Szf1ieU8F08rRe/Tr+
kuPjLrZX3cYaUID/3MX2IXsN0bRu4m8UV1lz4tmtRpIzhNAoWgZ7YcqXpY9M
-----END CERTIFICATE-----
