Certificate:
    Data:
        Version: 3 (0x2)
        Serial Number:
            16:60:72:f7:09:4c:cc:c0:e1:83:ab:d4:85:18:90:a6
        Signature Algorithm: sha256WithRSAEncryption
        Issuer: CN=team37-net
        Validity
            Not Before: Apr 20 22:54:22 2023 GMT
            Not After : Apr  4 22:54:22 2026 GMT
        Subject: CN=team37-client
        Subject Public Key Info:
            Public Key Algorithm: rsaEncryption
                Public-Key: (2048 bit)
                Modulus:
                    00:c3:83:00:22:f4:a1:aa:9c:32:82:79:ca:83:8d:
                    e4:0d:f2:55:2f:57:73:84:fa:72:16:6e:00:d5:e0:
                    9f:4f:d1:7f:4d:93:70:cb:4e:e5:4a:8f:20:8c:73:
                    08:42:1a:03:af:74:f8:91:72:01:eb:63:41:a4:6d:
                    f2:2e:cf:50:c2:d4:38:64:8e:2c:f6:55:b4:d9:8d:
                    78:c6:97:21:85:77:dd:c8:41:10:bd:32:fe:09:73:
                    43:c8:11:4f:00:16:5c:89:28:5d:1e:81:35:87:89:
                    d5:a9:01:38:8c:1a:1a:d4:d8:2b:c4:f0:54:97:86:
                    b7:6d:87:56:b7:17:d8:4f:2a:dd:53:27:28:15:99:
                    a9:d9:83:d5:5d:bf:80:59:1c:e5:97:b2:b1:78:61:
                    e9:51:96:ea:1f:83:b0:41:84:35:f7:1e:cb:38:65:
                    c6:7f:a7:89:65:39:79:38:99:b9:49:b3:21:5b:89:
                    48:f1:5d:e7:a3:b0:d0:f5:9d:3a:2c:2e:7f:25:86:
                    dd:3e:59:a0:b2:b1:3d:77:61:8e:fd:61:fc:b2:77:
                    a1:2f:9a:dd:0b:2f:cb:b8:eb:c9:05:51:6d:08:8a:
                    39:3b:e4:62:7b:56:e2:d9:9f:20:f1:60:5b:d8:d9:
                    fa:61:97:ba:6c:5c:3f:26:69:3f:d9:35:1c:7b:2b:
                    01:15
                Exponent: 65537 (0x10001)
        X509v3 extensions:
            X509v3 Basic Constraints: 
                CA:FALSE
            X509v3 Subject Key Identifier: 
                7E:75:41:D7:35:7A:A2:64:5B:21:6F:04:D2:D8:58:20:B6:7D:9C:FB
            X509v3 Authority Key Identifier: 
                keyid:60:FD:40:60:FE:B8:6F:5F:15:71:35:1A:F2:26:0B:70:A6:00:F1:72
                DirName:/CN=team37-net
                serial:08:27:33:FC:8B:C6:87:A1:F8:CA:E2:49:64:39:6D:5F:D9:84:CC:84
            X509v3 Extended Key Usage: 
                TLS Web Client Authentication
            X509v3 Key Usage: 
                Digital Signature
    Signature Algorithm: sha256WithRSAEncryption
    Signature Value:
        14:91:96:63:f3:c3:18:08:ec:cd:f7:a2:51:d0:84:80:7f:e9:
        fe:66:8a:c4:10:e2:79:21:60:1f:5c:13:f3:50:2f:87:80:8a:
        23:57:d8:8d:b4:65:b2:0d:a6:92:82:0e:ba:cf:25:22:17:6c:
        38:60:36:06:04:91:55:04:a2:62:bf:89:58:2c:c7:22:1c:34:
        57:53:dc:0c:e6:f7:ec:ea:ff:18:1c:e2:4b:8e:c3:88:0a:84:
        9b:30:57:5b:93:90:7b:4f:79:04:14:7a:03:aa:03:4c:7c:eb:
        ae:7e:d2:26:f9:13:46:eb:59:26:97:ab:21:60:f7:e0:85:fb:
        4b:88:f5:4b:f7:95:d7:f7:d2:73:dd:cd:dc:20:e7:1c:d9:f8:
        d2:fe:da:ba:64:4b:e0:e1:77:3e:08:19:5e:d3:cb:df:39:7b:
        c1:c2:ac:98:47:6c:e2:0b:20:ae:b7:01:db:59:f4:77:ad:76:
        4c:ef:48:bd:63:7d:22:33:30:ec:56:02:e0:74:b2:3d:9b:ee:
        0c:54:27:60:48:b1:a0:3f:e2:92:d7:b2:61:d0:56:03:29:db:
        34:33:63:28:96:50:59:8d:6c:2f:76:12:bc:f9:b1:7f:d0:49:
        da:27:06:98:8c:52:c9:9d:41:70:73:69:ec:71:85:8d:6c:b8:
        88:fc:a4:0c
-----BEGIN CERTIFICATE-----
MIIDWTCCAkGgAwIBAgIQFmBy9wlMzMDhg6vUhRiQpjANBgkqhkiG9w0BAQsFADAV
MRMwEQYDVQQDDAp0ZWFtMzctbmV0MB4XDTIzMDQyMDIyNTQyMloXDTI2MDQwNDIy
NTQyMlowGDEWMBQGA1UEAwwNdGVhbTM3LWNsaWVudDCCASIwDQYJKoZIhvcNAQEB
BQADggEPADCCAQoCggEBAMODACL0oaqcMoJ5yoON5A3yVS9Xc4T6chZuANXgn0/R
f02TcMtO5UqPIIxzCEIaA690+JFyAetjQaRt8i7PUMLUOGSOLPZVtNmNeMaXIYV3
3chBEL0y/glzQ8gRTwAWXIkoXR6BNYeJ1akBOIwaGtTYK8TwVJeGt22HVrcX2E8q
3VMnKBWZqdmD1V2/gFkc5ZeysXhh6VGW6h+DsEGENfceyzhlxn+niWU5eTiZuUmz
IVuJSPFd56Ow0PWdOiwufyWG3T5ZoLKxPXdhjv1h/LJ3oS+a3Qsvy7jryQVRbQiK
OTvkYntW4tmfIPFgW9jZ+mGXumxcPyZpP9k1HHsrARUCAwEAAaOBoTCBnjAJBgNV
HRMEAjAAMB0GA1UdDgQWBBR+dUHXNXqiZFshbwTS2Fggtn2c+zBQBgNVHSMESTBH
gBRg/UBg/rhvXxVxNRryJgtwpgDxcqEZpBcwFTETMBEGA1UEAwwKdGVhbTM3LW5l
dIIUCCcz/IvGh6H4yuJJZDltX9mEzIQwEwYDVR0lBAwwCgYIKwYBBQUHAwIwCwYD
VR0PBAQDAgeAMA0GCSqGSIb3DQEBCwUAA4IBAQAUkZZj88MYCOzN96JR0ISAf+n+
ZorEEOJ5IWAfXBPzUC+HgIojV9iNtGWyDaaSgg66zyUiF2w4YDYGBJFVBKJiv4lY
LMciHDRXU9wM5vfs6v8YHOJLjsOICoSbMFdbk5B7T3kEFHoDqgNMfOuuftIm+RNG
61kml6shYPfghftLiPVL95XX99Jz3c3cIOcc2fjS/tq6ZEvg4Xc+CBle08vfOXvB
wqyYR2ziCyCutwHbWfR3rXZM70i9Y30iMzDsVgLgdLI9m+4MVCdgSLGgP+KS17Jh
0FYDKds0M2MollBZjWwvdhK8+bF/0EnaJwaYjFLJnUFwc2nscYWNbLiI/KQM
-----END CERTIFICATE-----
