Certificate:
    Data:
        Version: 3 (0x2)
        Serial Number:
            e2:47:8a:da:77:eb:84:a6:91:82:b3:2b:6a:f2:fa:aa
        Signature Algorithm: sha256WithRSAEncryption
        Issuer: CN=team37-net
        Validity
            Not Before: Apr 20 00:10:50 2023 GMT
            Not After : Apr  4 00:10:50 2026 GMT
        Subject: CN=team37-client
        Subject Public Key Info:
            Public Key Algorithm: rsaEncryption
                Public-Key: (2048 bit)
                Modulus:
                    00:c9:ff:92:a1:bd:95:fa:bc:9e:8b:45:03:8b:90:
                    4f:a9:f2:04:35:94:cf:e9:ca:09:61:95:53:3d:3a:
                    c7:dc:6c:66:45:00:a3:31:bf:f0:77:e7:c1:fc:99:
                    01:3f:2f:e4:ce:de:e3:72:79:22:9c:88:64:c9:db:
                    6d:9a:05:68:69:6b:a7:11:fc:ec:48:65:bf:46:cc:
                    9c:72:7a:95:91:74:a0:0d:33:25:db:fe:e2:69:d1:
                    97:3c:55:eb:3e:16:de:83:81:ef:da:cf:de:a7:fb:
                    c4:8b:38:5b:05:06:20:d7:1d:85:bd:4f:07:26:9e:
                    41:56:50:02:13:75:50:06:39:a7:c6:7a:3a:cb:21:
                    37:64:52:9a:f3:4c:20:5e:22:be:0a:db:f9:d1:bb:
                    0c:84:c3:8e:6c:0b:b3:d1:21:22:bd:db:4a:c4:8e:
                    f4:f4:8e:59:66:16:d8:a3:67:84:42:85:bf:b4:31:
                    35:ec:1c:08:2e:ef:76:3f:88:76:f4:c9:67:27:31:
                    8b:f9:fa:32:fa:21:6e:98:8b:1b:ff:45:5f:66:cf:
                    19:a4:c3:1f:6d:80:b6:73:37:bc:3d:b2:30:8a:29:
                    3f:bc:db:0b:3c:76:c4:6e:38:48:94:e0:b6:6b:2a:
                    d0:32:75:62:de:a3:c6:fc:7b:3c:a7:3f:21:68:06:
                    ad:75
                Exponent: 65537 (0x10001)
        X509v3 extensions:
            X509v3 Basic Constraints: 
                CA:FALSE
            X509v3 Subject Key Identifier: 
                FB:85:9F:F6:63:4D:10:35:D9:9E:D0:37:A1:A0:CE:C8:E6:28:CE:95
            X509v3 Authority Key Identifier: 
                keyid:B4:5A:0C:61:4E:1B:E3:F9:E2:24:36:64:31:31:0D:A3:1C:07:2D:C5
                DirName:/CN=team37-net
                serial:13:94:6C:C3:E9:DE:42:86:84:CE:53:D8:64:1E:18:86:4B:B2:98:4B
            X509v3 Extended Key Usage: 
                TLS Web Client Authentication
            X509v3 Key Usage: 
                Digital Signature
    Signature Algorithm: sha256WithRSAEncryption
    Signature Value:
        38:5a:29:d9:d3:3b:5a:83:b2:cb:d9:ca:41:2f:ea:13:3e:8d:
        ca:02:2f:a3:f1:ea:94:0a:e9:b8:be:81:76:cc:66:c9:24:13:
        e5:ed:8f:36:51:0e:d3:4d:a5:0c:6b:4c:d3:dd:68:8c:0b:f9:
        16:49:85:87:1a:20:a0:22:a3:c6:9f:51:c8:e7:d1:6b:9e:2c:
        2c:41:de:3f:b0:43:c4:cf:5f:5d:66:7c:90:dd:58:6d:6c:f3:
        26:4a:d7:d9:b1:f7:93:a9:82:37:84:ff:ca:65:33:f6:0b:4b:
        8d:35:94:59:11:22:48:6f:e4:b2:e7:3f:c9:f9:a1:29:ab:81:
        81:65:f0:e0:2d:38:79:1a:69:04:f0:e3:61:ee:8b:36:a8:14:
        76:7f:c8:9e:22:b0:cb:4d:91:f4:60:1d:1f:c1:31:04:1b:a7:
        d2:14:d6:21:a2:2a:2c:27:13:d4:1e:9d:2e:bb:09:37:4f:80:
        c0:79:75:d9:74:36:91:09:2f:74:25:65:af:b0:4d:7d:d2:56:
        3a:8f:60:2a:d0:2a:53:e5:2e:90:c1:b3:1f:65:43:26:da:d5:
        e3:d8:75:e7:c0:ec:bf:b7:f6:65:e7:b8:a5:58:2b:15:fa:42:
        e0:3f:be:6f:97:54:2f:f0:e3:b2:9f:92:b8:93:ec:d7:ee:ab:
        5b:b6:44:65
-----BEGIN CERTIFICATE-----
MIIDWjCCAkKgAwIBAgIRAOJHitp364SmkYKzK2ry+qowDQYJKoZIhvcNAQELBQAw
FTETMBEGA1UEAwwKdGVhbTM3LW5ldDAeFw0yMzA0MjAwMDEwNTBaFw0yNjA0MDQw
MDEwNTBaMBgxFjAUBgNVBAMMDXRlYW0zNy1jbGllbnQwggEiMA0GCSqGSIb3DQEB
AQUAA4IBDwAwggEKAoIBAQDJ/5KhvZX6vJ6LRQOLkE+p8gQ1lM/pyglhlVM9Osfc
bGZFAKMxv/B358H8mQE/L+TO3uNyeSKciGTJ222aBWhpa6cR/OxIZb9GzJxyepWR
dKANMyXb/uJp0Zc8Ves+Ft6Dge/az96n+8SLOFsFBiDXHYW9TwcmnkFWUAITdVAG
OafGejrLITdkUprzTCBeIr4K2/nRuwyEw45sC7PRISK920rEjvT0jllmFtijZ4RC
hb+0MTXsHAgu73Y/iHb0yWcnMYv5+jL6IW6Yixv/RV9mzxmkwx9tgLZzN7w9sjCK
KT+82ws8dsRuOEiU4LZrKtAydWLeo8b8ezynPyFoBq11AgMBAAGjgaEwgZ4wCQYD
VR0TBAIwADAdBgNVHQ4EFgQU+4Wf9mNNEDXZntA3oaDOyOYozpUwUAYDVR0jBEkw
R4AUtFoMYU4b4/niJDZkMTENoxwHLcWhGaQXMBUxEzARBgNVBAMMCnRlYW0zNy1u
ZXSCFBOUbMPp3kKGhM5T2GQeGIZLsphLMBMGA1UdJQQMMAoGCCsGAQUFBwMCMAsG
A1UdDwQEAwIHgDANBgkqhkiG9w0BAQsFAAOCAQEAOFop2dM7WoOyy9nKQS/qEz6N
ygIvo/HqlArpuL6BdsxmySQT5e2PNlEO002lDGtM091ojAv5FkmFhxogoCKjxp9R
yOfRa54sLEHeP7BDxM9fXWZ8kN1YbWzzJkrX2bH3k6mCN4T/ymUz9gtLjTWUWREi
SG/ksuc/yfmhKauBgWXw4C04eRppBPDjYe6LNqgUdn/IniKwy02R9GAdH8ExBBun
0hTWIaIqLCcT1B6dLrsJN0+AwHl12XQ2kQkvdCVlr7BNfdJWOo9gKtAqU+UukMGz
H2VDJtrV49h158Dsv7f2Zee4pVgrFfpC4D++b5dUL/Djsp+SuJPs1+6rW7ZEZQ==
-----END CERTIFICATE-----
