Certificate:
    Data:
        Version: 3 (0x2)
        Serial Number:
            91:bd:ad:f6:60:8e:9f:5f:1c:58:0a:f0:00:a2:bf:f1
        Signature Algorithm: sha256WithRSAEncryption
        Issuer: CN=team56-net
        Validity
            Not Before: Apr 20 00:11:15 2023 GMT
            Not After : Apr  4 00:11:15 2026 GMT
        Subject: CN=team56-server
        Subject Public Key Info:
            Public Key Algorithm: rsaEncryption
                Public-Key: (2048 bit)
                Modulus:
                    00:c1:5b:03:67:59:6b:ae:e3:6c:c4:e9:c9:d9:1f:
                    b1:46:b6:df:c4:3a:d3:c1:e3:65:5a:fc:3a:bb:4d:
                    ae:7b:ef:1f:da:0b:d4:f3:cf:35:8d:77:52:20:28:
                    1c:bc:29:0d:73:f1:0f:a0:cc:39:f8:b4:2a:f7:46:
                    72:0d:8f:5c:4d:18:38:f6:a1:4d:33:4a:b8:0b:9c:
                    90:92:c7:a4:f6:bc:1a:d7:0e:27:15:36:96:77:1e:
                    ac:38:c6:44:50:cd:8a:7f:46:13:4c:2f:6e:e7:b6:
                    e3:21:59:b2:fa:41:9c:04:6c:b6:a6:81:47:7f:d6:
                    a9:0e:7c:91:d3:52:db:67:f6:fc:c3:62:fa:b5:d7:
                    5a:96:ed:7c:38:e9:78:4c:7f:72:00:ca:63:38:36:
                    63:12:03:10:32:ea:46:7f:a9:7d:ba:03:93:df:df:
                    ab:f2:6d:ee:dd:db:9b:fe:ee:bd:13:93:d9:1f:28:
                    fe:b6:09:2e:68:90:c8:2d:3d:83:80:4d:26:5f:a9:
                    43:da:c5:d2:bc:ae:41:06:3b:6e:1d:c1:9c:17:26:
                    a0:ab:35:cd:f3:5d:55:84:e9:44:dd:d6:81:bf:c2:
                    1e:53:66:15:aa:f4:1d:2b:ad:83:5f:b4:d8:c1:14:
                    b5:6a:9e:20:08:26:6d:d0:6a:aa:65:c2:d8:83:a3:
                    47:5b
                Exponent: 65537 (0x10001)
        X509v3 extensions:
            X509v3 Basic Constraints: 
                CA:FALSE
            X509v3 Subject Key Identifier: 
                B7:64:AA:B8:91:72:A0:B9:66:4C:CD:A7:8B:0F:D3:6A:B7:A1:87:8A
            X509v3 Authority Key Identifier: 
                keyid:07:B1:53:3F:B7:39:90:B4:02:89:A3:FF:35:F8:F0:8A:30:9C:34:7E
                DirName:/CN=team56-net
                serial:4B:2E:C3:21:14:D0:12:3A:3D:CF:C7:04:11:72:39:27:E2:D5:3C:37
            X509v3 Extended Key Usage: 
                TLS Web Server Authentication
            X509v3 Key Usage: 
                Digital Signature, Key Encipherment
            X509v3 Subject Alternative Name: 
                DNS:team56-server
    Signature Algorithm: sha256WithRSAEncryption
    Signature Value:
        0c:a6:76:c8:2e:b7:ad:49:da:06:4c:05:fa:06:95:e9:e1:3b:
        5f:76:29:2c:33:de:a3:0a:1b:a0:c8:ca:14:74:df:9d:13:ae:
        d3:a4:0e:ca:39:1a:87:14:8d:72:49:6d:1e:6f:54:b2:5c:95:
        5d:4e:2e:10:b4:83:b0:43:c6:ee:a3:96:ff:68:6f:8e:4b:5d:
        8e:ad:3c:3e:f9:12:9a:ea:50:bb:3b:b9:df:19:d0:2e:ec:2c:
        41:fe:65:e7:cd:e5:65:11:7c:51:7b:47:38:26:9f:4d:02:6e:
        2d:67:6c:43:82:c1:c4:0f:b5:b9:d8:2c:4a:61:4a:27:bc:a9:
        93:47:34:94:b1:f1:88:4a:05:c5:03:3e:43:2b:3d:48:c9:7b:
        ed:24:dd:d0:e3:04:d7:6b:99:4a:3e:4d:58:b4:a5:87:88:ca:
        7c:7e:38:e4:fa:a5:3a:d2:5e:f0:f9:59:37:22:85:cd:b5:69:
        f8:99:5e:9b:15:27:aa:23:c5:02:96:3a:3c:b8:b0:ff:36:11:
        26:96:78:2c:30:79:dc:89:0e:7d:c6:27:96:38:eb:bc:f5:14:
        d0:4c:1f:dd:f0:f8:75:a6:cc:a8:f8:f9:40:9c:b4:71:4a:d1:
        52:bf:fc:5e:c9:62:f8:6d:02:5a:5b:5f:e9:4b:86:eb:86:13:
        43:3a:95:dc
-----BEGIN CERTIFICATE-----
MIIDdDCCAlygAwIBAgIRAJG9rfZgjp9fHFgK8ACiv/EwDQYJKoZIhvcNAQELBQAw
FTETMBEGA1UEAwwKdGVhbTU2LW5ldDAeFw0yMzA0MjAwMDExMTVaFw0yNjA0MDQw
MDExMTVaMBgxFjAUBgNVBAMMDXRlYW01Ni1zZXJ2ZXIwggEiMA0GCSqGSIb3DQEB
AQUAA4IBDwAwggEKAoIBAQDBWwNnWWuu42zE6cnZH7FGtt/EOtPB42Va/Dq7Ta57
7x/aC9TzzzWNd1IgKBy8KQ1z8Q+gzDn4tCr3RnINj1xNGDj2oU0zSrgLnJCSx6T2
vBrXDicVNpZ3Hqw4xkRQzYp/RhNML27ntuMhWbL6QZwEbLamgUd/1qkOfJHTUttn
9vzDYvq111qW7Xw46XhMf3IAymM4NmMSAxAy6kZ/qX26A5Pf36vybe7d25v+7r0T
k9kfKP62CS5okMgtPYOATSZfqUPaxdK8rkEGO24dwZwXJqCrNc3zXVWE6UTd1oG/
wh5TZhWq9B0rrYNftNjBFLVqniAIJm3QaqplwtiDo0dbAgMBAAGjgbswgbgwCQYD
VR0TBAIwADAdBgNVHQ4EFgQUt2SquJFyoLlmTM2niw/Tarehh4owUAYDVR0jBEkw
R4AUB7FTP7c5kLQCiaP/NfjwijCcNH6hGaQXMBUxEzARBgNVBAMMCnRlYW01Ni1u
ZXSCFEsuwyEU0BI6Pc/HBBFyOSfi1Tw3MBMGA1UdJQQMMAoGCCsGAQUFBwMBMAsG
A1UdDwQEAwIFoDAYBgNVHREEETAPgg10ZWFtNTYtc2VydmVyMA0GCSqGSIb3DQEB
CwUAA4IBAQAMpnbILretSdoGTAX6BpXp4TtfdiksM96jChugyMoUdN+dE67TpA7K
ORqHFI1ySW0eb1SyXJVdTi4QtIOwQ8buo5b/aG+OS12OrTw++RKa6lC7O7nfGdAu
7CxB/mXnzeVlEXxRe0c4Jp9NAm4tZ2xDgsHED7W52CxKYUonvKmTRzSUsfGISgXF
Az5DKz1IyXvtJN3Q4wTXa5lKPk1YtKWHiMp8fjjk+qU60l7w+Vk3IoXNtWn4mV6b
FSeqI8UCljo8uLD/NhEmlngsMHnciQ59xieWOOu89RTQTB/d8Ph1psyo+PlAnLRx
StFSv/xeyWL4bQJaW1/pS4brhhNDOpXc
-----END CERTIFICATE-----
