Certificate:
    Data:
        Version: 3 (0x2)
        Serial Number:
            17:24:36:8b:9d:d1:dd:64:91:c6:b1:02:7f:d8:ef:b0
        Signature Algorithm: sha256WithRSAEncryption
        Issuer: CN=team1-net
        Validity
            Not Before: Apr 20 22:53:23 2023 GMT
            Not After : Apr  4 22:53:23 2026 GMT
        Subject: CN=team1-server
        Subject Public Key Info:
            Public Key Algorithm: rsaEncryption
                Public-Key: (2048 bit)
                Modulus:
                    00:8f:5d:63:63:96:66:28:5a:29:eb:59:a0:20:d6:
                    09:d8:cf:9b:17:f2:59:be:1c:2c:1e:94:90:9f:f8:
                    de:d8:69:bf:4c:45:cd:87:66:ce:4d:93:9d:a6:aa:
                    65:45:68:33:90:d1:3d:cc:7a:96:83:8b:1d:81:53:
                    b3:0e:c4:4b:54:02:d5:7e:a4:21:51:60:c0:1c:4c:
                    d5:d2:ed:46:da:c6:e0:40:b3:80:9f:d5:37:be:f7:
                    42:62:6c:32:44:15:21:5c:e2:19:ac:b4:d2:19:60:
                    fb:76:cd:34:16:f3:d0:da:df:5b:d5:7a:f8:64:db:
                    7e:3d:7d:07:0c:6d:cc:57:aa:ee:ba:b6:c1:f8:e1:
                    e7:72:b1:3f:c6:13:2c:5a:da:f7:96:aa:8e:e8:77:
                    b4:14:67:9e:50:f4:b2:20:04:6a:32:cc:20:2d:cc:
                    7a:d6:00:13:56:85:c5:ed:09:7a:dc:72:f6:94:95:
                    3a:9f:20:97:ff:dd:4e:15:26:91:eb:c6:b4:6f:c4:
                    50:63:56:e6:53:ae:42:83:ca:4d:aa:6f:62:fb:cb:
                    48:52:ca:c9:7e:5b:7f:83:bf:02:e7:a7:92:e2:04:
                    67:e7:91:89:3c:eb:59:3f:05:1e:7f:e9:54:53:d1:
                    71:8a:ad:8f:6d:a3:f3:e2:a9:13:8d:a4:7d:23:f3:
                    e0:a9
                Exponent: 65537 (0x10001)
        X509v3 extensions:
            X509v3 Basic Constraints: 
                CA:FALSE
            X509v3 Subject Key Identifier: 
                81:A6:C7:23:9D:97:87:36:33:7B:D2:4C:5B:C0:AB:70:EC:C1:82:01
            X509v3 Authority Key Identifier: 
                keyid:09:9B:E4:34:06:B0:36:79:AD:56:0A:D6:39:0F:8B:B1:CD:D5:53:29
                DirName:/CN=team1-net
                serial:38:D9:9E:08:08:7C:2F:B8:57:56:4B:89:3E:AA:66:6D:2B:6B:36:52
            X509v3 Extended Key Usage: 
                TLS Web Server Authentication
            X509v3 Key Usage: 
                Digital Signature, Key Encipherment
            X509v3 Subject Alternative Name: 
                DNS:team1-server
    Signature Algorithm: sha256WithRSAEncryption
    Signature Value:
        3f:d1:ce:e6:ac:d0:29:1e:f2:b4:66:a0:b3:77:f8:28:1a:84:
        87:ab:6c:94:dd:32:eb:fd:d0:a1:e0:9e:41:26:eb:7f:7c:97:
        f0:8f:f2:07:87:89:47:82:fb:d9:f1:74:b2:ab:1a:b7:62:09:
        1e:39:b0:14:52:96:45:31:df:e3:ed:ba:c3:d1:7a:d5:62:9c:
        a6:d3:4e:b6:80:3d:67:47:01:07:01:42:57:d0:53:49:b4:00:
        db:58:c6:9d:10:4c:be:b6:31:5d:22:21:cd:85:33:90:d7:aa:
        9a:96:be:77:61:5a:f0:5f:3a:89:f4:99:59:e3:4c:90:bf:2e:
        73:7b:73:b3:6c:e5:de:dd:53:bc:f3:64:a6:ad:9c:27:ae:5d:
        fb:68:5b:be:1b:96:32:cc:37:ad:0a:23:b4:ea:fd:21:06:3e:
        89:e0:05:bf:11:bd:ea:14:06:95:96:42:c1:43:fd:f8:e5:b3:
        08:46:16:25:ac:84:2b:6a:b9:36:54:74:be:18:fe:d8:3e:8f:
        d3:3a:21:b5:1d:20:c8:53:9f:c2:1d:47:7c:f1:d3:e4:c2:13:
        c2:d9:b8:5b:b4:e3:d1:21:fb:72:01:4e:82:b0:02:a4:96:53:
        4d:ee:fa:c2:64:86:63:01:f5:e3:dd:91:2b:33:35:81:06:cf:
        64:6f:2a:8a
-----BEGIN CERTIFICATE-----
MIIDbzCCAlegAwIBAgIQFyQ2i53R3WSRxrECf9jvsDANBgkqhkiG9w0BAQsFADAU
MRIwEAYDVQQDDAl0ZWFtMS1uZXQwHhcNMjMwNDIwMjI1MzIzWhcNMjYwNDA0MjI1
MzIzWjAXMRUwEwYDVQQDDAx0ZWFtMS1zZXJ2ZXIwggEiMA0GCSqGSIb3DQEBAQUA
A4IBDwAwggEKAoIBAQCPXWNjlmYoWinrWaAg1gnYz5sX8lm+HCwelJCf+N7Yab9M
Rc2HZs5Nk52mqmVFaDOQ0T3MepaDix2BU7MOxEtUAtV+pCFRYMAcTNXS7UbaxuBA
s4Cf1Te+90JibDJEFSFc4hmstNIZYPt2zTQW89Da31vVevhk2349fQcMbcxXqu66
tsH44edysT/GEyxa2veWqo7od7QUZ55Q9LIgBGoyzCAtzHrWABNWhcXtCXrccvaU
lTqfIJf/3U4VJpHrxrRvxFBjVuZTrkKDyk2qb2L7y0hSysl+W3+DvwLnp5LiBGfn
kYk861k/BR5/6VRT0XGKrY9to/PiqRONpH0j8+CpAgMBAAGjgbkwgbYwCQYDVR0T
BAIwADAdBgNVHQ4EFgQUgabHI52XhzYze9JMW8CrcOzBggEwTwYDVR0jBEgwRoAU
CZvkNAawNnmtVgrWOQ+Lsc3VUymhGKQWMBQxEjAQBgNVBAMMCXRlYW0xLW5ldIIU
ONmeCAh8L7hXVkuJPqpmbStrNlIwEwYDVR0lBAwwCgYIKwYBBQUHAwEwCwYDVR0P
BAQDAgWgMBcGA1UdEQQQMA6CDHRlYW0xLXNlcnZlcjANBgkqhkiG9w0BAQsFAAOC
AQEAP9HO5qzQKR7ytGags3f4KBqEh6tslN0y6/3QoeCeQSbrf3yX8I/yB4eJR4L7
2fF0sqsat2IJHjmwFFKWRTHf4+26w9F61WKcptNOtoA9Z0cBBwFCV9BTSbQA21jG
nRBMvrYxXSIhzYUzkNeqmpa+d2Fa8F86ifSZWeNMkL8uc3tzs2zl3t1TvPNkpq2c
J65d+2hbvhuWMsw3rQojtOr9IQY+ieAFvxG96hQGlZZCwUP9+OWzCEYWJayEK2q5
NlR0vhj+2D6P0zohtR0gyFOfwh1HfPHT5MITwtm4W7Tj0SH7cgFOgrACpJZTTe76
wmSGYwH1492RKzM1gQbPZG8qig==
-----END CERTIFICATE-----
