Certificate:
    Data:
        Version: 3 (0x2)
        Serial Number:
            3f:ea:f6:80:2c:b9:24:53:5b:38:45:b4:cd:00:b1:e9
        Signature Algorithm: sha256WithRSAEncryption
        Issuer: CN=team1-net
        Validity
            Not Before: Apr 20 22:53:23 2023 GMT
            Not After : Apr  4 22:53:23 2026 GMT
        Subject: CN=team1-client
        Subject Public Key Info:
            Public Key Algorithm: rsaEncryption
                Public-Key: (2048 bit)
                Modulus:
                    00:ee:a0:b9:d6:4f:c7:aa:37:34:1c:42:7e:d5:8a:
                    05:35:e8:86:e1:08:32:05:77:43:0b:f7:70:6f:b6:
                    02:e9:a9:09:51:69:6c:e5:1b:ec:e8:6d:10:19:5b:
                    35:91:d3:96:28:63:ec:84:6a:7c:03:8c:a4:02:92:
                    38:9c:51:82:c3:b3:63:c4:0f:db:c8:b0:da:c5:3f:
                    47:13:91:d2:cc:4d:6f:ef:c6:90:7f:42:bf:67:19:
                    bc:5c:51:57:61:51:9c:52:ce:5f:10:2a:e5:e5:cb:
                    92:49:2c:b3:87:16:e6:2b:80:dc:aa:4f:7a:66:5e:
                    d3:59:91:e6:92:f3:33:f9:bc:6e:fe:18:94:8e:d2:
                    1e:15:09:e6:3f:95:5f:17:51:a2:80:39:0e:1c:14:
                    84:59:69:14:a6:a4:b5:08:dc:7c:c3:c4:8e:8b:a1:
                    5a:24:10:31:14:55:15:59:35:90:27:89:7a:49:35:
                    01:0e:6f:63:37:09:fb:03:b3:8e:71:80:aa:ab:a9:
                    ee:86:d9:03:c5:1e:f7:7e:d4:ea:d2:57:66:1f:42:
                    79:29:95:5c:1c:e9:4a:84:21:0b:71:72:92:8c:b3:
                    ac:49:b2:59:82:a8:b8:e0:a5:1b:d4:fc:63:fe:71:
                    d9:24:88:94:d3:31:67:76:33:23:0a:17:02:03:45:
                    a3:2b
                Exponent: 65537 (0x10001)
        X509v3 extensions:
            X509v3 Basic Constraints: 
                CA:FALSE
            X509v3 Subject Key Identifier: 
                0E:4E:54:F5:48:8F:FC:F6:B5:67:77:C9:4E:37:C9:21:39:89:69:B7
            X509v3 Authority Key Identifier: 
                keyid:09:9B:E4:34:06:B0:36:79:AD:56:0A:D6:39:0F:8B:B1:CD:D5:53:29
                DirName:/CN=team1-net
                serial:38:D9:9E:08:08:7C:2F:B8:57:56:4B:89:3E:AA:66:6D:2B:6B:36:52
            X509v3 Extended Key Usage: 
                TLS Web Client Authentication
            X509v3 Key Usage: 
                Digital Signature
    Signature Algorithm: sha256WithRSAEncryption
    Signature Value:
        30:92:86:46:28:14:3c:51:94:a0:0c:61:7b:48:9c:46:da:4c:
        15:ec:58:a6:19:19:05:76:25:d2:78:92:20:72:ad:32:9c:a2:
        07:fd:71:09:23:9d:fe:76:60:93:9d:a6:dd:4f:78:14:fb:8f:
        10:81:6c:e6:99:07:c7:d0:65:fc:f7:83:48:23:5e:76:b8:7b:
        1b:85:e1:e2:4e:d5:72:ec:26:37:90:e0:61:6f:f4:4b:35:ba:
        f6:1d:59:b4:97:92:b7:72:9b:56:69:d4:46:d3:85:41:fe:ca:
        48:01:6f:0b:ac:15:95:bc:b5:df:6a:96:78:b4:7f:f3:ac:c4:
        cc:5f:cf:b8:1e:1c:5d:98:b3:78:2f:d1:b0:95:fb:59:2c:3f:
        4c:46:c2:d0:65:cd:51:a2:26:3f:3a:56:29:c5:77:19:33:98:
        6c:d9:ac:53:5a:11:c9:47:4d:66:bf:35:b9:87:0b:4f:e6:19:
        ec:2b:f4:b3:c0:30:c7:5e:78:44:2d:ae:f4:98:4a:af:11:43:
        c8:93:0c:a0:32:d0:be:26:3a:d5:05:7b:fc:61:43:2b:50:6f:
        77:fe:7d:7f:3a:0e:fd:79:41:a7:cd:ae:a9:67:0f:01:c0:6b:
        c3:b6:36:a3:ac:27:e7:8d:b9:5d:bd:ec:55:b8:c7:79:3d:3b:
        bd:88:50:91
-----BEGIN CERTIFICATE-----
MIIDVjCCAj6gAwIBAgIQP+r2gCy5JFNbOEW0zQCx6TANBgkqhkiG9w0BAQsFADAU
MRIwEAYDVQQDDAl0ZWFtMS1uZXQwHhcNMjMwNDIwMjI1MzIzWhcNMjYwNDA0MjI1
MzIzWjAXMRUwEwYDVQQDDAx0ZWFtMS1jbGllbnQwggEiMA0GCSqGSIb3DQEBAQUA
A4IBDwAwggEKAoIBAQDuoLnWT8eqNzQcQn7VigU16IbhCDIFd0ML93BvtgLpqQlR
aWzlG+zobRAZWzWR05YoY+yEanwDjKQCkjicUYLDs2PED9vIsNrFP0cTkdLMTW/v
xpB/Qr9nGbxcUVdhUZxSzl8QKuXly5JJLLOHFuYrgNyqT3pmXtNZkeaS8zP5vG7+
GJSO0h4VCeY/lV8XUaKAOQ4cFIRZaRSmpLUI3HzDxI6LoVokEDEUVRVZNZAniXpJ
NQEOb2M3CfsDs45xgKqrqe6G2QPFHvd+1OrSV2YfQnkplVwc6UqEIQtxcpKMs6xJ
slmCqLjgpRvU/GP+cdkkiJTTMWd2MyMKFwIDRaMrAgMBAAGjgaAwgZ0wCQYDVR0T
BAIwADAdBgNVHQ4EFgQUDk5U9UiP/Pa1Z3fJTjfJITmJabcwTwYDVR0jBEgwRoAU
CZvkNAawNnmtVgrWOQ+Lsc3VUymhGKQWMBQxEjAQBgNVBAMMCXRlYW0xLW5ldIIU
ONmeCAh8L7hXVkuJPqpmbStrNlIwEwYDVR0lBAwwCgYIKwYBBQUHAwIwCwYDVR0P
BAQDAgeAMA0GCSqGSIb3DQEBCwUAA4IBAQAwkoZGKBQ8UZSgDGF7SJxG2kwV7Fim
GRkFdiXSeJIgcq0ynKIH/XEJI53+dmCTnabdT3gU+48QgWzmmQfH0GX894NII152
uHsbheHiTtVy7CY3kOBhb/RLNbr2HVm0l5K3cptWadRG04VB/spIAW8LrBWVvLXf
apZ4tH/zrMTMX8+4HhxdmLN4L9GwlftZLD9MRsLQZc1RoiY/OlYpxXcZM5hs2axT
WhHJR01mvzW5hwtP5hnsK/SzwDDHXnhELa70mEqvEUPIkwygMtC+JjrVBXv8YUMr
UG93/n1/Og79eUGnza6pZw8BwGvDtjajrCfnjbldvexVuMd5PTu9iFCR
-----END CERTIFICATE-----
