Certificate:
    Data:
        Version: 3 (0x2)
        Serial Number:
            a4:1b:39:fa:57:50:a8:56:73:8d:78:30:05:8c:8f:33
        Signature Algorithm: sha256WithRSAEncryption
        Issuer: CN=team15-net
        Validity
            Not Before: Apr 20 22:53:45 2023 GMT
            Not After : Apr  4 22:53:45 2026 GMT
        Subject: CN=team15-server
        Subject Public Key Info:
            Public Key Algorithm: rsaEncryption
                Public-Key: (2048 bit)
                Modulus:
                    00:a4:dd:b9:64:3b:20:b6:80:7c:38:56:9b:9f:91:
                    b1:d0:57:30:b9:61:44:9e:7d:61:aa:4d:71:ba:16:
                    ed:ac:98:0b:84:5d:62:a8:ad:16:6d:68:8e:4f:ff:
                    51:23:f1:84:d6:8a:af:70:c2:0a:12:0c:c1:53:ef:
                    9d:c7:0b:9d:ae:6c:69:46:15:7d:29:e4:e2:ff:1f:
                    80:a6:4c:3b:6e:50:52:99:0c:3e:94:ad:ed:3d:fd:
                    3f:e6:dc:16:22:3c:9f:96:2a:3e:78:48:1e:de:88:
                    e5:d6:32:6e:e5:e0:9e:57:fd:c4:96:3d:49:86:25:
                    c5:4f:c1:9c:a2:3c:d4:54:6e:82:42:86:d5:10:dc:
                    4f:2c:c9:b1:c0:cc:34:14:69:3f:7e:d2:bd:82:bc:
                    57:da:54:42:72:fd:8a:76:0a:27:00:fd:10:59:d8:
                    6e:7e:b1:3f:25:31:96:4d:55:8f:29:3d:0c:70:20:
                    3a:43:1a:db:1b:5c:dc:11:0b:a2:28:93:60:c2:e0:
                    e2:78:9d:b0:0f:11:3a:2a:64:d7:53:7c:db:2e:0d:
                    67:30:9f:4d:66:af:74:20:47:b2:c8:98:c1:75:fa:
                    f2:86:1e:a3:8a:e2:8d:89:74:b0:f1:8d:91:b2:eb:
                    d2:d6:fe:68:ee:a4:f0:d2:bc:c9:a5:7b:4d:79:3a:
                    cd:8d
                Exponent: 65537 (0x10001)
        X509v3 extensions:
            X509v3 Basic Constraints: 
                CA:FALSE
            X509v3 Subject Key Identifier: 
                7F:DA:4D:61:B5:0B:99:F1:15:CB:F0:4A:7F:04:11:C8:CF:E5:DE:41
            X509v3 Authority Key Identifier: 
                keyid:C1:6A:FC:DA:77:A5:E0:24:6F:D3:93:C8:1F:BF:55:10:27:0C:6A:AD
                DirName:/CN=team15-net
                serial:32:DD:EB:8F:59:E9:F8:93:72:77:01:DA:0A:22:7B:61:0D:05:73:DD
            X509v3 Extended Key Usage: 
                TLS Web Server Authentication
            X509v3 Key Usage: 
                Digital Signature, Key Encipherment
            X509v3 Subject Alternative Name: 
                DNS:team15-server
    Signature Algorithm: sha256WithRSAEncryption
    Signature Value:
        a8:38:b1:21:3a:20:4a:53:b9:bb:e9:f1:15:b6:2f:d0:6a:67:
        8d:05:89:23:b8:67:69:32:6c:2e:7e:e2:6e:09:b7:93:28:53:
        a8:18:68:a2:f2:16:fc:36:f8:75:e2:0a:17:ab:a3:5d:9b:b6:
        f8:5e:87:4e:4e:3f:5d:d0:e4:95:2d:1f:b7:db:54:09:ca:02:
        b7:b6:87:ba:48:7e:de:cd:0c:aa:1a:08:a2:4f:c9:8a:c5:e2:
        0f:c2:50:28:17:c0:40:fe:5f:a4:89:52:5b:6d:f3:c9:eb:fb:
        43:7b:0b:f6:9c:c7:0a:5f:64:4f:c3:c1:62:2a:43:fb:c8:42:
        7b:70:4d:c0:4b:4b:fd:27:40:88:0d:d1:de:e4:ea:72:86:1c:
        a7:95:ea:73:e3:0f:a1:eb:4c:c2:f3:5a:43:d5:c1:11:86:38:
        1d:8e:93:bc:04:2e:c9:27:e3:b0:1c:b6:db:b0:e4:80:8f:53:
        35:ce:19:e3:5a:98:f7:44:3c:d3:7c:d0:28:b2:19:49:fb:04:
        78:18:59:60:4a:dd:70:9d:b6:ec:d3:1e:1b:62:f5:46:e7:1d:
        00:cb:1c:07:b7:58:df:01:8f:fb:6a:ce:e7:ca:64:89:53:68:
        19:cc:7c:e4:d0:97:b3:4d:ca:3c:41:28:96:f5:77:58:84:31:
        b7:ca:4f:fe
-----BEGIN CERTIFICATE-----
MIIDdDCCAlygAwIBAgIRAKQbOfpXUKhWc414MAWMjzMwDQYJKoZIhvcNAQELBQAw
FTETMBEGA1UEAwwKdGVhbTE1LW5ldDAeFw0yMzA0MjAyMjUzNDVaFw0yNjA0MDQy
MjUzNDVaMBgxFjAUBgNVBAMMDXRlYW0xNS1zZXJ2ZXIwggEiMA0GCSqGSIb3DQEB
AQUAA4IBDwAwggEKAoIBAQCk3blkOyC2gHw4VpufkbHQVzC5YUSefWGqTXG6Fu2s
mAuEXWKorRZtaI5P/1Ej8YTWiq9wwgoSDMFT753HC52ubGlGFX0p5OL/H4CmTDtu
UFKZDD6Ure09/T/m3BYiPJ+WKj54SB7eiOXWMm7l4J5X/cSWPUmGJcVPwZyiPNRU
boJChtUQ3E8sybHAzDQUaT9+0r2CvFfaVEJy/Yp2CicA/RBZ2G5+sT8lMZZNVY8p
PQxwIDpDGtsbXNwRC6Iok2DC4OJ4nbAPEToqZNdTfNsuDWcwn01mr3QgR7LImMF1
+vKGHqOK4o2JdLDxjZGy69LW/mjupPDSvMmle015Os2NAgMBAAGjgbswgbgwCQYD
VR0TBAIwADAdBgNVHQ4EFgQUf9pNYbULmfEVy/BKfwQRyM/l3kEwUAYDVR0jBEkw
R4AUwWr82nel4CRv05PIH79VECcMaq2hGaQXMBUxEzARBgNVBAMMCnRlYW0xNS1u
ZXSCFDLd649Z6fiTcncB2goie2ENBXPdMBMGA1UdJQQMMAoGCCsGAQUFBwMBMAsG
A1UdDwQEAwIFoDAYBgNVHREEETAPgg10ZWFtMTUtc2VydmVyMA0GCSqGSIb3DQEB
CwUAA4IBAQCoOLEhOiBKU7m76fEVti/QameNBYkjuGdpMmwufuJuCbeTKFOoGGii
8hb8Nvh14goXq6Ndm7b4XodOTj9d0OSVLR+321QJygK3toe6SH7ezQyqGgiiT8mK
xeIPwlAoF8BA/l+kiVJbbfPJ6/tDewv2nMcKX2RPw8FiKkP7yEJ7cE3AS0v9J0CI
DdHe5Opyhhynlepz4w+h60zC81pD1cERhjgdjpO8BC7JJ+OwHLbbsOSAj1M1zhnj
Wpj3RDzTfNAoshlJ+wR4GFlgSt1wnbbs0x4bYvVG5x0AyxwHt1jfAY/7as7nymSJ
U2gZzHzk0JezTco8QSiW9XdYhDG3yk/+
-----END CERTIFICATE-----
