Certificate:
    Data:
        Version: 3 (0x2)
        Serial Number:
            af:38:71:00:3d:2e:93:53:ac:68:94:4c:64:d2:bd:10
        Signature Algorithm: sha256WithRSAEncryption
        Issuer: CN=team15-net
        Validity
            Not Before: Apr 20 22:53:45 2023 GMT
            Not After : Apr  4 22:53:45 2026 GMT
        Subject: CN=team15-client
        Subject Public Key Info:
            Public Key Algorithm: rsaEncryption
                Public-Key: (2048 bit)
                Modulus:
                    00:e5:9b:79:99:15:51:54:6f:a5:0a:0b:e5:5a:1b:
                    4c:fe:01:a0:4f:86:8b:ac:1a:d8:a3:81:72:21:c0:
                    06:97:96:0f:06:d1:c4:c0:24:44:23:2b:1c:68:42:
                    27:9d:04:ca:a3:78:5c:49:e8:cb:fa:ab:36:92:c6:
                    91:49:c1:65:66:1d:66:99:22:7c:00:cd:55:3f:86:
                    8f:3f:4e:c9:7f:a7:fe:1b:c7:dc:bd:85:14:13:1b:
                    1f:36:3f:16:10:97:c6:28:77:bc:c2:9b:ef:aa:43:
                    b1:1f:b0:d6:d4:c6:2b:00:60:94:9d:ae:88:28:6e:
                    fd:ac:3d:1c:40:50:57:8f:85:2b:a7:b8:16:0f:68:
                    fa:79:d6:55:ee:c4:68:bd:bc:f8:68:7b:ae:1b:0e:
                    35:4e:5d:82:d7:e2:99:0c:2f:79:dd:38:f9:3f:d2:
                    aa:92:62:f9:f1:d8:4f:7d:da:88:7f:39:52:ed:12:
                    18:e5:64:04:97:fa:95:a0:bb:ec:67:94:f1:2b:91:
                    e5:f0:91:b7:59:b0:2f:f2:e4:72:97:00:6a:d9:d6:
                    b2:4e:1f:93:65:51:a8:f1:48:68:4a:09:fb:02:72:
                    78:9a:36:78:4e:71:29:1f:79:54:bf:64:f6:1a:1d:
                    43:c6:3b:69:fa:8d:1a:17:c7:89:35:40:a4:f0:61:
                    7b:55
                Exponent: 65537 (0x10001)
        X509v3 extensions:
            X509v3 Basic Constraints: 
                CA:FALSE
            X509v3 Subject Key Identifier: 
                18:2D:F5:16:97:18:05:82:3F:63:F3:93:E1:A5:F7:13:80:93:E2:77
            X509v3 Authority Key Identifier: 
                keyid:C1:6A:FC:DA:77:A5:E0:24:6F:D3:93:C8:1F:BF:55:10:27:0C:6A:AD
                DirName:/CN=team15-net
                serial:32:DD:EB:8F:59:E9:F8:93:72:77:01:DA:0A:22:7B:61:0D:05:73:DD
            X509v3 Extended Key Usage: 
                TLS Web Client Authentication
            X509v3 Key Usage: 
                Digital Signature
    Signature Algorithm: sha256WithRSAEncryption
    Signature Value:
        a9:db:25:fa:e8:03:0e:b8:5a:fe:38:10:b1:0c:fd:f5:fa:8e:
        1c:fc:7f:34:b0:b3:11:81:22:cb:8f:e2:f1:ad:88:77:7c:3f:
        60:b3:95:d8:83:59:9d:47:52:a9:08:32:df:d7:2e:4b:45:96:
        67:c2:24:1b:fc:4a:ce:73:61:d1:2e:43:dd:40:d0:6c:8f:74:
        9a:1b:47:87:15:2b:e2:b1:3f:ad:bc:92:6a:25:13:04:cd:a1:
        91:46:01:ec:1f:1c:af:50:6d:b5:9f:74:51:e4:5b:1e:3b:3d:
        bf:76:c8:d5:47:5d:34:04:19:84:2c:c1:5f:2d:92:26:f3:a4:
        de:d8:4b:07:ea:00:ba:ce:66:81:ac:62:15:d5:61:45:09:28:
        3a:de:08:97:d0:43:38:b9:00:b9:b5:48:a7:c6:ab:48:c3:c2:
        0a:93:cf:4c:b6:90:9c:05:e8:5c:5f:97:13:33:f3:f3:97:52:
        18:7e:fe:fd:a8:8e:ae:00:f3:6d:12:4c:70:a6:eb:a2:fe:6f:
        6d:ab:ed:7b:62:c8:25:8c:fb:78:8e:47:76:ce:f5:c8:bd:a8:
        b2:ac:8d:c3:96:c9:de:18:d1:70:7b:5e:83:bb:39:f1:0d:6a:
        f6:78:c6:28:c1:92:ec:d0:8d:a3:cd:31:68:48:9a:09:6f:f7:
        fb:ae:db:2c
-----BEGIN CERTIFICATE-----
MIIDWjCCAkKgAwIBAgIRAK84cQA9LpNTrGiUTGTSvRAwDQYJKoZIhvcNAQELBQAw
FTETMBEGA1UEAwwKdGVhbTE1LW5ldDAeFw0yMzA0MjAyMjUzNDVaFw0yNjA0MDQy
MjUzNDVaMBgxFjAUBgNVBAMMDXRlYW0xNS1jbGllbnQwggEiMA0GCSqGSIb3DQEB
AQUAA4IBDwAwggEKAoIBAQDlm3mZFVFUb6UKC+VaG0z+AaBPhousGtijgXIhwAaX
lg8G0cTAJEQjKxxoQiedBMqjeFxJ6Mv6qzaSxpFJwWVmHWaZInwAzVU/ho8/Tsl/
p/4bx9y9hRQTGx82PxYQl8Yod7zCm++qQ7EfsNbUxisAYJSdrogobv2sPRxAUFeP
hSunuBYPaPp51lXuxGi9vPhoe64bDjVOXYLX4pkML3ndOPk/0qqSYvnx2E992oh/
OVLtEhjlZASX+pWgu+xnlPErkeXwkbdZsC/y5HKXAGrZ1rJOH5NlUajxSGhKCfsC
cniaNnhOcSkfeVS/ZPYaHUPGO2n6jRoXx4k1QKTwYXtVAgMBAAGjgaEwgZ4wCQYD
VR0TBAIwADAdBgNVHQ4EFgQUGC31FpcYBYI/Y/OT4aX3E4CT4ncwUAYDVR0jBEkw
R4AUwWr82nel4CRv05PIH79VECcMaq2hGaQXMBUxEzARBgNVBAMMCnRlYW0xNS1u
ZXSCFDLd649Z6fiTcncB2goie2ENBXPdMBMGA1UdJQQMMAoGCCsGAQUFBwMCMAsG
A1UdDwQEAwIHgDANBgkqhkiG9w0BAQsFAAOCAQEAqdsl+ugDDrha/jgQsQz99fqO
HPx/NLCzEYEiy4/i8a2Id3w/YLOV2INZnUdSqQgy39cuS0WWZ8IkG/xKznNh0S5D
3UDQbI90mhtHhxUr4rE/rbySaiUTBM2hkUYB7B8cr1BttZ90UeRbHjs9v3bI1Udd
NAQZhCzBXy2SJvOk3thLB+oAus5mgaxiFdVhRQkoOt4Il9BDOLkAubVIp8arSMPC
CpPPTLaQnAXoXF+XEzPz85dSGH7+/aiOrgDzbRJMcKbrov5vbavte2LIJYz7eI5H
ds71yL2osqyNw5bJ3hjRcHteg7s58Q1q9njGKMGS7NCNo80xaEiaCW/3+67bLA==
-----END CERTIFICATE-----
