Certificate:
    Data:
        Version: 3 (0x2)
        Serial Number:
            bc:66:37:af:db:f7:6f:74:53:99:31:fa:4f:74:8a:a7
        Signature Algorithm: sha256WithRSAEncryption
        Issuer: CN=team15-net
        Validity
            Not Before: Apr 20 00:10:16 2023 GMT
            Not After : Apr  4 00:10:16 2026 GMT
        Subject: CN=team15-client
        Subject Public Key Info:
            Public Key Algorithm: rsaEncryption
                Public-Key: (2048 bit)
                Modulus:
                    00:c9:78:79:1c:cd:c8:3d:0c:ad:04:9f:eb:7b:f1:
                    87:61:07:6e:83:60:3b:9b:9a:4c:7e:6b:e9:1e:63:
                    5f:fd:b1:df:c0:61:46:49:86:83:e7:4a:be:3e:b5:
                    10:12:40:ab:52:8b:29:09:d4:f5:de:d4:f5:7a:fc:
                    43:ba:4c:34:9d:87:ca:23:ab:ca:66:5f:8a:49:02:
                    9f:2f:dc:44:ce:0c:25:d3:d0:3d:83:46:b2:12:79:
                    94:f4:87:96:a2:9c:7c:4a:81:b7:62:6e:1c:56:19:
                    39:ea:fb:e1:88:14:78:66:d3:4c:39:59:51:c8:3b:
                    27:19:69:7f:a9:50:a8:44:bc:29:f7:6e:f7:8c:b6:
                    b0:1d:25:cc:9a:c0:e0:d0:99:22:0f:6c:0f:e3:1d:
                    a3:d3:79:f4:45:79:f8:0d:36:5e:27:30:9d:1d:fc:
                    3a:5a:0d:81:e7:3c:ba:47:cf:aa:31:44:8b:a0:b0:
                    c4:b0:f5:ec:57:0d:be:98:a8:aa:7e:29:cf:2a:91:
                    8e:91:4f:9e:64:f6:c1:17:69:94:07:2f:a9:cf:1f:
                    a2:82:35:15:0b:6a:14:45:d4:e2:77:fa:59:15:44:
                    05:f0:ab:06:0d:b2:66:00:ba:a6:1d:13:5f:d5:ae:
                    72:53:a9:14:62:6d:c9:cd:99:2b:f5:90:d4:71:6c:
                    3e:37
                Exponent: 65537 (0x10001)
        X509v3 extensions:
            X509v3 Basic Constraints: 
                CA:FALSE
            X509v3 Subject Key Identifier: 
                CB:F9:50:2B:56:9C:5E:75:7A:FB:13:AC:D9:80:44:3B:64:A1:52:96
            X509v3 Authority Key Identifier: 
                keyid:15:97:1C:9A:31:2B:1F:03:5B:48:9E:F5:21:0E:2A:34:C4:CD:70:09
                DirName:/CN=team15-net
                serial:17:42:A0:C2:71:38:8E:92:DC:C9:5F:D8:9A:20:6A:C1:D6:E5:12:3A
            X509v3 Extended Key Usage: 
                TLS Web Client Authentication
            X509v3 Key Usage: 
                Digital Signature
    Signature Algorithm: sha256WithRSAEncryption
    Signature Value:
        84:44:5f:a2:55:53:23:eb:a7:b2:ac:91:cf:5d:78:13:0d:dd:
        ce:22:a1:5b:23:de:62:87:0e:ab:55:43:b8:27:56:85:6d:b8:
        93:67:81:96:12:23:d8:10:05:02:18:42:3f:4f:5c:7c:e3:03:
        a1:fc:c4:57:18:79:5c:b7:e3:d2:ef:7f:79:59:28:b2:b1:7d:
        4f:7a:59:15:33:2f:98:07:73:f9:5d:d2:79:c4:9d:7f:1f:52:
        f7:23:97:6e:b6:fe:92:73:71:41:9e:c0:80:02:e5:28:2d:ff:
        dc:f4:ec:f1:0f:ac:a0:23:16:f2:f1:b6:0a:05:65:60:b1:5f:
        24:4c:d9:df:1e:31:ab:fd:f6:98:02:8c:67:b3:37:3a:4a:4d:
        0b:e7:6e:59:db:63:f2:f0:96:85:c1:61:cf:55:6d:62:4e:dc:
        07:fb:83:1c:62:9c:7e:7b:da:f2:12:8b:df:78:60:d4:22:3f:
        79:e2:47:f1:10:91:76:3c:90:62:64:d5:49:d8:6c:8e:b5:c6:
        7a:ac:00:a5:6c:fd:9f:fc:a6:38:87:6e:e6:38:b7:95:fe:4b:
        c0:4b:7c:03:2e:57:6f:a5:72:27:5b:d5:db:d5:c3:75:d0:bd:
        02:e9:8d:21:56:e9:79:02:3b:4c:03:22:4a:6d:a3:61:e1:13:
        d6:c2:d8:39
-----BEGIN CERTIFICATE-----
MIIDWjCCAkKgAwIBAgIRALxmN6/b9290U5kx+k90iqcwDQYJKoZIhvcNAQELBQAw
FTETMBEGA1UEAwwKdGVhbTE1LW5ldDAeFw0yMzA0MjAwMDEwMTZaFw0yNjA0MDQw
MDEwMTZaMBgxFjAUBgNVBAMMDXRlYW0xNS1jbGllbnQwggEiMA0GCSqGSIb3DQEB
AQUAA4IBDwAwggEKAoIBAQDJeHkczcg9DK0En+t78YdhB26DYDubmkx+a+keY1/9
sd/AYUZJhoPnSr4+tRASQKtSiykJ1PXe1PV6/EO6TDSdh8ojq8pmX4pJAp8v3ETO
DCXT0D2DRrISeZT0h5ainHxKgbdibhxWGTnq++GIFHhm00w5WVHIOycZaX+pUKhE
vCn3bveMtrAdJcyawODQmSIPbA/jHaPTefRFefgNNl4nMJ0d/DpaDYHnPLpHz6ox
RIugsMSw9exXDb6YqKp+Kc8qkY6RT55k9sEXaZQHL6nPH6KCNRULahRF1OJ3+lkV
RAXwqwYNsmYAuqYdE1/VrnJTqRRibcnNmSv1kNRxbD43AgMBAAGjgaEwgZ4wCQYD
VR0TBAIwADAdBgNVHQ4EFgQUy/lQK1acXnV6+xOs2YBEO2ShUpYwUAYDVR0jBEkw
R4AUFZccmjErHwNbSJ71IQ4qNMTNcAmhGaQXMBUxEzARBgNVBAMMCnRlYW0xNS1u
ZXSCFBdCoMJxOI6S3Mlf2JogasHW5RI6MBMGA1UdJQQMMAoGCCsGAQUFBwMCMAsG
A1UdDwQEAwIHgDANBgkqhkiG9w0BAQsFAAOCAQEAhERfolVTI+unsqyRz114Ew3d
ziKhWyPeYocOq1VDuCdWhW24k2eBlhIj2BAFAhhCP09cfOMDofzEVxh5XLfj0u9/
eVkosrF9T3pZFTMvmAdz+V3SecSdfx9S9yOXbrb+knNxQZ7AgALlKC3/3PTs8Q+s
oCMW8vG2CgVlYLFfJEzZ3x4xq/32mAKMZ7M3OkpNC+duWdtj8vCWhcFhz1VtYk7c
B/uDHGKcfnva8hKL33hg1CI/eeJH8RCRdjyQYmTVSdhsjrXGeqwApWz9n/ymOIdu
5ji3lf5LwEt8Ay5Xb6VyJ1vV29XDddC9AumNIVbpeQI7TAMiSm2jYeET1sLYOQ==
-----END CERTIFICATE-----
