Certificate:
    Data:
        Version: 3 (0x2)
        Serial Number:
            a0:ee:4c:3f:fc:92:f5:ca:c4:99:1d:9d:6a:a9:ac:73
        Signature Algorithm: sha256WithRSAEncryption
        Issuer: CN=team24-net
        Validity
            Not Before: Apr 20 00:10:31 2023 GMT
            Not After : Apr  4 00:10:31 2026 GMT
        Subject: CN=team24-server
        Subject Public Key Info:
            Public Key Algorithm: rsaEncryption
                Public-Key: (2048 bit)
                Modulus:
                    00:b1:78:5d:1f:96:f7:76:68:62:fe:4b:ce:6f:3f:
                    6d:55:d5:d7:78:a6:e0:20:2d:a9:74:67:9b:49:8c:
                    d3:e3:cd:84:20:75:85:e5:4d:18:73:85:8d:0c:ab:
                    3c:4d:7c:9d:b2:70:ee:18:29:14:7e:b7:74:d9:ec:
                    1e:cf:4d:53:51:c3:50:76:e4:eb:09:41:3b:b1:0b:
                    ae:fc:64:c7:f3:5e:03:a2:ae:8c:15:fa:ff:f6:44:
                    4a:02:fe:13:0d:aa:62:19:47:40:fd:e4:39:45:10:
                    32:dd:25:0b:6e:23:58:cc:d7:ab:38:c1:20:0e:4b:
                    22:ac:40:c3:96:6e:0d:4b:6b:38:f1:83:dc:0b:ec:
                    3a:4c:ba:11:2c:e3:a5:f5:95:2f:c1:ab:87:ed:2d:
                    92:40:2d:6c:a5:b3:11:ff:fc:8b:04:c8:20:09:76:
                    60:fe:97:01:3d:f6:ce:7a:7e:a8:2a:d7:db:62:02:
                    b8:a5:14:b4:dd:f6:cf:4c:a7:e7:d7:db:3f:17:1e:
                    fd:b0:d8:dc:c8:4d:76:80:83:ac:dc:b4:4d:67:e7:
                    f1:ac:e7:26:1a:37:f0:5f:89:9a:14:81:a5:86:30:
                    77:01:54:03:20:7f:cf:26:bf:8f:38:fb:f2:48:f4:
                    af:89:11:7c:9a:76:99:94:d1:fe:f5:ac:08:ac:d5:
                    bc:ed
                Exponent: 65537 (0x10001)
        X509v3 extensions:
            X509v3 Basic Constraints: 
                CA:FALSE
            X509v3 Subject Key Identifier: 
                4D:4A:AA:E6:B2:00:34:66:A7:46:50:A1:16:4A:FA:20:61:A7:74:5F
            X509v3 Authority Key Identifier: 
                keyid:8E:63:16:CC:71:5B:58:66:1C:90:69:5C:C2:31:20:97:7E:4F:F1:CD
                DirName:/CN=team24-net
                serial:1B:BE:71:95:62:49:10:B5:2D:A8:9F:94:50:DC:7B:C5:A6:24:D0:72
            X509v3 Extended Key Usage: 
                TLS Web Server Authentication
            X509v3 Key Usage: 
                Digital Signature, Key Encipherment
            X509v3 Subject Alternative Name: 
                DNS:team24-server
    Signature Algorithm: sha256WithRSAEncryption
    Signature Value:
        54:18:93:de:4a:e5:0b:4b:de:e2:11:9c:31:91:67:40:c0:b0:
        a3:fa:68:d0:2f:d2:00:66:0a:38:78:cc:4f:55:c1:34:68:af:
        1e:f6:59:27:36:1b:f7:3a:76:8d:a8:96:61:57:af:df:b9:53:
        60:83:74:91:f1:14:d6:11:73:42:c0:a4:48:09:35:6f:07:c7:
        36:31:d3:bd:8c:d7:8b:84:3f:f8:97:53:18:c8:16:e2:81:ad:
        f5:11:10:a9:7c:1c:58:b8:44:56:73:5a:9e:9b:54:eb:39:f3:
        50:c9:e3:3d:63:c2:06:a0:c5:03:c3:e7:14:9c:b6:fd:07:22:
        f3:79:cf:95:87:4f:5b:64:a0:76:0b:15:66:32:2d:6c:36:87:
        be:b9:49:fb:17:33:6a:33:60:44:9c:f3:ad:c3:03:0d:2b:13:
        06:b1:20:ce:d3:c0:b2:7e:34:8d:18:02:3e:44:2a:07:32:f7:
        79:51:ba:d7:d5:cf:f1:8a:97:f8:76:e6:6b:fc:e4:87:8f:99:
        8b:24:b2:ce:d0:9c:77:bc:a3:33:d3:f9:75:82:90:27:68:d1:
        4c:18:e4:6e:fe:28:66:10:4f:38:8b:c9:e2:9b:0c:f1:bd:fa:
        2b:23:db:a5:f8:8b:e1:ee:3e:2e:64:72:e1:0c:ad:c3:9c:9b:
        f3:ba:06:f3
-----BEGIN CERTIFICATE-----
MIIDdDCCAlygAwIBAgIRAKDuTD/8kvXKxJkdnWqprHMwDQYJKoZIhvcNAQELBQAw
FTETMBEGA1UEAwwKdGVhbTI0LW5ldDAeFw0yMzA0MjAwMDEwMzFaFw0yNjA0MDQw
MDEwMzFaMBgxFjAUBgNVBAMMDXRlYW0yNC1zZXJ2ZXIwggEiMA0GCSqGSIb3DQEB
AQUAA4IBDwAwggEKAoIBAQCxeF0flvd2aGL+S85vP21V1dd4puAgLal0Z5tJjNPj
zYQgdYXlTRhzhY0MqzxNfJ2ycO4YKRR+t3TZ7B7PTVNRw1B25OsJQTuxC678ZMfz
XgOirowV+v/2REoC/hMNqmIZR0D95DlFEDLdJQtuI1jM16s4wSAOSyKsQMOWbg1L
azjxg9wL7DpMuhEs46X1lS/Bq4ftLZJALWylsxH//IsEyCAJdmD+lwE99s56fqgq
19tiArilFLTd9s9Mp+fX2z8XHv2w2NzITXaAg6zctE1n5/Gs5yYaN/BfiZoUgaWG
MHcBVAMgf88mv484+/JI9K+JEXyadpmU0f71rAis1bztAgMBAAGjgbswgbgwCQYD
VR0TBAIwADAdBgNVHQ4EFgQUTUqq5rIANGanRlChFkr6IGGndF8wUAYDVR0jBEkw
R4AUjmMWzHFbWGYckGlcwjEgl35P8c2hGaQXMBUxEzARBgNVBAMMCnRlYW0yNC1u
ZXSCFBu+cZViSRC1LaiflFDce8WmJNByMBMGA1UdJQQMMAoGCCsGAQUFBwMBMAsG
A1UdDwQEAwIFoDAYBgNVHREEETAPgg10ZWFtMjQtc2VydmVyMA0GCSqGSIb3DQEB
CwUAA4IBAQBUGJPeSuULS97iEZwxkWdAwLCj+mjQL9IAZgo4eMxPVcE0aK8e9lkn
Nhv3OnaNqJZhV6/fuVNgg3SR8RTWEXNCwKRICTVvB8c2MdO9jNeLhD/4l1MYyBbi
ga31ERCpfBxYuERWc1qem1TrOfNQyeM9Y8IGoMUDw+cUnLb9ByLzec+Vh09bZKB2
CxVmMi1sNoe+uUn7FzNqM2BEnPOtwwMNKxMGsSDO08CyfjSNGAI+RCoHMvd5UbrX
1c/xipf4duZr/OSHj5mLJLLO0Jx3vKMz0/l1gpAnaNFMGORu/ihmEE84i8nimwzx
vforI9ul+Ivh7j4uZHLhDK3DnJvzugbz
-----END CERTIFICATE-----
