Certificate:
    Data:
        Version: 3 (0x2)
        Serial Number:
            d3:49:bf:3d:db:d0:cc:b4:87:1d:84:47:f1:d8:f0:62
        Signature Algorithm: sha256WithRSAEncryption
        Issuer: CN=team26-net
        Validity
            Not Before: Apr 20 00:10:34 2023 GMT
            Not After : Apr  4 00:10:34 2026 GMT
        Subject: CN=team26-server
        Subject Public Key Info:
            Public Key Algorithm: rsaEncryption
                Public-Key: (2048 bit)
                Modulus:
                    00:bb:d7:f6:b8:40:e8:8c:2e:0d:da:21:a5:c0:94:
                    b5:30:76:e7:aa:e7:cc:e1:81:d6:99:10:0b:84:f6:
                    f0:1f:bc:b9:1c:13:b4:68:c4:01:93:c9:44:7f:f1:
                    9f:78:4c:48:19:1e:81:3f:4b:e2:c1:5c:37:75:91:
                    16:c7:63:0e:b3:82:54:c1:2f:5d:f0:cd:1e:55:6f:
                    c4:36:96:19:92:5d:6e:93:f9:94:51:bb:29:8b:7a:
                    3c:53:29:8f:c5:b6:e9:c1:47:15:7c:88:94:85:08:
                    7f:05:e2:6d:5d:05:32:78:1a:39:76:93:2a:6c:92:
                    8a:17:cc:7c:07:c6:d9:7d:9c:a2:8b:0b:05:98:42:
                    4c:df:b2:74:26:d9:50:4c:5a:ce:60:98:9f:7e:2e:
                    f6:d3:a3:97:1d:c4:09:36:3b:da:0b:01:49:2c:7a:
                    9d:92:d7:fe:24:3f:8c:21:fe:68:56:78:cd:8f:71:
                    ba:f0:f5:e2:b9:6c:9e:53:6b:b4:a8:ff:cc:36:67:
                    c5:47:ad:5c:1f:4a:4e:2a:f1:9f:ce:32:4f:b0:a5:
                    c0:6d:3f:15:e9:65:35:c0:6e:c5:f0:e0:28:a2:48:
                    a0:ff:56:f4:25:8e:5f:77:32:4f:a2:f4:b1:37:59:
                    9a:2b:61:a3:7d:57:58:6f:07:1f:f3:de:e8:da:50:
                    23:8b
                Exponent: 65537 (0x10001)
        X509v3 extensions:
            X509v3 Basic Constraints: 
                CA:FALSE
            X509v3 Subject Key Identifier: 
                CC:8A:23:23:B0:1C:D2:6E:31:22:5C:62:2D:C8:A7:89:D0:C2:03:89
            X509v3 Authority Key Identifier: 
                keyid:25:FE:CF:F6:6A:04:6C:66:62:B2:C2:1F:24:9B:DD:25:40:52:1D:93
                DirName:/CN=team26-net
                serial:36:99:AA:77:A0:6C:96:60:3A:6A:F5:85:6D:09:73:F8:81:E6:9A:0A
            X509v3 Extended Key Usage: 
                TLS Web Server Authentication
            X509v3 Key Usage: 
                Digital Signature, Key Encipherment
            X509v3 Subject Alternative Name: 
                DNS:team26-server
    Signature Algorithm: sha256WithRSAEncryption
    Signature Value:
        bc:b7:59:c7:45:12:f3:96:19:6b:7b:ef:14:b1:de:e7:66:1e:
        43:95:52:6d:f6:43:09:55:4b:2b:53:48:72:d5:0a:b5:34:92:
        99:34:e1:9f:90:ca:09:3f:e8:78:1a:03:fe:28:90:86:69:92:
        d8:3c:6e:94:ad:b2:6b:de:6c:4c:0c:63:12:db:5c:08:98:16:
        b1:82:41:68:3f:be:3e:09:0e:05:ea:87:76:1e:26:1a:fc:94:
        d5:2d:07:3a:b1:c3:35:bb:be:2e:83:a4:cd:6f:d5:ea:9c:3c:
        ec:c4:7a:0d:72:1d:b0:31:1b:24:f4:19:f9:1f:77:a1:85:1b:
        99:37:4d:a7:c2:b0:06:13:93:aa:d6:25:1e:6b:66:9f:f9:18:
        26:09:f9:25:c7:cf:31:78:a6:6c:ce:17:fb:68:41:2c:be:78:
        2c:39:24:2d:9d:4b:e9:59:75:3e:cb:00:10:e3:cf:49:53:8a:
        38:4d:1a:2f:77:1d:bb:8b:d6:df:eb:cd:24:50:7e:ba:d1:38:
        21:b0:3f:aa:41:33:b7:04:dd:ab:1d:b9:b7:c1:a0:89:3b:5b:
        78:17:57:6e:e5:e0:d9:47:c4:e3:68:c5:bc:f9:ac:b6:35:0e:
        f8:f9:cb:d4:84:ee:99:8f:9c:71:9d:e4:e2:c4:ba:3e:e2:1b:
        c6:53:ba:ff
-----BEGIN CERTIFICATE-----
MIIDdDCCAlygAwIBAgIRANNJvz3b0My0hx2ER/HY8GIwDQYJKoZIhvcNAQELBQAw
FTETMBEGA1UEAwwKdGVhbTI2LW5ldDAeFw0yMzA0MjAwMDEwMzRaFw0yNjA0MDQw
MDEwMzRaMBgxFjAUBgNVBAMMDXRlYW0yNi1zZXJ2ZXIwggEiMA0GCSqGSIb3DQEB
AQUAA4IBDwAwggEKAoIBAQC71/a4QOiMLg3aIaXAlLUwdueq58zhgdaZEAuE9vAf
vLkcE7RoxAGTyUR/8Z94TEgZHoE/S+LBXDd1kRbHYw6zglTBL13wzR5Vb8Q2lhmS
XW6T+ZRRuymLejxTKY/FtunBRxV8iJSFCH8F4m1dBTJ4Gjl2kypskooXzHwHxtl9
nKKLCwWYQkzfsnQm2VBMWs5gmJ9+LvbTo5cdxAk2O9oLAUksep2S1/4kP4wh/mhW
eM2Pcbrw9eK5bJ5Ta7So/8w2Z8VHrVwfSk4q8Z/OMk+wpcBtPxXpZTXAbsXw4Cii
SKD/VvQljl93Mk+i9LE3WZorYaN9V1hvBx/z3ujaUCOLAgMBAAGjgbswgbgwCQYD
VR0TBAIwADAdBgNVHQ4EFgQUzIojI7Ac0m4xIlxiLcinidDCA4kwUAYDVR0jBEkw
R4AUJf7P9moEbGZissIfJJvdJUBSHZOhGaQXMBUxEzARBgNVBAMMCnRlYW0yNi1u
ZXSCFDaZqnegbJZgOmr1hW0Jc/iB5poKMBMGA1UdJQQMMAoGCCsGAQUFBwMBMAsG
A1UdDwQEAwIFoDAYBgNVHREEETAPgg10ZWFtMjYtc2VydmVyMA0GCSqGSIb3DQEB
CwUAA4IBAQC8t1nHRRLzlhlre+8Usd7nZh5DlVJt9kMJVUsrU0hy1Qq1NJKZNOGf
kMoJP+h4GgP+KJCGaZLYPG6UrbJr3mxMDGMS21wImBaxgkFoP74+CQ4F6od2HiYa
/JTVLQc6scM1u74ug6TNb9XqnDzsxHoNch2wMRsk9Bn5H3ehhRuZN02nwrAGE5Oq
1iUea2af+RgmCfklx88xeKZszhf7aEEsvngsOSQtnUvpWXU+ywAQ489JU4o4TRov
dx27i9bf680kUH660TghsD+qQTO3BN2rHbm3waCJO1t4F1du5eDZR8TjaMW8+ay2
NQ74+cvUhO6Zj5xxneTixLo+4hvGU7r/
-----END CERTIFICATE-----
