Certificate:
    Data:
        Version: 3 (0x2)
        Serial Number:
            67:04:21:bb:e6:b9:bd:6c:f7:d1:5e:e7:f6:f1:1b:2a
        Signature Algorithm: sha256WithRSAEncryption
        Issuer: CN=team55-net
        Validity
            Not Before: Apr 20 22:54:52 2023 GMT
            Not After : Apr  4 22:54:52 2026 GMT
        Subject: CN=team55-client
        Subject Public Key Info:
            Public Key Algorithm: rsaEncryption
                Public-Key: (2048 bit)
                Modulus:
                    00:a4:d9:26:39:6e:ca:99:77:14:af:8c:4d:80:13:
                    78:ae:ee:6b:00:b5:4b:f4:1c:5b:5b:6e:47:18:92:
                    c1:f6:52:70:f8:52:43:c4:ec:25:22:e6:fd:c3:b7:
                    e0:56:bc:3e:4d:b5:49:f6:5b:51:59:08:ee:d8:9c:
                    9d:7a:e1:78:c6:ae:6e:56:71:2a:93:79:7f:81:f4:
                    dc:0a:49:41:8f:29:da:e2:a4:53:52:2f:2a:eb:80:
                    6a:85:9d:1c:74:ab:52:76:12:7a:00:11:10:0f:62:
                    ae:6a:9a:45:30:81:64:ea:fc:5a:e4:a1:4c:44:db:
                    1c:4e:ce:26:80:9a:81:e2:08:25:4a:00:06:47:8f:
                    93:3a:2e:1b:cd:d6:9d:fc:37:e6:a9:17:ed:42:77:
                    33:ac:6c:eb:40:24:07:f2:f2:e2:7a:43:26:2b:52:
                    1d:83:b9:6e:ba:8c:67:3c:23:d3:ec:a6:4b:92:dc:
                    7b:6f:e0:09:f1:4a:e5:96:8f:6a:df:7d:10:b4:49:
                    3d:41:01:8b:9b:d4:1b:b0:ac:4b:34:63:da:ed:86:
                    f1:35:ff:33:e1:f6:9e:5f:04:28:52:a7:0f:b3:0d:
                    32:48:c5:cb:0f:33:21:e0:79:66:46:64:11:f1:b6:
                    8e:bc:4b:73:00:ac:ed:78:60:4d:53:00:f1:86:6b:
                    fd:51
                Exponent: 65537 (0x10001)
        X509v3 extensions:
            X509v3 Basic Constraints: 
                CA:FALSE
            X509v3 Subject Key Identifier: 
                D1:F8:60:A6:E6:D7:3A:C7:4A:F2:86:35:79:14:7E:B3:F0:B6:A0:92
            X509v3 Authority Key Identifier: 
                keyid:E9:B4:7D:17:68:F7:31:47:8D:AB:51:B3:8D:10:F5:A5:41:A3:21:13
                DirName:/CN=team55-net
                serial:1F:34:DF:4A:67:45:9F:27:A0:C7:87:E7:C5:D5:8A:46:E8:FF:86:06
            X509v3 Extended Key Usage: 
                TLS Web Client Authentication
            X509v3 Key Usage: 
                Digital Signature
    Signature Algorithm: sha256WithRSAEncryption
    Signature Value:
        97:3d:6c:7b:3e:c6:9c:4c:88:7a:b8:6a:73:96:cf:c4:dc:d5:
        73:a1:75:fd:bc:ea:07:09:0d:cf:c1:25:47:25:7e:43:88:52:
        fe:5c:c1:a4:81:8c:48:d6:a4:93:b8:b5:87:f6:c9:56:6f:eb:
        5e:cc:1e:1b:cd:52:1d:f1:7c:5d:0b:12:01:12:16:df:8f:d8:
        29:a1:fa:2b:1e:9f:b1:2f:e1:da:33:21:eb:92:2d:cd:40:f6:
        d0:67:2a:82:c7:06:26:9d:ae:44:de:69:56:cc:82:08:dd:a7:
        26:c2:45:c7:51:b7:d5:e7:7e:09:70:e3:81:90:2d:1a:70:8d:
        4f:0a:f0:07:9f:df:13:a4:69:a4:25:5a:b0:e1:30:eb:15:0c:
        5e:79:76:cd:10:46:03:3b:35:36:a8:0b:3f:70:cf:7c:e2:2a:
        4c:99:8c:d5:29:f4:05:f7:8f:d8:ad:ad:72:06:5d:74:59:5e:
        70:b8:8f:36:82:f6:bd:14:9b:ea:12:7c:f9:9a:de:3e:ec:b1:
        29:df:38:36:ef:d6:64:c3:99:a3:c0:a9:9b:49:f5:97:05:bc:
        4b:97:eb:4e:54:6c:86:ce:3e:f5:5d:37:ac:ea:6c:08:3a:fd:
        ef:46:a5:04:37:e4:af:2e:63:ab:1c:1e:c3:2a:05:d8:ac:f2:
        36:5a:69:53
-----BEGIN CERTIFICATE-----
MIIDWTCCAkGgAwIBAgIQZwQhu+a5vWz30V7n9vEbKjANBgkqhkiG9w0BAQsFADAV
MRMwEQYDVQQDDAp0ZWFtNTUtbmV0MB4XDTIzMDQyMDIyNTQ1MloXDTI2MDQwNDIy
NTQ1MlowGDEWMBQGA1UEAwwNdGVhbTU1LWNsaWVudDCCASIwDQYJKoZIhvcNAQEB
BQADggEPADCCAQoCggEBAKTZJjluypl3FK+MTYATeK7uawC1S/QcW1tuRxiSwfZS
cPhSQ8TsJSLm/cO34Fa8Pk21SfZbUVkI7ticnXrheMaublZxKpN5f4H03ApJQY8p
2uKkU1IvKuuAaoWdHHSrUnYSegAREA9irmqaRTCBZOr8WuShTETbHE7OJoCageII
JUoABkePkzouG83Wnfw35qkX7UJ3M6xs60AkB/Ly4npDJitSHYO5brqMZzwj0+ym
S5Lce2/gCfFK5ZaPat99ELRJPUEBi5vUG7CsSzRj2u2G8TX/M+H2nl8EKFKnD7MN
MkjFyw8zIeB5ZkZkEfG2jrxLcwCs7XhgTVMA8YZr/VECAwEAAaOBoTCBnjAJBgNV
HRMEAjAAMB0GA1UdDgQWBBTR+GCm5tc6x0ryhjV5FH6z8LagkjBQBgNVHSMESTBH
gBTptH0XaPcxR42rUbONEPWlQaMhE6EZpBcwFTETMBEGA1UEAwwKdGVhbTU1LW5l
dIIUHzTfSmdFnyegx4fnxdWKRuj/hgYwEwYDVR0lBAwwCgYIKwYBBQUHAwIwCwYD
VR0PBAQDAgeAMA0GCSqGSIb3DQEBCwUAA4IBAQCXPWx7PsacTIh6uGpzls/E3NVz
oXX9vOoHCQ3PwSVHJX5DiFL+XMGkgYxI1qSTuLWH9slWb+tezB4bzVId8XxdCxIB
Ehbfj9gpoforHp+xL+HaMyHrki3NQPbQZyqCxwYmna5E3mlWzIII3acmwkXHUbfV
534JcOOBkC0acI1PCvAHn98TpGmkJVqw4TDrFQxeeXbNEEYDOzU2qAs/cM984ipM
mYzVKfQF94/Yra1yBl10WV5wuI82gva9FJvqEnz5mt4+7LEp3zg279Zkw5mjwKmb
SfWXBbxLl+tOVGyGzj71XTes6mwIOv3vRqUEN+SvLmOrHB7DKgXYrPI2WmlT
-----END CERTIFICATE-----
