Certificate:
    Data:
        Version: 3 (0x2)
        Serial Number:
            9f:39:7a:63:a6:5d:bd:ab:fe:32:ce:37:b1:6f:8a:85
        Signature Algorithm: sha256WithRSAEncryption
        Issuer: CN=team55-net
        Validity
            Not Before: Apr 20 22:54:53 2023 GMT
            Not After : Apr  4 22:54:53 2026 GMT
        Subject: CN=team55-server
        Subject Public Key Info:
            Public Key Algorithm: rsaEncryption
                Public-Key: (2048 bit)
                Modulus:
                    00:99:ad:2e:c5:44:14:31:57:7e:c5:8f:e0:99:e6:
                    a6:32:9b:97:c6:3c:48:98:0d:c3:ee:d5:58:2c:59:
                    a7:1d:b0:7a:ca:b5:df:60:00:17:cc:4a:69:5e:86:
                    68:21:ca:f0:77:b6:bf:3c:c7:f4:a5:bd:ac:87:06:
                    3f:d9:2c:3f:3b:a6:8d:a7:0c:8a:53:40:5d:b4:34:
                    87:e2:8d:83:44:73:4e:7f:48:94:4b:ab:35:7b:2f:
                    bd:f3:ad:a5:0a:6a:4d:1c:76:b6:8e:75:17:94:a1:
                    65:4c:ca:da:0d:56:b3:20:f2:2f:4c:f6:b2:be:72:
                    e5:9f:7b:1e:07:3c:0f:0e:f5:3b:5e:26:69:2f:cb:
                    31:bb:d5:4a:09:5c:1c:e0:33:e4:9b:76:81:ff:9d:
                    5b:5a:35:18:3b:b5:20:78:db:c3:b7:db:12:ee:ef:
                    07:03:5e:dc:08:d2:07:e9:81:99:10:02:bc:1a:77:
                    a7:f3:b1:d1:ce:99:bd:87:ba:75:dc:90:1d:ff:d3:
                    e3:fd:38:0f:47:a0:75:59:62:64:c2:81:4c:ae:1b:
                    b7:aa:09:23:b9:e1:bc:34:93:08:c8:6a:7b:3c:bc:
                    f2:d0:e3:f5:8f:cf:d5:60:03:57:2d:eb:c9:b1:39:
                    a0:84:14:d5:91:fc:57:82:d5:d9:c7:ea:eb:6b:ed:
                    91:f5
                Exponent: 65537 (0x10001)
        X509v3 extensions:
            X509v3 Basic Constraints: 
                CA:FALSE
            X509v3 Subject Key Identifier: 
                80:8F:92:66:18:52:0C:F2:B2:BE:EE:8C:F9:88:0F:D1:07:60:35:66
            X509v3 Authority Key Identifier: 
                keyid:E9:B4:7D:17:68:F7:31:47:8D:AB:51:B3:8D:10:F5:A5:41:A3:21:13
                DirName:/CN=team55-net
                serial:1F:34:DF:4A:67:45:9F:27:A0:C7:87:E7:C5:D5:8A:46:E8:FF:86:06
            X509v3 Extended Key Usage: 
                TLS Web Server Authentication
            X509v3 Key Usage: 
                Digital Signature, Key Encipherment
            X509v3 Subject Alternative Name: 
                DNS:team55-server
    Signature Algorithm: sha256WithRSAEncryption
    Signature Value:
        8d:2b:16:8c:4a:c0:a8:72:80:0d:4b:41:f5:30:04:62:30:98:
        e0:6a:0a:c0:1a:c9:46:19:ae:da:f0:d0:c9:98:99:1c:be:e3:
        09:04:c4:2a:72:56:54:46:ae:8b:d2:03:e0:8d:7f:69:5b:84:
        8f:5b:36:2a:63:b2:0c:3a:99:86:f1:c9:15:28:51:bd:e0:f5:
        e8:d7:93:64:2c:f3:71:34:d6:d7:76:ff:b3:e7:b9:b3:ea:5a:
        40:ff:07:36:ce:90:bf:78:d4:23:95:17:de:1a:d5:7b:dc:01:
        d1:5d:fa:dc:88:02:2c:ec:02:ae:d1:da:a1:9a:18:13:f3:91:
        c9:ed:59:50:5c:1f:49:06:10:fe:76:5b:2f:82:fc:7b:29:c0:
        68:83:b7:ba:72:08:e6:a7:c9:a2:7c:c4:73:ea:07:77:18:7b:
        df:b8:5b:13:be:41:eb:e2:8c:1a:db:bf:5a:5d:9d:bd:cf:45:
        d7:de:00:4c:ab:ed:34:9d:c3:e6:8b:53:ab:ce:ee:05:29:14:
        77:ab:a5:32:81:a6:73:48:0d:32:e4:22:96:b7:2b:8d:70:4d:
        2a:70:8e:82:15:8b:3d:2b:13:2e:33:68:2a:c6:a9:0e:f8:8d:
        70:e8:5d:c6:d8:3a:94:56:63:fc:e0:dd:52:6d:26:1f:ae:50:
        b7:66:40:0b
-----BEGIN CERTIFICATE-----
MIIDdDCCAlygAwIBAgIRAJ85emOmXb2r/jLON7FvioUwDQYJKoZIhvcNAQELBQAw
FTETMBEGA1UEAwwKdGVhbTU1LW5ldDAeFw0yMzA0MjAyMjU0NTNaFw0yNjA0MDQy
MjU0NTNaMBgxFjAUBgNVBAMMDXRlYW01NS1zZXJ2ZXIwggEiMA0GCSqGSIb3DQEB
AQUAA4IBDwAwggEKAoIBAQCZrS7FRBQxV37Fj+CZ5qYym5fGPEiYDcPu1VgsWacd
sHrKtd9gABfMSmlehmghyvB3tr88x/SlvayHBj/ZLD87po2nDIpTQF20NIfijYNE
c05/SJRLqzV7L73zraUKak0cdraOdReUoWVMytoNVrMg8i9M9rK+cuWfex4HPA8O
9TteJmkvyzG71UoJXBzgM+SbdoH/nVtaNRg7tSB428O32xLu7wcDXtwI0gfpgZkQ
Arwad6fzsdHOmb2HunXckB3/0+P9OA9HoHVZYmTCgUyuG7eqCSO54bw0kwjIans8
vPLQ4/WPz9VgA1ct68mxOaCEFNWR/FeC1dnH6utr7ZH1AgMBAAGjgbswgbgwCQYD
VR0TBAIwADAdBgNVHQ4EFgQUgI+SZhhSDPKyvu6M+YgP0QdgNWYwUAYDVR0jBEkw
R4AU6bR9F2j3MUeNq1GzjRD1pUGjIROhGaQXMBUxEzARBgNVBAMMCnRlYW01NS1u
ZXSCFB8030pnRZ8noMeH58XVikbo/4YGMBMGA1UdJQQMMAoGCCsGAQUFBwMBMAsG
A1UdDwQEAwIFoDAYBgNVHREEETAPgg10ZWFtNTUtc2VydmVyMA0GCSqGSIb3DQEB
CwUAA4IBAQCNKxaMSsCocoANS0H1MARiMJjgagrAGslGGa7a8NDJmJkcvuMJBMQq
clZURq6L0gPgjX9pW4SPWzYqY7IMOpmG8ckVKFG94PXo15NkLPNxNNbXdv+z57mz
6lpA/wc2zpC/eNQjlRfeGtV73AHRXfrciAIs7AKu0dqhmhgT85HJ7VlQXB9JBhD+
dlsvgvx7KcBog7e6cgjmp8mifMRz6gd3GHvfuFsTvkHr4owa279aXZ29z0XX3gBM
q+00ncPmi1Orzu4FKRR3q6UygaZzSA0y5CKWtyuNcE0qcI6CFYs9KxMuM2gqxqkO
+I1w6F3G2DqUVmP84N1SbSYfrlC3ZkAL
-----END CERTIFICATE-----
