Certificate:
    Data:
        Version: 3 (0x2)
        Serial Number:
            ce:d9:f2:dd:c0:bb:eb:f8:6f:b5:cd:e8:bf:d2:35:0c
        Signature Algorithm: sha256WithRSAEncryption
        Issuer: CN=team55-net
        Validity
            Not Before: Apr 20 00:11:14 2023 GMT
            Not After : Apr  4 00:11:14 2026 GMT
        Subject: CN=team55-server
        Subject Public Key Info:
            Public Key Algorithm: rsaEncryption
                Public-Key: (2048 bit)
                Modulus:
                    00:c1:40:fe:3d:5f:f5:f7:15:86:56:78:4b:ab:0f:
                    9f:09:43:b6:52:12:4d:1a:98:5f:1f:38:29:f5:eb:
                    73:b8:95:fd:00:f7:49:38:77:31:42:f0:30:6c:e8:
                    cc:61:fe:03:90:30:52:b4:3f:31:2d:42:75:4d:c0:
                    fd:a5:92:67:a3:c3:62:e4:2a:5b:5d:d6:27:01:c4:
                    87:1d:ee:16:a6:f8:66:25:b7:b6:07:25:36:76:50:
                    f8:af:9a:fc:f6:8b:1f:0b:2f:a3:7e:b5:ef:0f:9b:
                    e3:e9:3b:55:ea:6c:4a:51:a2:95:aa:4a:56:db:9d:
                    17:04:b0:6a:7f:35:78:35:60:81:b3:d8:de:8c:f8:
                    b6:94:1b:5f:c5:08:7a:59:a7:0e:fc:4d:de:fc:9a:
                    9b:0f:d9:29:29:52:f0:47:3e:87:73:d5:6c:33:24:
                    ce:fb:60:1d:aa:40:a7:06:5f:ed:2c:e1:57:4a:2d:
                    c7:9e:23:e2:f5:0b:98:b7:2c:14:fd:94:12:12:80:
                    bc:c8:e0:b2:54:e9:8d:cd:62:aa:73:57:2b:f7:ae:
                    72:25:c1:75:2d:56:80:26:cc:fa:e0:96:00:d1:3f:
                    12:2e:84:fd:4a:0b:f8:ef:40:f8:0e:bd:b3:28:9f:
                    f3:65:7e:57:52:28:91:b0:cd:a5:89:57:18:1e:1e:
                    c0:19
                Exponent: 65537 (0x10001)
        X509v3 extensions:
            X509v3 Basic Constraints: 
                CA:FALSE
            X509v3 Subject Key Identifier: 
                06:5A:F5:AF:EE:68:E6:AE:E7:D0:54:97:AA:30:27:08:5B:AD:5B:94
            X509v3 Authority Key Identifier: 
                keyid:49:C6:F3:6B:CE:B6:26:BB:E0:AA:3F:91:C7:F7:C7:96:70:CB:85:EA
                DirName:/CN=team55-net
                serial:09:7B:CC:53:76:E6:BB:AE:D7:0D:07:F4:C3:A0:A2:0C:1A:A1:84:EF
            X509v3 Extended Key Usage: 
                TLS Web Server Authentication
            X509v3 Key Usage: 
                Digital Signature, Key Encipherment
            X509v3 Subject Alternative Name: 
                DNS:team55-server
    Signature Algorithm: sha256WithRSAEncryption
    Signature Value:
        a1:93:ea:b2:fe:86:9e:17:01:04:b7:bd:57:a5:00:99:2f:6c:
        71:97:d7:83:9f:c6:14:4f:c4:c3:db:5c:9c:24:f4:29:17:a8:
        c2:94:86:d2:0a:18:e4:ce:49:ea:06:b4:b3:95:81:e7:fb:d7:
        46:54:e2:31:31:59:db:6d:94:14:9f:2c:27:3b:e4:01:f9:1b:
        a1:c7:9a:57:52:22:f7:5e:b7:54:99:5a:86:8c:5d:0c:62:3d:
        4f:d5:48:9a:d0:53:d5:10:d3:85:94:df:e8:e4:4e:e8:52:32:
        b6:3d:d6:e7:ab:69:2d:5b:0c:82:a0:1b:89:eb:6e:b8:a7:b7:
        c1:46:e9:b1:63:3e:25:87:25:97:88:10:48:d0:7a:86:e0:ed:
        c1:fa:79:bf:35:b5:b3:ef:fe:1b:00:08:31:e6:f1:02:d7:0d:
        4b:4b:91:55:82:87:24:36:d7:ad:7c:78:22:73:8a:0b:c9:df:
        80:ae:a1:e8:4e:91:f2:9d:c3:17:f9:d4:16:8d:71:86:70:20:
        60:88:be:a9:28:ca:c7:17:67:96:80:58:d2:37:1d:31:c7:de:
        35:89:fe:df:d2:fd:17:5a:0d:7f:56:a0:3b:05:0b:a2:58:a3:
        0f:26:fc:37:b0:e7:96:2f:c0:59:7a:20:a9:ea:85:e3:68:d5:
        ec:67:d5:de
-----BEGIN CERTIFICATE-----
MIIDdDCCAlygAwIBAgIRAM7Z8t3Au+v4b7XN6L/SNQwwDQYJKoZIhvcNAQELBQAw
FTETMBEGA1UEAwwKdGVhbTU1LW5ldDAeFw0yMzA0MjAwMDExMTRaFw0yNjA0MDQw
MDExMTRaMBgxFjAUBgNVBAMMDXRlYW01NS1zZXJ2ZXIwggEiMA0GCSqGSIb3DQEB
AQUAA4IBDwAwggEKAoIBAQDBQP49X/X3FYZWeEurD58JQ7ZSEk0amF8fOCn163O4
lf0A90k4dzFC8DBs6Mxh/gOQMFK0PzEtQnVNwP2lkmejw2LkKltd1icBxIcd7ham
+GYlt7YHJTZ2UPivmvz2ix8LL6N+te8Pm+PpO1XqbEpRopWqSlbbnRcEsGp/NXg1
YIGz2N6M+LaUG1/FCHpZpw78Td78mpsP2SkpUvBHPodz1WwzJM77YB2qQKcGX+0s
4VdKLceeI+L1C5i3LBT9lBISgLzI4LJU6Y3NYqpzVyv3rnIlwXUtVoAmzPrglgDR
PxIuhP1KC/jvQPgOvbMon/NlfldSKJGwzaWJVxgeHsAZAgMBAAGjgbswgbgwCQYD
VR0TBAIwADAdBgNVHQ4EFgQUBlr1r+5o5q7n0FSXqjAnCFutW5QwUAYDVR0jBEkw
R4AUScbza862Jrvgqj+Rx/fHlnDLheqhGaQXMBUxEzARBgNVBAMMCnRlYW01NS1u
ZXSCFAl7zFN25ruu1w0H9MOgogwaoYTvMBMGA1UdJQQMMAoGCCsGAQUFBwMBMAsG
A1UdDwQEAwIFoDAYBgNVHREEETAPgg10ZWFtNTUtc2VydmVyMA0GCSqGSIb3DQEB
CwUAA4IBAQChk+qy/oaeFwEEt71XpQCZL2xxl9eDn8YUT8TD21ycJPQpF6jClIbS
ChjkzknqBrSzlYHn+9dGVOIxMVnbbZQUnywnO+QB+Ruhx5pXUiL3XrdUmVqGjF0M
Yj1P1Uia0FPVENOFlN/o5E7oUjK2Pdbnq2ktWwyCoBuJ6264p7fBRumxYz4lhyWX
iBBI0HqG4O3B+nm/NbWz7/4bAAgx5vEC1w1LS5FVgockNtetfHgic4oLyd+ArqHo
TpHyncMX+dQWjXGGcCBgiL6pKMrHF2eWgFjSNx0xx941if7f0v0XWg1/VqA7BQui
WKMPJvw3sOeWL8BZeiCp6oXjaNXsZ9Xe
-----END CERTIFICATE-----
