Certificate:
    Data:
        Version: 3 (0x2)
        Serial Number:
            0d:2f:0b:2c:1d:2d:8a:f6:43:d7:4c:19:7f:50:0e:f0
        Signature Algorithm: sha256WithRSAEncryption
        Issuer: CN=team8-net
        Validity
            Not Before: Apr 20 00:10:04 2023 GMT
            Not After : Apr  4 00:10:04 2026 GMT
        Subject: CN=team8-client
        Subject Public Key Info:
            Public Key Algorithm: rsaEncryption
                Public-Key: (2048 bit)
                Modulus:
                    00:cf:e1:72:55:f5:34:3c:26:f4:69:6e:a3:8c:a5:
                    0c:c9:c7:60:33:f9:dd:26:fa:1d:51:ef:fa:45:e0:
                    32:47:55:77:e5:46:08:c4:1a:c1:68:54:44:d2:47:
                    d3:16:03:52:c4:58:96:19:9e:d1:56:fa:db:e2:ef:
                    60:cb:75:b6:44:ca:a8:0b:b6:b9:24:f7:d0:71:47:
                    33:c9:38:78:d5:95:3f:1a:47:d3:14:fa:f3:69:db:
                    ea:d5:cb:f6:b7:02:44:09:28:76:b9:b8:3b:1c:da:
                    f2:82:bc:09:b7:92:1a:e6:19:4d:83:47:71:88:97:
                    d9:ad:f4:8b:73:97:26:63:54:8e:fa:b1:ca:ed:aa:
                    b3:36:56:df:e0:33:bf:83:af:9c:6c:13:c1:ef:a6:
                    1d:e6:fb:9e:b3:54:af:1c:e2:53:65:a5:3b:f9:0f:
                    65:6d:ac:10:31:09:34:35:02:15:b3:8f:00:71:ae:
                    0d:18:4a:05:3e:cc:f1:ac:c6:24:53:49:0d:25:28:
                    96:a7:17:93:6e:67:82:c2:00:80:85:78:ad:ed:43:
                    2d:df:30:44:31:ad:d2:d4:47:0b:0e:d5:b1:f4:bb:
                    cd:31:20:cc:5d:ee:b0:08:68:de:52:bc:3b:f7:00:
                    53:71:8b:96:dd:61:18:cb:70:dc:57:f7:b2:fb:fe:
                    a4:c1
                Exponent: 65537 (0x10001)
        X509v3 extensions:
            X509v3 Basic Constraints: 
                CA:FALSE
            X509v3 Subject Key Identifier: 
                60:1D:7B:7E:86:0E:5E:2D:66:A0:F6:6E:18:58:1C:EC:D4:E9:7D:59
            X509v3 Authority Key Identifier: 
                keyid:43:C6:2A:95:EC:EA:B4:14:87:0B:28:C4:8C:3C:A4:0D:55:B7:64:59
                DirName:/CN=team8-net
                serial:59:A5:81:2D:F8:A5:02:57:86:2C:6D:CE:56:B5:EB:69:FC:5F:FC:06
            X509v3 Extended Key Usage: 
                TLS Web Client Authentication
            X509v3 Key Usage: 
                Digital Signature
    Signature Algorithm: sha256WithRSAEncryption
    Signature Value:
        9c:0d:da:06:94:31:5c:7e:8d:2b:e9:5f:a7:4b:37:df:49:8f:
        aa:b4:f3:07:d9:be:c0:e4:78:e5:80:16:aa:69:87:b5:e2:40:
        f6:d1:9c:b6:1e:ba:be:88:4d:8e:30:70:95:95:9f:1b:29:55:
        28:c6:0c:91:8c:6f:7e:6a:34:68:05:00:43:76:45:0d:77:17:
        88:21:5f:a0:ca:fa:00:7f:bd:57:27:f4:ac:ad:e7:cc:c3:7f:
        97:dc:20:90:83:d5:0e:5c:09:77:f8:26:c3:9d:e4:3d:43:cd:
        cc:b6:81:d6:13:b9:a6:ea:14:29:07:80:61:c9:1b:e2:32:4a:
        6e:40:37:e8:d7:d5:21:da:7c:f0:49:93:17:69:92:9b:d3:17:
        ee:21:d6:82:e1:e3:2e:1b:1b:1e:9b:bd:92:0b:cd:41:20:3d:
        96:58:46:e3:3a:1f:c2:c2:71:d0:53:59:32:49:4d:2e:75:12:
        85:e7:1f:0b:1c:16:fc:1f:99:df:36:0e:c5:0e:0c:3d:d7:fa:
        0c:27:0c:c0:ff:ac:37:a7:44:c9:82:c4:f5:b3:76:1e:0f:ae:
        75:6a:bd:4d:18:a1:f3:b6:40:b4:46:80:80:6b:3c:e5:15:1f:
        85:2a:e2:4c:b2:2b:a9:38:92:2d:17:ef:c4:a8:64:a6:65:b0:
        bb:b3:7d:67
-----BEGIN CERTIFICATE-----
MIIDVjCCAj6gAwIBAgIQDS8LLB0tivZD10wZf1AO8DANBgkqhkiG9w0BAQsFADAU
MRIwEAYDVQQDDAl0ZWFtOC1uZXQwHhcNMjMwNDIwMDAxMDA0WhcNMjYwNDA0MDAx
MDA0WjAXMRUwEwYDVQQDDAx0ZWFtOC1jbGllbnQwggEiMA0GCSqGSIb3DQEBAQUA
A4IBDwAwggEKAoIBAQDP4XJV9TQ8JvRpbqOMpQzJx2Az+d0m+h1R7/pF4DJHVXfl
RgjEGsFoVETSR9MWA1LEWJYZntFW+tvi72DLdbZEyqgLtrkk99BxRzPJOHjVlT8a
R9MU+vNp2+rVy/a3AkQJKHa5uDsc2vKCvAm3khrmGU2DR3GIl9mt9ItzlyZjVI76
scrtqrM2Vt/gM7+Dr5xsE8Hvph3m+56zVK8c4lNlpTv5D2VtrBAxCTQ1AhWzjwBx
rg0YSgU+zPGsxiRTSQ0lKJanF5NuZ4LCAICFeK3tQy3fMEQxrdLURwsO1bH0u80x
IMxd7rAIaN5SvDv3AFNxi5bdYRjLcNxX97L7/qTBAgMBAAGjgaAwgZ0wCQYDVR0T
BAIwADAdBgNVHQ4EFgQUYB17foYOXi1moPZuGFgc7NTpfVkwTwYDVR0jBEgwRoAU
Q8YqlezqtBSHCyjEjDykDVW3ZFmhGKQWMBQxEjAQBgNVBAMMCXRlYW04LW5ldIIU
WaWBLfilAleGLG3OVrXrafxf/AYwEwYDVR0lBAwwCgYIKwYBBQUHAwIwCwYDVR0P
BAQDAgeAMA0GCSqGSIb3DQEBCwUAA4IBAQCcDdoGlDFcfo0r6V+nSzffSY+qtPMH
2b7A5HjlgBaqaYe14kD20Zy2Hrq+iE2OMHCVlZ8bKVUoxgyRjG9+ajRoBQBDdkUN
dxeIIV+gyvoAf71XJ/SsrefMw3+X3CCQg9UOXAl3+CbDneQ9Q83MtoHWE7mm6hQp
B4BhyRviMkpuQDfo19Uh2nzwSZMXaZKb0xfuIdaC4eMuGxsem72SC81BID2WWEbj
Oh/CwnHQU1kySU0udRKF5x8LHBb8H5nfNg7FDgw91/oMJwzA/6w3p0TJgsT1s3Ye
D651ar1NGKHztkC0RoCAazzlFR+FKuJMsiupOJItF+/EqGSmZbC7s31n
-----END CERTIFICATE-----
