Certificate:
    Data:
        Version: 3 (0x2)
        Serial Number:
            70:dd:91:21:a5:4b:c4:5e:53:03:47:d0:b5:b7:6d:90
        Signature Algorithm: sha256WithRSAEncryption
        Issuer: CN=team8-net
        Validity
            Not Before: Apr 20 22:53:33 2023 GMT
            Not After : Apr  4 22:53:33 2026 GMT
        Subject: CN=team8-client
        Subject Public Key Info:
            Public Key Algorithm: rsaEncryption
                Public-Key: (2048 bit)
                Modulus:
                    00:d2:4e:2a:5b:2e:9c:23:c7:6e:9f:ac:7c:3a:18:
                    8c:3e:45:dd:f7:02:e9:5d:4d:54:c4:68:8f:b3:60:
                    dc:d5:21:b3:1c:bf:5e:de:2d:87:9e:10:12:dc:c6:
                    72:51:25:fd:43:fb:ad:56:04:02:ff:5e:e5:77:75:
                    05:84:37:57:ea:30:99:f1:5e:83:0e:b0:fe:0b:a9:
                    58:64:80:47:cc:1e:ca:29:c5:37:3c:5a:00:53:de:
                    7e:4c:0b:bd:b8:52:e8:66:ff:1f:f4:84:4a:c8:1c:
                    3b:98:6b:11:32:2c:7b:1c:a2:27:ba:27:90:22:4a:
                    95:f8:eb:c2:de:8c:9a:ce:e9:61:9b:e1:c3:da:f3:
                    54:bc:eb:34:63:0a:ae:fd:13:cb:42:cd:aa:14:33:
                    a8:14:f3:08:8c:77:05:33:73:98:9b:3c:a5:f7:82:
                    42:f6:50:04:84:0b:78:3b:4b:e1:bb:3b:2d:08:48:
                    35:59:0a:ce:15:37:e6:a9:f7:71:4e:6f:7a:5f:2c:
                    42:1f:ba:ea:a9:2d:fa:47:0c:c3:cd:19:36:41:9f:
                    4c:c9:c5:de:7d:fe:f7:95:72:7b:8c:a3:d2:20:6d:
                    9a:88:8d:86:6d:17:1c:15:85:3e:2d:ab:ce:35:14:
                    1f:b4:88:e9:4c:b1:8d:15:56:04:ca:5e:74:8e:c3:
                    08:37
                Exponent: 65537 (0x10001)
        X509v3 extensions:
            X509v3 Basic Constraints: 
                CA:FALSE
            X509v3 Subject Key Identifier: 
                F4:64:A3:D8:AC:96:80:9E:4C:F7:5E:63:C4:A4:48:51:E1:10:DF:19
            X509v3 Authority Key Identifier: 
                keyid:73:C2:2D:AE:B2:CB:32:63:25:6C:2B:A0:40:CB:08:FE:BB:64:33:85
                DirName:/CN=team8-net
                serial:7E:59:0E:BB:5F:56:B4:B0:2B:F7:6D:9C:DA:6A:22:25:5F:67:49:CF
            X509v3 Extended Key Usage: 
                TLS Web Client Authentication
            X509v3 Key Usage: 
                Digital Signature
    Signature Algorithm: sha256WithRSAEncryption
    Signature Value:
        8a:8d:42:44:31:df:b9:11:75:28:eb:0c:28:91:8c:ee:ec:3d:
        52:e3:69:84:7d:62:20:d6:58:c9:2e:a3:2c:60:6c:1c:5e:f6:
        b2:95:44:31:e9:2f:01:63:71:ce:f9:29:f0:d3:b9:a5:ab:c4:
        f1:75:d6:80:56:16:c7:44:29:27:f2:c5:50:69:45:a2:20:e8:
        6f:b0:a6:0a:e6:94:6d:6f:08:40:db:7a:a6:62:3c:2f:10:86:
        06:81:53:be:0c:34:e9:f2:aa:a2:bc:e0:ab:8a:e2:9d:65:e3:
        d5:c5:f1:66:cc:6e:de:74:59:24:3b:c6:79:a4:ad:2a:2a:e5:
        49:99:45:46:74:cc:14:a1:6f:05:10:5d:9a:42:e6:5a:27:c2:
        2b:60:ba:9f:c6:1b:0d:61:da:7d:dc:70:42:07:75:4a:4e:ae:
        8b:23:cd:20:9c:d5:71:a0:be:34:d5:25:84:b8:a8:f4:b6:f4:
        6f:f1:3f:05:e8:cc:f2:96:f7:96:7d:2e:23:0e:3b:3f:a0:af:
        a5:f8:b3:be:2a:69:0d:e3:c7:b6:a4:88:33:1a:07:d7:f3:26:
        8b:5a:60:19:b7:dd:5d:b9:8e:c0:1e:92:30:fe:cc:27:48:81:
        8b:bb:c0:75:c4:99:9d:9a:ea:2f:4c:dc:a8:4e:74:ea:9b:95:
        c3:e2:84:4f
-----BEGIN CERTIFICATE-----
MIIDVjCCAj6gAwIBAgIQcN2RIaVLxF5TA0fQtbdtkDANBgkqhkiG9w0BAQsFADAU
MRIwEAYDVQQDDAl0ZWFtOC1uZXQwHhcNMjMwNDIwMjI1MzMzWhcNMjYwNDA0MjI1
MzMzWjAXMRUwEwYDVQQDDAx0ZWFtOC1jbGllbnQwggEiMA0GCSqGSIb3DQEBAQUA
A4IBDwAwggEKAoIBAQDSTipbLpwjx26frHw6GIw+Rd33AuldTVTEaI+zYNzVIbMc
v17eLYeeEBLcxnJRJf1D+61WBAL/XuV3dQWEN1fqMJnxXoMOsP4LqVhkgEfMHsop
xTc8WgBT3n5MC724Uuhm/x/0hErIHDuYaxEyLHscoie6J5AiSpX468LejJrO6WGb
4cPa81S86zRjCq79E8tCzaoUM6gU8wiMdwUzc5ibPKX3gkL2UASEC3g7S+G7Oy0I
SDVZCs4VN+ap93FOb3pfLEIfuuqpLfpHDMPNGTZBn0zJxd59/veVcnuMo9IgbZqI
jYZtFxwVhT4tq841FB+0iOlMsY0VVgTKXnSOwwg3AgMBAAGjgaAwgZ0wCQYDVR0T
BAIwADAdBgNVHQ4EFgQU9GSj2KyWgJ5M915jxKRIUeEQ3xkwTwYDVR0jBEgwRoAU
c8ItrrLLMmMlbCugQMsI/rtkM4WhGKQWMBQxEjAQBgNVBAMMCXRlYW04LW5ldIIU
flkOu19WtLAr922c2moiJV9nSc8wEwYDVR0lBAwwCgYIKwYBBQUHAwIwCwYDVR0P
BAQDAgeAMA0GCSqGSIb3DQEBCwUAA4IBAQCKjUJEMd+5EXUo6wwokYzu7D1S42mE
fWIg1ljJLqMsYGwcXvaylUQx6S8BY3HO+Snw07mlq8TxddaAVhbHRCkn8sVQaUWi
IOhvsKYK5pRtbwhA23qmYjwvEIYGgVO+DDTp8qqivOCriuKdZePVxfFmzG7edFkk
O8Z5pK0qKuVJmUVGdMwUoW8FEF2aQuZaJ8IrYLqfxhsNYdp93HBCB3VKTq6LI80g
nNVxoL401SWEuKj0tvRv8T8F6MzylveWfS4jDjs/oK+l+LO+KmkN48e2pIgzGgfX
8yaLWmAZt91duY7AHpIw/swnSIGLu8B1xJmdmuovTNyoTnTqm5XD4oRP
-----END CERTIFICATE-----
