Certificate:
    Data:
        Version: 3 (0x2)
        Serial Number:
            3d:b3:bc:7c:74:7a:29:07:92:41:e7:5e:9b:dc:4f:2c
        Signature Algorithm: sha256WithRSAEncryption
        Issuer: CN=team48-net
        Validity
            Not Before: Apr 20 00:11:03 2023 GMT
            Not After : Apr  4 00:11:03 2026 GMT
        Subject: CN=team48-client
        Subject Public Key Info:
            Public Key Algorithm: rsaEncryption
                Public-Key: (2048 bit)
                Modulus:
                    00:b2:7e:05:54:20:02:75:72:44:e3:a0:cc:7c:a2:
                    9e:5b:29:33:1e:cf:56:7f:f9:e3:78:ad:09:84:75:
                    b2:81:b1:11:6c:e8:e9:90:a2:04:bd:b5:88:26:25:
                    a3:9f:62:fa:ac:e8:3a:cb:62:35:31:15:e1:e4:de:
                    fe:fc:e1:e4:bd:2a:19:98:fd:c2:2b:9d:e5:12:0a:
                    73:86:21:27:9b:ba:db:bc:98:75:cc:a3:72:e4:e3:
                    aa:17:d6:66:4d:99:58:62:79:ea:41:4d:4d:e1:5b:
                    1e:11:2d:92:06:dd:16:8e:1b:88:5a:9f:e8:29:75:
                    09:ac:3c:af:94:81:ac:97:07:70:3e:1f:c4:a4:90:
                    27:bd:6d:27:22:9c:5d:07:d0:99:4e:83:a0:20:42:
                    6e:54:db:b7:00:df:fa:fd:95:76:1d:05:cd:b7:f5:
                    7e:c5:c4:be:16:b4:c0:45:cc:c9:a9:09:01:61:03:
                    47:00:55:62:b6:ef:90:c2:26:1d:63:00:a2:df:8f:
                    93:39:f7:75:b0:5c:c6:b9:d3:d4:92:13:60:56:63:
                    b5:85:9d:a0:4b:43:eb:1d:a7:2f:9b:49:8a:2e:a1:
                    75:40:b1:d6:f9:dd:d7:d3:b9:4a:28:2d:6f:28:9d:
                    de:8c:42:10:13:59:5c:23:1d:63:24:01:c5:03:16:
                    a2:5f
                Exponent: 65537 (0x10001)
        X509v3 extensions:
            X509v3 Basic Constraints: 
                CA:FALSE
            X509v3 Subject Key Identifier: 
                56:B7:C8:1B:5C:70:4D:B0:58:6B:9D:0E:47:38:EE:94:A6:80:EE:A3
            X509v3 Authority Key Identifier: 
                keyid:0C:22:51:02:7C:09:CC:40:41:C3:2C:25:BE:BB:D2:39:5B:7A:67:C6
                DirName:/CN=team48-net
                serial:68:3A:4B:DA:94:A8:4E:8B:67:98:13:4C:6D:BC:BB:93:90:62:EF:FA
            X509v3 Extended Key Usage: 
                TLS Web Client Authentication
            X509v3 Key Usage: 
                Digital Signature
    Signature Algorithm: sha256WithRSAEncryption
    Signature Value:
        3e:9e:e6:fd:65:0a:1e:a6:b8:b5:26:54:8f:f4:fc:fd:f2:a5:
        b3:19:6c:cd:7a:10:74:42:fc:c9:5a:a6:c6:21:a7:e6:9b:ee:
        a4:df:d2:e1:6b:cb:c9:2d:0f:ca:57:b5:b5:cf:79:98:b7:32:
        e1:1b:45:b2:98:31:a4:5a:04:33:54:1f:f9:99:4d:8b:d5:b7:
        68:16:72:42:83:af:7a:c4:2c:c9:4d:e1:18:db:6c:53:48:2a:
        a5:ec:60:6f:48:ad:55:75:4d:d0:93:e2:68:ce:e2:b8:1c:15:
        a1:70:48:88:6d:0c:e4:b3:d5:e6:98:0e:aa:3a:2c:e7:e5:b7:
        75:a7:41:c6:ed:d2:a2:bd:7f:9d:ff:e4:50:90:be:3e:6c:cc:
        e4:f4:f9:3d:89:6d:5b:44:bb:bb:c4:fc:3e:9a:da:c0:74:cd:
        b1:77:0d:da:64:8e:53:69:1e:1b:5f:10:ea:59:e9:21:d2:62:
        1e:31:76:9f:45:43:db:73:63:7a:3c:55:b6:85:42:c4:3f:7e:
        99:d9:ed:4e:b8:d4:0f:c0:67:de:9f:3d:1e:ab:a2:99:29:bd:
        fc:63:8c:36:de:a1:dc:93:2c:6d:0b:d4:7f:fa:db:32:5a:3f:
        88:bb:ce:8a:73:6c:2e:87:3f:62:82:39:96:1c:c1:76:e5:c1:
        e3:ac:2f:fe
-----BEGIN CERTIFICATE-----
MIIDWTCCAkGgAwIBAgIQPbO8fHR6KQeSQedem9xPLDANBgkqhkiG9w0BAQsFADAV
MRMwEQYDVQQDDAp0ZWFtNDgtbmV0MB4XDTIzMDQyMDAwMTEwM1oXDTI2MDQwNDAw
MTEwM1owGDEWMBQGA1UEAwwNdGVhbTQ4LWNsaWVudDCCASIwDQYJKoZIhvcNAQEB
BQADggEPADCCAQoCggEBALJ+BVQgAnVyROOgzHyinlspMx7PVn/543itCYR1soGx
EWzo6ZCiBL21iCYlo59i+qzoOstiNTEV4eTe/vzh5L0qGZj9wiud5RIKc4YhJ5u6
27yYdcyjcuTjqhfWZk2ZWGJ56kFNTeFbHhEtkgbdFo4biFqf6Cl1Caw8r5SBrJcH
cD4fxKSQJ71tJyKcXQfQmU6DoCBCblTbtwDf+v2Vdh0Fzbf1fsXEvha0wEXMyakJ
AWEDRwBVYrbvkMImHWMAot+Pkzn3dbBcxrnT1JITYFZjtYWdoEtD6x2nL5tJii6h
dUCx1vnd19O5Sigtbyid3oxCEBNZXCMdYyQBxQMWol8CAwEAAaOBoTCBnjAJBgNV
HRMEAjAAMB0GA1UdDgQWBBRWt8gbXHBNsFhrnQ5HOO6UpoDuozBQBgNVHSMESTBH
gBQMIlECfAnMQEHDLCW+u9I5W3pnxqEZpBcwFTETMBEGA1UEAwwKdGVhbTQ4LW5l
dIIUaDpL2pSoTotnmBNMbby7k5Bi7/owEwYDVR0lBAwwCgYIKwYBBQUHAwIwCwYD
VR0PBAQDAgeAMA0GCSqGSIb3DQEBCwUAA4IBAQA+nub9ZQoepri1JlSP9Pz98qWz
GWzNehB0QvzJWqbGIafmm+6k39Lha8vJLQ/KV7W1z3mYtzLhG0WymDGkWgQzVB/5
mU2L1bdoFnJCg696xCzJTeEY22xTSCql7GBvSK1VdU3Qk+JozuK4HBWhcEiIbQzk
s9XmmA6qOizn5bd1p0HG7dKivX+d/+RQkL4+bMzk9Pk9iW1bRLu7xPw+mtrAdM2x
dw3aZI5TaR4bXxDqWekh0mIeMXafRUPbc2N6PFW2hULEP36Z2e1OuNQPwGfenz0e
q6KZKb38Y4w23qHckyxtC9R/+tsyWj+Iu86Kc2wuhz9igjmWHMF25cHjrC/+
-----END CERTIFICATE-----
