Certificate:
    Data:
        Version: 3 (0x2)
        Serial Number:
            6e:e6:0f:5d:91:f5:fc:d0:42:e6:0e:4c:bc:f4:2b:70
        Signature Algorithm: sha256WithRSAEncryption
        Issuer: CN=team48-net
        Validity
            Not Before: Apr 20 00:11:04 2023 GMT
            Not After : Apr  4 00:11:04 2026 GMT
        Subject: CN=team48-server
        Subject Public Key Info:
            Public Key Algorithm: rsaEncryption
                Public-Key: (2048 bit)
                Modulus:
                    00:ba:46:f3:5d:5b:2f:e6:91:c5:6c:30:ee:f2:f8:
                    f9:36:b9:fd:05:fd:9f:50:02:7d:76:df:06:f9:0b:
                    e7:bf:25:b6:65:89:c1:da:30:d8:98:d6:e7:30:6e:
                    41:a0:f8:3f:26:8c:69:de:9e:c0:4d:8d:67:56:88:
                    ba:d8:72:30:8c:70:9d:c9:ca:0a:50:48:66:6c:51:
                    e1:a9:b9:5b:24:25:e5:24:36:3a:8e:c3:93:0a:53:
                    b6:e9:ea:f2:5d:00:d2:52:48:bd:1f:54:ff:fe:55:
                    d9:ab:50:48:9a:c0:e7:4e:7b:2f:a2:fd:60:94:d9:
                    fe:3c:ac:c0:b9:d6:12:3e:49:63:c0:d9:61:01:28:
                    47:0e:9e:dc:56:a0:eb:39:89:57:72:98:ef:ac:53:
                    63:6e:27:53:34:43:6c:ca:60:5f:e0:0e:4a:73:42:
                    1d:42:ec:2a:32:af:d5:2f:f2:56:65:f1:ae:7c:d9:
                    b5:a9:1e:10:62:90:39:da:f1:b1:06:26:c3:d3:8e:
                    be:cf:b7:a3:cf:05:6a:cf:a5:82:1c:0e:aa:10:4b:
                    16:75:08:a3:61:84:6d:de:a7:ec:09:a4:2c:44:f7:
                    5c:76:1e:fa:48:43:0c:8e:8c:7e:cb:a7:e4:0b:46:
                    a8:bf:0c:e5:4b:24:e6:35:ff:07:e6:73:44:2d:3a:
                    71:75
                Exponent: 65537 (0x10001)
        X509v3 extensions:
            X509v3 Basic Constraints: 
                CA:FALSE
            X509v3 Subject Key Identifier: 
                D7:AC:4D:20:E8:E4:DF:F5:FA:62:78:60:7D:00:90:59:AF:D8:8D:CD
            X509v3 Authority Key Identifier: 
                keyid:0C:22:51:02:7C:09:CC:40:41:C3:2C:25:BE:BB:D2:39:5B:7A:67:C6
                DirName:/CN=team48-net
                serial:68:3A:4B:DA:94:A8:4E:8B:67:98:13:4C:6D:BC:BB:93:90:62:EF:FA
            X509v3 Extended Key Usage: 
                TLS Web Server Authentication
            X509v3 Key Usage: 
                Digital Signature, Key Encipherment
            X509v3 Subject Alternative Name: 
                DNS:team48-server
    Signature Algorithm: sha256WithRSAEncryption
    Signature Value:
        75:67:40:21:d2:e7:71:7b:6c:d2:06:e7:8c:fb:11:9e:39:29:
        4b:44:57:5a:61:77:e5:a1:16:fe:d8:f5:11:62:65:d5:fa:0b:
        b4:ed:08:20:ab:e6:14:97:9a:e9:51:d5:fe:38:5a:19:fb:0e:
        59:35:26:71:65:f1:50:c8:f5:f0:fd:ff:40:0d:74:da:bc:b4:
        c8:e9:f5:81:fe:98:d4:48:cf:5d:95:33:22:30:23:e5:23:b7:
        96:08:30:1a:b9:69:7f:5e:1f:86:5e:fb:1a:ea:74:fe:d1:a6:
        26:33:b0:56:26:72:95:04:b4:83:0a:91:99:2b:24:ab:5a:a6:
        13:9b:32:d9:b2:82:ac:39:84:05:31:9d:41:21:ab:1e:6f:85:
        19:20:a4:7c:c8:1e:09:65:ed:6a:ac:7c:99:08:12:7b:5c:18:
        58:0f:57:b4:2e:32:e1:74:51:6e:ce:25:de:8e:05:8f:87:f4:
        e7:34:9c:c4:22:fc:34:de:f2:80:63:f5:d8:8a:91:cb:07:08:
        9e:89:49:4a:33:18:1e:b2:75:2d:32:bc:ae:52:7e:f6:6e:46:
        df:a8:15:c7:6a:44:46:36:29:10:f7:e8:ba:04:ef:d3:74:2c:
        fc:38:99:4f:69:9d:f1:39:87:6c:4f:95:1a:9d:ec:d3:aa:34:
        cf:ea:00:4e
-----BEGIN CERTIFICATE-----
MIIDczCCAlugAwIBAgIQbuYPXZH1/NBC5g5MvPQrcDANBgkqhkiG9w0BAQsFADAV
MRMwEQYDVQQDDAp0ZWFtNDgtbmV0MB4XDTIzMDQyMDAwMTEwNFoXDTI2MDQwNDAw
MTEwNFowGDEWMBQGA1UEAwwNdGVhbTQ4LXNlcnZlcjCCASIwDQYJKoZIhvcNAQEB
BQADggEPADCCAQoCggEBALpG811bL+aRxWww7vL4+Ta5/QX9n1ACfXbfBvkL578l
tmWJwdow2JjW5zBuQaD4PyaMad6ewE2NZ1aIuthyMIxwncnKClBIZmxR4am5WyQl
5SQ2Oo7DkwpTtunq8l0A0lJIvR9U//5V2atQSJrA5057L6L9YJTZ/jyswLnWEj5J
Y8DZYQEoRw6e3Fag6zmJV3KY76xTY24nUzRDbMpgX+AOSnNCHULsKjKv1S/yVmXx
rnzZtakeEGKQOdrxsQYmw9OOvs+3o88Fas+lghwOqhBLFnUIo2GEbd6n7AmkLET3
XHYe+khDDI6Mfsun5AtGqL8M5Usk5jX/B+ZzRC06cXUCAwEAAaOBuzCBuDAJBgNV
HRMEAjAAMB0GA1UdDgQWBBTXrE0g6OTf9fpieGB9AJBZr9iNzTBQBgNVHSMESTBH
gBQMIlECfAnMQEHDLCW+u9I5W3pnxqEZpBcwFTETMBEGA1UEAwwKdGVhbTQ4LW5l
dIIUaDpL2pSoTotnmBNMbby7k5Bi7/owEwYDVR0lBAwwCgYIKwYBBQUHAwEwCwYD
VR0PBAQDAgWgMBgGA1UdEQQRMA+CDXRlYW00OC1zZXJ2ZXIwDQYJKoZIhvcNAQEL
BQADggEBAHVnQCHS53F7bNIG54z7EZ45KUtEV1phd+WhFv7Y9RFiZdX6C7TtCCCr
5hSXmulR1f44Whn7Dlk1JnFl8VDI9fD9/0ANdNq8tMjp9YH+mNRIz12VMyIwI+Uj
t5YIMBq5aX9eH4Ze+xrqdP7RpiYzsFYmcpUEtIMKkZkrJKtaphObMtmygqw5hAUx
nUEhqx5vhRkgpHzIHgll7WqsfJkIEntcGFgPV7QuMuF0UW7OJd6OBY+H9Oc0nMQi
/DTe8oBj9diKkcsHCJ6JSUozGB6ydS0yvK5SfvZuRt+oFcdqREY2KRD36LoE79N0
LPw4mU9pnfE5h2xPlRqd7NOqNM/qAE4=
-----END CERTIFICATE-----
