Certificate:
    Data:
        Version: 3 (0x2)
        Serial Number:
            9b:2a:07:0a:99:c3:70:0e:06:7a:66:a4:dc:c2:17:06
        Signature Algorithm: sha256WithRSAEncryption
        Issuer: CN=team48-net
        Validity
            Not Before: Apr 20 22:54:39 2023 GMT
            Not After : Apr  4 22:54:39 2026 GMT
        Subject: CN=team48-client
        Subject Public Key Info:
            Public Key Algorithm: rsaEncryption
                Public-Key: (2048 bit)
                Modulus:
                    00:c1:0d:1b:89:a7:53:e1:f4:0d:1c:d2:6f:1a:bc:
                    d6:93:ea:d8:a8:6d:c7:cf:c3:5c:fe:b4:86:77:26:
                    14:45:7d:87:ea:87:11:b5:a2:f3:85:8d:5d:1c:31:
                    c2:80:4a:97:51:09:ba:9a:04:7c:63:20:90:eb:ad:
                    86:86:52:25:8c:06:39:42:f3:d7:56:d3:0e:17:66:
                    df:5f:04:ae:42:c6:db:b0:fe:b6:9a:63:51:62:d5:
                    78:10:da:87:41:17:e3:36:f2:66:17:e9:a5:a1:f8:
                    1f:64:7a:f2:27:1d:a6:96:de:20:95:d4:93:cf:af:
                    03:23:6b:06:18:11:0b:57:aa:0a:ff:a7:88:94:9f:
                    95:8c:e1:06:b9:f9:80:53:66:59:11:13:b8:72:55:
                    8d:a7:e5:cf:64:60:8e:7a:38:01:74:54:2e:cc:cc:
                    01:cc:0e:d5:7c:0c:71:84:ab:66:8d:2d:9b:a7:ef:
                    d1:e8:3e:58:d1:a7:29:30:a4:94:c0:a0:c3:21:c4:
                    ca:3e:77:89:89:0b:58:7f:b2:be:fb:1a:99:0f:06:
                    f1:0a:33:40:97:be:86:00:4a:84:8b:79:aa:94:c5:
                    36:12:e7:46:6c:5e:12:27:9a:96:dd:67:70:23:14:
                    40:08:a3:23:e4:fb:8a:e4:30:bd:06:7a:69:ba:71:
                    92:7d
                Exponent: 65537 (0x10001)
        X509v3 extensions:
            X509v3 Basic Constraints: 
                CA:FALSE
            X509v3 Subject Key Identifier: 
                C1:3A:29:5E:03:D7:7F:26:17:46:6D:33:92:DD:3E:E7:5C:3D:CE:AA
            X509v3 Authority Key Identifier: 
                keyid:5D:8B:87:33:41:D6:2D:8A:25:20:97:90:D7:D1:AC:4C:34:25:09:D5
                DirName:/CN=team48-net
                serial:35:EF:24:E7:D3:99:AE:54:CA:11:C4:FF:1A:F1:E2:8F:EB:1E:4C:6B
            X509v3 Extended Key Usage: 
                TLS Web Client Authentication
            X509v3 Key Usage: 
                Digital Signature
    Signature Algorithm: sha256WithRSAEncryption
    Signature Value:
        b4:ab:fe:ae:0d:e6:2e:32:eb:51:10:0b:39:42:7e:87:ce:7b:
        85:75:c4:55:ef:d0:72:e0:6c:69:8c:61:77:d6:ae:a8:c7:e0:
        b5:61:92:87:f3:29:43:7f:00:f1:06:60:ba:82:cc:1c:d7:45:
        5f:60:7b:fb:ae:02:67:9d:da:86:0e:15:e7:fd:30:50:32:db:
        5d:07:c4:35:08:f0:52:b5:92:52:6f:46:ec:30:cb:82:ab:bc:
        14:e8:1a:0a:b1:43:42:8e:c9:c0:ad:a8:1c:60:32:31:4c:b5:
        53:6e:9b:1d:db:c8:09:db:82:35:91:83:7b:19:50:4d:e1:a3:
        ab:8c:75:e3:af:95:01:33:ae:8f:a2:62:11:84:b2:dd:80:f6:
        ce:79:ba:ea:ed:8e:9a:ed:1a:8d:f7:1b:14:ae:c8:26:df:87:
        37:a9:e5:22:22:a0:3a:c0:d1:15:02:01:7a:3a:0a:2c:4e:6d:
        57:3d:16:fd:83:b7:6a:22:5b:16:c3:10:46:1f:c9:84:b1:7c:
        6c:be:ae:2e:4a:27:cc:c2:9d:57:f7:1d:d9:5f:c4:c6:6a:fc:
        8b:9a:01:f6:b6:15:76:89:5e:46:8b:6e:c4:0b:7e:f9:7d:b1:
        6d:c6:d7:9e:a0:cc:4a:05:d6:0b:96:62:dd:71:fc:cc:97:46:
        c6:6d:75:52
-----BEGIN CERTIFICATE-----
MIIDWjCCAkKgAwIBAgIRAJsqBwqZw3AOBnpmpNzCFwYwDQYJKoZIhvcNAQELBQAw
FTETMBEGA1UEAwwKdGVhbTQ4LW5ldDAeFw0yMzA0MjAyMjU0MzlaFw0yNjA0MDQy
MjU0MzlaMBgxFjAUBgNVBAMMDXRlYW00OC1jbGllbnQwggEiMA0GCSqGSIb3DQEB
AQUAA4IBDwAwggEKAoIBAQDBDRuJp1Ph9A0c0m8avNaT6tiobcfPw1z+tIZ3JhRF
fYfqhxG1ovOFjV0cMcKASpdRCbqaBHxjIJDrrYaGUiWMBjlC89dW0w4XZt9fBK5C
xtuw/raaY1Fi1XgQ2odBF+M28mYX6aWh+B9kevInHaaW3iCV1JPPrwMjawYYEQtX
qgr/p4iUn5WM4Qa5+YBTZlkRE7hyVY2n5c9kYI56OAF0VC7MzAHMDtV8DHGEq2aN
LZun79HoPljRpykwpJTAoMMhxMo+d4mJC1h/sr77GpkPBvEKM0CXvoYASoSLeaqU
xTYS50ZsXhInmpbdZ3AjFEAIoyPk+4rkML0Gemm6cZJ9AgMBAAGjgaEwgZ4wCQYD
VR0TBAIwADAdBgNVHQ4EFgQUwTopXgPXfyYXRm0zkt0+51w9zqowUAYDVR0jBEkw
R4AUXYuHM0HWLYolIJeQ19GsTDQlCdWhGaQXMBUxEzARBgNVBAMMCnRlYW00OC1u
ZXSCFDXvJOfTma5UyhHE/xrx4o/rHkxrMBMGA1UdJQQMMAoGCCsGAQUFBwMCMAsG
A1UdDwQEAwIHgDANBgkqhkiG9w0BAQsFAAOCAQEAtKv+rg3mLjLrURALOUJ+h857
hXXEVe/QcuBsaYxhd9auqMfgtWGSh/MpQ38A8QZguoLMHNdFX2B7+64CZ53ahg4V
5/0wUDLbXQfENQjwUrWSUm9G7DDLgqu8FOgaCrFDQo7JwK2oHGAyMUy1U26bHdvI
CduCNZGDexlQTeGjq4x146+VATOuj6JiEYSy3YD2znm66u2Omu0ajfcbFK7IJt+H
N6nlIiKgOsDRFQIBejoKLE5tVz0W/YO3aiJbFsMQRh/JhLF8bL6uLkonzMKdV/cd
2V/Exmr8i5oB9rYVdoleRotuxAt++X2xbcbXnqDMSgXWC5Zi3XH8zJdGxm11Ug==
-----END CERTIFICATE-----
