Certificate:
    Data:
        Version: 3 (0x2)
        Serial Number:
            0e:e9:24:38:8d:00:d8:f7:16:3f:1d:55:04:15:39:96
        Signature Algorithm: sha256WithRSAEncryption
        Issuer: CN=team40-net
        Validity
            Not Before: Apr 20 00:10:53 2023 GMT
            Not After : Apr  4 00:10:53 2026 GMT
        Subject: CN=team40-server
        Subject Public Key Info:
            Public Key Algorithm: rsaEncryption
                Public-Key: (2048 bit)
                Modulus:
                    00:be:8a:d0:b7:ed:18:71:37:81:25:da:73:17:cb:
                    e9:e7:f7:38:8c:f8:3c:b9:14:27:af:89:3a:d6:43:
                    c6:07:59:84:43:d8:1e:2a:c2:2b:8d:25:47:fc:5d:
                    eb:81:09:c2:42:54:53:fc:30:9e:e2:38:d9:3d:ed:
                    eb:3e:89:74:ad:da:85:7b:98:9b:b0:7b:df:c5:23:
                    e8:1b:6c:e1:c3:be:6e:af:e3:43:a6:7c:b0:7e:4a:
                    90:c3:aa:f0:ba:7a:02:02:50:88:2c:7a:44:71:de:
                    08:a8:86:b6:54:7f:fa:c3:ff:0a:3f:e5:1a:4f:c9:
                    a4:ac:02:c3:48:be:86:c0:8d:aa:6f:07:9d:17:3f:
                    23:62:51:83:c9:33:2c:cc:00:0b:40:14:e1:4c:5d:
                    6f:14:e2:ae:6b:54:b0:6c:61:34:0e:76:22:8e:48:
                    a6:af:9a:87:86:4e:76:8f:ae:0c:99:f5:1a:ee:a0:
                    2a:cf:ae:a4:11:6b:56:e7:4c:24:1d:9d:14:bb:fd:
                    01:df:08:30:83:dc:c3:0b:52:b0:1e:bf:e1:50:18:
                    58:6b:0c:f6:3b:5f:42:84:49:e3:7f:80:40:12:24:
                    a9:dd:a5:76:78:e7:d4:aa:74:e2:2d:d9:a9:8c:03:
                    5e:1c:61:ea:f3:93:13:36:a6:24:dd:57:ac:58:f9:
                    02:35
                Exponent: 65537 (0x10001)
        X509v3 extensions:
            X509v3 Basic Constraints: 
                CA:FALSE
            X509v3 Subject Key Identifier: 
                29:75:7B:01:82:7D:7F:F0:95:12:1F:05:C8:F5:AE:60:51:20:73:A3
            X509v3 Authority Key Identifier: 
                keyid:FF:BC:7F:5B:91:C1:77:DB:DC:89:1B:0F:F0:21:9C:0C:2A:A2:09:F1
                DirName:/CN=team40-net
                serial:07:E2:1E:7D:67:8A:E1:35:67:9D:47:DD:F3:4A:DE:9B:39:33:84:79
            X509v3 Extended Key Usage: 
                TLS Web Server Authentication
            X509v3 Key Usage: 
                Digital Signature, Key Encipherment
            X509v3 Subject Alternative Name: 
                DNS:team40-server
    Signature Algorithm: sha256WithRSAEncryption
    Signature Value:
        6d:54:d3:72:cf:56:22:00:98:15:a7:45:60:ae:56:ed:ab:72:
        4b:27:cd:44:29:df:4d:d1:b7:1a:f2:0c:ee:43:67:84:a1:70:
        4f:34:88:9a:e1:1b:9d:c6:aa:cf:85:e8:c4:7e:4f:51:e4:bb:
        27:c9:26:4b:25:b4:bb:5b:85:77:b0:5f:15:71:5f:77:68:56:
        84:11:b9:4d:6a:cc:2f:9d:d9:c7:34:a7:85:1d:31:4a:47:36:
        87:db:8a:e0:0e:03:9c:ad:84:5a:eb:88:4d:d1:69:38:97:a2:
        c8:85:03:30:d0:55:bd:c5:da:0a:db:ad:8d:5d:6f:52:b5:23:
        be:4b:78:3a:4b:ca:7b:bf:76:20:a9:0b:4d:96:28:1d:d0:b2:
        5c:06:1a:b2:42:eb:8c:a7:5c:3d:87:0e:7e:b8:75:9d:1b:6a:
        a4:b5:ab:64:ab:16:9f:5a:1b:25:ec:28:ba:39:8d:c4:47:09:
        38:85:df:1a:03:8a:bb:9c:8a:ef:f3:83:78:39:07:0a:33:37:
        35:54:dc:fe:92:82:4c:5a:ea:f2:61:45:20:54:46:67:3f:1f:
        b8:73:94:b7:8c:9e:1b:1a:a2:ee:e7:4e:17:65:16:44:a6:32:
        58:ce:b6:d2:8e:0f:a0:4c:78:ec:50:21:31:46:f4:29:6b:44:
        09:35:c1:1a
-----BEGIN CERTIFICATE-----
MIIDczCCAlugAwIBAgIQDukkOI0A2PcWPx1VBBU5ljANBgkqhkiG9w0BAQsFADAV
MRMwEQYDVQQDDAp0ZWFtNDAtbmV0MB4XDTIzMDQyMDAwMTA1M1oXDTI2MDQwNDAw
MTA1M1owGDEWMBQGA1UEAwwNdGVhbTQwLXNlcnZlcjCCASIwDQYJKoZIhvcNAQEB
BQADggEPADCCAQoCggEBAL6K0LftGHE3gSXacxfL6ef3OIz4PLkUJ6+JOtZDxgdZ
hEPYHirCK40lR/xd64EJwkJUU/wwnuI42T3t6z6JdK3ahXuYm7B738Uj6Bts4cO+
bq/jQ6Z8sH5KkMOq8Lp6AgJQiCx6RHHeCKiGtlR/+sP/Cj/lGk/JpKwCw0i+hsCN
qm8HnRc/I2JRg8kzLMwAC0AU4UxdbxTirmtUsGxhNA52Io5Ipq+ah4ZOdo+uDJn1
Gu6gKs+upBFrVudMJB2dFLv9Ad8IMIPcwwtSsB6/4VAYWGsM9jtfQoRJ43+AQBIk
qd2ldnjn1Kp04i3ZqYwDXhxh6vOTEzamJN1XrFj5AjUCAwEAAaOBuzCBuDAJBgNV
HRMEAjAAMB0GA1UdDgQWBBQpdXsBgn1/8JUSHwXI9a5gUSBzozBQBgNVHSMESTBH
gBT/vH9bkcF329yJGw/wIZwMKqIJ8aEZpBcwFTETMBEGA1UEAwwKdGVhbTQwLW5l
dIIUB+IefWeK4TVnnUfd80remzkzhHkwEwYDVR0lBAwwCgYIKwYBBQUHAwEwCwYD
VR0PBAQDAgWgMBgGA1UdEQQRMA+CDXRlYW00MC1zZXJ2ZXIwDQYJKoZIhvcNAQEL
BQADggEBAG1U03LPViIAmBWnRWCuVu2rcksnzUQp303RtxryDO5DZ4ShcE80iJrh
G53Gqs+F6MR+T1HkuyfJJksltLtbhXewXxVxX3doVoQRuU1qzC+d2cc0p4UdMUpH
NofbiuAOA5ythFrriE3RaTiXosiFAzDQVb3F2grbrY1db1K1I75LeDpLynu/diCp
C02WKB3QslwGGrJC64ynXD2HDn64dZ0baqS1q2SrFp9aGyXsKLo5jcRHCTiF3xoD
iruciu/zg3g5BwozNzVU3P6Sgkxa6vJhRSBURmc/H7hzlLeMnhsaou7nThdlFkSm
MljOttKOD6BMeOxQITFG9ClrRAk1wRo=
-----END CERTIFICATE-----
