Certificate:
    Data:
        Version: 3 (0x2)
        Serial Number:
            ff:4b:1e:3f:5c:d5:2b:e5:7f:81:39:47:f2:4a:d9:cb
        Signature Algorithm: sha256WithRSAEncryption
        Issuer: CN=team40-net
        Validity
            Not Before: Apr 20 22:54:26 2023 GMT
            Not After : Apr  4 22:54:26 2026 GMT
        Subject: CN=team40-client
        Subject Public Key Info:
            Public Key Algorithm: rsaEncryption
                Public-Key: (2048 bit)
                Modulus:
                    00:da:90:67:3a:42:08:60:9a:b9:b2:f9:6d:7f:49:
                    98:1d:14:e1:cc:7b:e4:61:a3:80:ec:0f:a5:dd:ad:
                    9d:22:e5:ee:3f:b5:62:a9:7c:2f:97:9d:ee:a3:8b:
                    08:36:75:bb:45:6a:32:14:5d:9d:c7:35:57:a9:7e:
                    0c:3f:23:54:bc:27:43:f1:5b:54:20:72:ad:a2:13:
                    0d:ed:9b:d0:b3:a8:e1:8c:c0:f7:59:ea:d2:0a:d6:
                    70:00:7d:d9:44:b1:93:02:f5:f6:5b:ba:b1:fc:98:
                    ac:66:8c:9a:cf:da:59:0f:38:77:08:86:8e:7a:5e:
                    c4:6d:4d:c7:d4:ca:1c:f5:f3:7e:11:99:c5:50:a2:
                    85:15:74:e2:9d:83:16:cc:dc:26:e0:c2:ef:0a:04:
                    7d:bf:93:98:6f:82:ff:a3:da:23:93:c6:b6:95:e4:
                    0b:43:4e:46:4a:e1:87:16:05:35:b6:32:9f:f5:2a:
                    21:e8:96:bf:2d:72:a3:8e:9b:b6:3a:38:19:fb:f8:
                    93:34:da:e3:d0:b0:40:32:fa:74:a6:89:74:7e:7b:
                    05:41:d6:b6:19:e4:ce:ab:d6:a1:f2:5f:16:96:94:
                    1a:08:b2:2a:41:12:07:b3:36:3a:13:27:7d:8f:ae:
                    b5:de:9a:35:6c:88:63:e3:7b:f7:3a:29:a9:4d:1f:
                    13:ab
                Exponent: 65537 (0x10001)
        X509v3 extensions:
            X509v3 Basic Constraints: 
                CA:FALSE
            X509v3 Subject Key Identifier: 
                AE:59:C5:ED:5A:62:8B:F1:D1:00:2A:A6:57:3C:0D:E7:1B:49:98:B7
            X509v3 Authority Key Identifier: 
                keyid:F9:5F:D6:D6:56:25:C5:69:ED:B3:A4:FA:4C:FA:82:76:F2:3A:88:40
                DirName:/CN=team40-net
                serial:73:2D:C8:17:05:47:D7:C8:9B:EF:6C:61:98:E9:7A:26:2B:38:8B:82
            X509v3 Extended Key Usage: 
                TLS Web Client Authentication
            X509v3 Key Usage: 
                Digital Signature
    Signature Algorithm: sha256WithRSAEncryption
    Signature Value:
        32:f6:f1:c3:4d:4a:cc:9a:9c:6d:91:e2:ab:4d:bb:9b:d9:f4:
        9e:47:d5:36:a5:1d:f4:20:ed:fb:21:5c:22:9f:f4:67:6c:ea:
        92:1e:d3:57:b8:71:67:8b:44:76:95:a3:f3:e5:87:c1:67:f2:
        6f:d9:c7:30:09:b9:47:51:21:59:9f:2c:20:64:23:b2:62:dd:
        0f:5d:19:46:eb:ae:13:8f:cb:2b:62:66:f7:fe:4e:3c:c7:e1:
        29:f4:93:d9:04:31:1a:d6:cc:9f:b7:02:98:f2:24:1a:90:28:
        15:c0:34:f2:d9:8d:dd:c5:a2:46:6d:2f:27:a5:a7:5a:e2:66:
        eb:bd:cb:80:77:0a:7f:e4:ff:0a:24:1f:ea:8f:36:74:95:f5:
        6b:b2:b6:b6:78:41:e8:96:86:46:d7:b9:b2:0d:fb:69:3c:68:
        66:26:b0:63:27:f2:0b:76:d4:94:f2:25:a7:de:8f:22:12:83:
        f2:17:2c:a5:26:6a:f1:59:87:5f:40:77:0e:de:9f:4f:58:70:
        6f:48:8c:7d:12:ac:a0:dd:59:10:d4:0a:91:5a:48:3e:54:e5:
        52:0b:01:82:71:46:25:c8:41:d4:86:76:97:39:0a:1c:3a:00:
        cb:de:db:b3:5b:3d:c7:97:6c:df:36:4e:25:b2:09:06:bd:53:
        03:ce:c1:5b
-----BEGIN CERTIFICATE-----
MIIDWjCCAkKgAwIBAgIRAP9LHj9c1Svlf4E5R/JK2cswDQYJKoZIhvcNAQELBQAw
FTETMBEGA1UEAwwKdGVhbTQwLW5ldDAeFw0yMzA0MjAyMjU0MjZaFw0yNjA0MDQy
MjU0MjZaMBgxFjAUBgNVBAMMDXRlYW00MC1jbGllbnQwggEiMA0GCSqGSIb3DQEB
AQUAA4IBDwAwggEKAoIBAQDakGc6Qghgmrmy+W1/SZgdFOHMe+Rho4DsD6XdrZ0i
5e4/tWKpfC+Xne6jiwg2dbtFajIUXZ3HNVepfgw/I1S8J0PxW1Qgcq2iEw3tm9Cz
qOGMwPdZ6tIK1nAAfdlEsZMC9fZburH8mKxmjJrP2lkPOHcIho56XsRtTcfUyhz1
834RmcVQooUVdOKdgxbM3Cbgwu8KBH2/k5hvgv+j2iOTxraV5AtDTkZK4YcWBTW2
Mp/1KiHolr8tcqOOm7Y6OBn7+JM02uPQsEAy+nSmiXR+ewVB1rYZ5M6r1qHyXxaW
lBoIsipBEgezNjoTJ32PrrXemjVsiGPje/c6KalNHxOrAgMBAAGjgaEwgZ4wCQYD
VR0TBAIwADAdBgNVHQ4EFgQUrlnF7Vpii/HRACqmVzwN5xtJmLcwUAYDVR0jBEkw
R4AU+V/W1lYlxWnts6T6TPqCdvI6iEChGaQXMBUxEzARBgNVBAMMCnRlYW00MC1u
ZXSCFHMtyBcFR9fIm+9sYZjpeiYrOIuCMBMGA1UdJQQMMAoGCCsGAQUFBwMCMAsG
A1UdDwQEAwIHgDANBgkqhkiG9w0BAQsFAAOCAQEAMvbxw01KzJqcbZHiq027m9n0
nkfVNqUd9CDt+yFcIp/0Z2zqkh7TV7hxZ4tEdpWj8+WHwWfyb9nHMAm5R1EhWZ8s
IGQjsmLdD10ZRuuuE4/LK2Jm9/5OPMfhKfST2QQxGtbMn7cCmPIkGpAoFcA08tmN
3cWiRm0vJ6WnWuJm673LgHcKf+T/CiQf6o82dJX1a7K2tnhB6JaGRte5sg37aTxo
ZiawYyfyC3bUlPIlp96PIhKD8hcspSZq8VmHX0B3Dt6fT1hwb0iMfRKsoN1ZENQK
kVpIPlTlUgsBgnFGJchB1IZ2lzkKHDoAy97bs1s9x5ds3zZOJbIJBr1TA87BWw==
-----END CERTIFICATE-----
