Certificate:
    Data:
        Version: 3 (0x2)
        Serial Number:
            d5:9b:3b:93:b2:7a:48:d0:09:e1:ed:bc:c7:63:bd:c3
        Signature Algorithm: sha256WithRSAEncryption
        Issuer: CN=team31-net
        Validity
            Not Before: Apr 20 00:10:41 2023 GMT
            Not After : Apr  4 00:10:41 2026 GMT
        Subject: CN=team31-server
        Subject Public Key Info:
            Public Key Algorithm: rsaEncryption
                Public-Key: (2048 bit)
                Modulus:
                    00:a5:c2:ea:44:28:90:17:17:aa:54:ce:08:f2:8f:
                    e0:21:58:66:60:09:38:2a:e2:7b:20:5c:cd:6f:96:
                    76:e5:fc:c6:f7:e4:2c:e9:57:25:df:56:5b:df:70:
                    06:0f:78:a3:49:73:4d:c4:62:10:99:24:3b:34:90:
                    47:34:6a:2c:c2:b9:3e:ea:7e:5b:6c:30:13:61:41:
                    ad:02:f2:fe:d3:7e:8e:6e:bb:fe:22:08:fe:d5:4f:
                    96:b3:fb:43:13:83:c2:db:13:f1:6f:a3:9c:cc:bb:
                    27:e1:78:22:12:0b:ef:fd:73:bb:13:0d:14:a0:b9:
                    c2:4e:5d:be:78:60:10:61:d1:d7:8f:a2:4f:8f:ae:
                    72:76:fe:70:b9:fb:9d:ef:7a:a4:3c:9a:73:60:e8:
                    fc:ac:be:5c:3a:58:14:a9:0a:5a:01:60:d4:24:a9:
                    e9:f8:04:d9:85:6f:ae:d4:7b:3c:a2:a5:bb:51:2f:
                    bd:3c:cc:73:b9:30:d8:82:c5:bf:88:dd:98:2f:6b:
                    4c:38:c7:0a:78:9f:91:6b:3c:17:85:0e:46:a6:c2:
                    e2:c7:cc:fc:6b:57:e2:fc:fc:ae:86:c4:5f:3a:3c:
                    41:7d:18:94:e4:7b:cb:d9:3e:84:9d:1d:ce:19:70:
                    c5:8f:7f:7a:de:03:85:0b:ac:73:5e:ce:10:87:70:
                    b7:41
                Exponent: 65537 (0x10001)
        X509v3 extensions:
            X509v3 Basic Constraints: 
                CA:FALSE
            X509v3 Subject Key Identifier: 
                21:F5:DC:B5:43:AF:8E:4A:50:57:E2:0A:8A:B2:A2:4C:FC:B3:8A:F1
            X509v3 Authority Key Identifier: 
                keyid:BD:69:6D:52:6E:8D:40:36:87:5B:D4:54:7B:35:1A:50:78:BF:74:91
                DirName:/CN=team31-net
                serial:60:06:76:9B:04:27:E1:4C:C4:89:C3:43:9B:A7:41:A3:7D:DE:EE:F9
            X509v3 Extended Key Usage: 
                TLS Web Server Authentication
            X509v3 Key Usage: 
                Digital Signature, Key Encipherment
            X509v3 Subject Alternative Name: 
                DNS:team31-server
    Signature Algorithm: sha256WithRSAEncryption
    Signature Value:
        34:68:e3:f6:b0:7b:87:0d:7e:a0:62:3c:85:21:e0:8f:1b:1f:
        59:07:dc:d4:d8:86:37:a6:2b:76:0f:5f:9a:53:7b:7e:c6:e4:
        5f:13:7f:eb:e5:5e:c6:58:88:22:fc:97:e6:36:75:35:1c:b5:
        54:e8:43:2c:90:62:47:66:26:c9:08:9b:65:b0:1b:b9:ad:f8:
        7b:20:93:55:3f:49:13:e4:da:54:75:c3:ee:58:d1:1d:c8:11:
        e0:40:93:73:59:ad:57:18:de:cf:8c:07:06:5d:0b:8d:90:78:
        cc:17:13:f6:00:eb:20:f3:8e:90:00:52:7a:fc:30:28:7c:96:
        83:be:e9:76:d9:b1:1d:39:f0:40:7b:64:1b:62:f3:49:b2:dc:
        0f:c8:8f:df:07:8f:20:ba:7c:af:c3:ef:8b:0a:76:13:41:6a:
        88:86:58:e3:99:9b:90:ef:9d:3e:5b:b6:f3:48:4f:9f:75:7e:
        8c:65:b5:39:d9:8e:98:ec:25:43:bd:3a:cf:bf:2c:14:e7:d0:
        dd:f2:80:61:27:70:fb:53:aa:5d:06:26:b7:8e:1c:d8:53:87:
        53:af:79:fa:ec:0e:06:2b:3d:6f:94:98:5a:9d:3c:45:c5:d2:
        11:27:a5:87:53:bd:91:f8:16:7d:58:59:67:03:2c:8e:3c:97:
        86:b7:9f:82
-----BEGIN CERTIFICATE-----
MIIDdDCCAlygAwIBAgIRANWbO5OyekjQCeHtvMdjvcMwDQYJKoZIhvcNAQELBQAw
FTETMBEGA1UEAwwKdGVhbTMxLW5ldDAeFw0yMzA0MjAwMDEwNDFaFw0yNjA0MDQw
MDEwNDFaMBgxFjAUBgNVBAMMDXRlYW0zMS1zZXJ2ZXIwggEiMA0GCSqGSIb3DQEB
AQUAA4IBDwAwggEKAoIBAQClwupEKJAXF6pUzgjyj+AhWGZgCTgq4nsgXM1vlnbl
/Mb35CzpVyXfVlvfcAYPeKNJc03EYhCZJDs0kEc0aizCuT7qfltsMBNhQa0C8v7T
fo5uu/4iCP7VT5az+0MTg8LbE/Fvo5zMuyfheCISC+/9c7sTDRSgucJOXb54YBBh
0dePok+PrnJ2/nC5+53veqQ8mnNg6Pysvlw6WBSpCloBYNQkqen4BNmFb67Uezyi
pbtRL708zHO5MNiCxb+I3Zgva0w4xwp4n5FrPBeFDkamwuLHzPxrV+L8/K6GxF86
PEF9GJTke8vZPoSdHc4ZcMWPf3reA4ULrHNezhCHcLdBAgMBAAGjgbswgbgwCQYD
VR0TBAIwADAdBgNVHQ4EFgQUIfXctUOvjkpQV+IKirKiTPyzivEwUAYDVR0jBEkw
R4AUvWltUm6NQDaHW9RUezUaUHi/dJGhGaQXMBUxEzARBgNVBAMMCnRlYW0zMS1u
ZXSCFGAGdpsEJ+FMxInDQ5unQaN93u75MBMGA1UdJQQMMAoGCCsGAQUFBwMBMAsG
A1UdDwQEAwIFoDAYBgNVHREEETAPgg10ZWFtMzEtc2VydmVyMA0GCSqGSIb3DQEB
CwUAA4IBAQA0aOP2sHuHDX6gYjyFIeCPGx9ZB9zU2IY3pit2D1+aU3t+xuRfE3/r
5V7GWIgi/JfmNnU1HLVU6EMskGJHZibJCJtlsBu5rfh7IJNVP0kT5NpUdcPuWNEd
yBHgQJNzWa1XGN7PjAcGXQuNkHjMFxP2AOsg846QAFJ6/DAofJaDvul22bEdOfBA
e2QbYvNJstwPyI/fB48gunyvw++LCnYTQWqIhljjmZuQ750+W7bzSE+fdX6MZbU5
2Y6Y7CVDvTrPvywU59Dd8oBhJ3D7U6pdBia3jhzYU4dTr3n67A4GKz1vlJhanTxF
xdIRJ6WHU72R+BZ9WFlnAyyOPJeGt5+C
-----END CERTIFICATE-----
