Certificate:
    Data:
        Version: 3 (0x2)
        Serial Number:
            21:7f:ee:62:d4:93:dc:ae:71:e3:b8:28:ae:f2:d0:18
        Signature Algorithm: sha256WithRSAEncryption
        Issuer: CN=team41-net
        Validity
            Not Before: Apr 20 00:10:54 2023 GMT
            Not After : Apr  4 00:10:54 2026 GMT
        Subject: CN=team41-client
        Subject Public Key Info:
            Public Key Algorithm: rsaEncryption
                Public-Key: (2048 bit)
                Modulus:
                    00:a0:2b:29:0b:73:64:12:ad:5e:b9:e2:45:35:b0:
                    fb:aa:6a:b8:ed:7d:de:49:e3:0b:ca:5b:bf:e9:36:
                    24:b8:13:22:9c:9b:03:dc:12:59:55:26:0a:54:8f:
                    db:58:38:d0:98:c8:ed:cf:93:24:2c:e7:98:8e:17:
                    ef:9f:e9:b3:41:6e:72:06:6d:d1:f0:15:0a:f7:8e:
                    37:8a:b8:0f:11:67:3a:9c:0a:c9:37:67:02:98:7c:
                    86:9f:ad:a0:99:e6:9d:9c:d9:b1:9f:d9:1a:06:49:
                    8c:5b:5c:87:8b:be:97:98:30:df:e1:bf:5c:70:60:
                    a0:b0:92:d0:0d:8d:13:2e:1c:6c:ef:21:08:15:b4:
                    eb:97:d7:67:08:7f:63:01:20:bc:fe:b3:0c:ec:ef:
                    11:31:45:af:67:b0:45:db:f6:36:74:ce:69:d1:ae:
                    b1:c8:71:18:41:a2:9d:7a:5d:d9:a1:98:f3:dd:cc:
                    ee:0f:c3:72:d1:fa:cb:09:9e:ce:c0:91:80:27:0a:
                    64:47:37:4d:9f:8d:63:a3:64:72:5c:44:30:3e:ec:
                    83:47:34:a5:21:3d:96:31:0f:d5:91:99:f6:1c:cb:
                    c3:71:a2:49:a3:80:df:39:4e:fc:6b:c2:4e:81:e4:
                    63:f8:78:6c:80:a1:4a:2a:bc:8e:ee:ee:a5:36:63:
                    ac:7f
                Exponent: 65537 (0x10001)
        X509v3 extensions:
            X509v3 Basic Constraints: 
                CA:FALSE
            X509v3 Subject Key Identifier: 
                AA:EB:94:98:CA:EE:4F:65:6F:D8:27:34:D4:F4:6F:94:80:7E:AE:9C
            X509v3 Authority Key Identifier: 
                keyid:6A:24:1C:60:9E:8E:B3:C6:BA:D7:B5:F2:CC:9E:C5:81:9E:3B:43:76
                DirName:/CN=team41-net
                serial:61:CA:1A:91:6D:A3:69:0E:C1:2B:59:26:B7:64:6D:B4:6F:AA:8E:D5
            X509v3 Extended Key Usage: 
                TLS Web Client Authentication
            X509v3 Key Usage: 
                Digital Signature
    Signature Algorithm: sha256WithRSAEncryption
    Signature Value:
        89:04:9c:e5:55:2e:d2:a8:52:27:77:0c:df:d8:aa:e7:8e:54:
        02:ac:c6:47:96:05:23:5f:07:3f:d9:ae:d5:53:f2:ba:81:aa:
        32:f3:b7:40:41:9a:3a:fe:e5:07:9d:8e:f9:af:5e:27:4d:be:
        06:54:65:1c:bd:51:de:2d:c4:cf:98:57:eb:36:51:3b:9d:3f:
        ba:50:22:39:db:41:d6:8f:ae:bb:0f:2b:f5:ed:8e:86:a2:df:
        89:8a:d5:8f:1f:03:d0:c4:14:7f:7f:ea:db:23:5f:ba:09:de:
        80:a3:e2:6b:76:be:f4:54:38:e9:00:68:39:f6:f5:6d:8f:57:
        85:87:d9:13:b7:89:20:ea:74:b8:5b:85:98:47:62:27:c6:50:
        2b:a3:e4:70:7d:d1:54:1a:aa:17:c8:30:02:c1:c0:08:3e:99:
        3c:64:2d:29:e7:0d:78:0e:ca:ec:1a:7d:bf:89:7c:ac:61:62:
        83:37:a4:09:20:cf:df:79:7c:74:4f:30:11:be:35:6d:9f:21:
        04:d9:d8:96:39:0f:ed:5d:9a:60:2c:f0:cb:7c:15:e5:1c:94:
        86:5b:95:4a:c9:5a:1a:26:55:fe:bf:13:e4:d1:a0:d9:c2:4b:
        c1:15:27:94:b3:29:4b:93:ec:74:68:2d:a7:f7:d0:61:76:bf:
        04:0f:f7:7d
-----BEGIN CERTIFICATE-----
MIIDWTCCAkGgAwIBAgIQIX/uYtST3K5x47gorvLQGDANBgkqhkiG9w0BAQsFADAV
MRMwEQYDVQQDDAp0ZWFtNDEtbmV0MB4XDTIzMDQyMDAwMTA1NFoXDTI2MDQwNDAw
MTA1NFowGDEWMBQGA1UEAwwNdGVhbTQxLWNsaWVudDCCASIwDQYJKoZIhvcNAQEB
BQADggEPADCCAQoCggEBAKArKQtzZBKtXrniRTWw+6pquO193knjC8pbv+k2JLgT
IpybA9wSWVUmClSP21g40JjI7c+TJCznmI4X75/ps0FucgZt0fAVCveON4q4DxFn
OpwKyTdnAph8hp+toJnmnZzZsZ/ZGgZJjFtch4u+l5gw3+G/XHBgoLCS0A2NEy4c
bO8hCBW065fXZwh/YwEgvP6zDOzvETFFr2ewRdv2NnTOadGuschxGEGinXpd2aGY
893M7g/DctH6ywmezsCRgCcKZEc3TZ+NY6NkclxEMD7sg0c0pSE9ljEP1ZGZ9hzL
w3GiSaOA3zlO/GvCToHkY/h4bIChSiq8ju7upTZjrH8CAwEAAaOBoTCBnjAJBgNV
HRMEAjAAMB0GA1UdDgQWBBSq65SYyu5PZW/YJzTU9G+UgH6unDBQBgNVHSMESTBH
gBRqJBxgno6zxrrXtfLMnsWBnjtDdqEZpBcwFTETMBEGA1UEAwwKdGVhbTQxLW5l
dIIUYcoakW2jaQ7BK1kmt2RttG+qjtUwEwYDVR0lBAwwCgYIKwYBBQUHAwIwCwYD
VR0PBAQDAgeAMA0GCSqGSIb3DQEBCwUAA4IBAQCJBJzlVS7SqFIndwzf2KrnjlQC
rMZHlgUjXwc/2a7VU/K6gaoy87dAQZo6/uUHnY75r14nTb4GVGUcvVHeLcTPmFfr
NlE7nT+6UCI520HWj667Dyv17Y6Got+JitWPHwPQxBR/f+rbI1+6Cd6Ao+Jrdr70
VDjpAGg59vVtj1eFh9kTt4kg6nS4W4WYR2InxlAro+RwfdFUGqoXyDACwcAIPpk8
ZC0p5w14DsrsGn2/iXysYWKDN6QJIM/feXx0TzARvjVtnyEE2diWOQ/tXZpgLPDL
fBXlHJSGW5VKyVoaJlX+vxPk0aDZwkvBFSeUsylLk+x0aC2n99Bhdr8ED/d9
-----END CERTIFICATE-----
