Certificate:
    Data:
        Version: 3 (0x2)
        Serial Number:
            d6:f0:39:dc:70:6e:3c:11:e2:d3:ab:d6:93:10:ed:80
        Signature Algorithm: sha256WithRSAEncryption
        Issuer: CN=team41-net
        Validity
            Not Before: Apr 20 00:10:55 2023 GMT
            Not After : Apr  4 00:10:55 2026 GMT
        Subject: CN=team41-server
        Subject Public Key Info:
            Public Key Algorithm: rsaEncryption
                Public-Key: (2048 bit)
                Modulus:
                    00:96:ee:37:70:84:f0:f2:51:23:bd:35:69:ed:37:
                    9b:d9:52:3d:ed:ba:26:42:26:b3:89:a4:cc:e1:f2:
                    69:c1:22:52:ed:8c:be:f2:af:e7:d3:24:53:18:99:
                    f2:37:fb:a8:54:44:91:e8:12:3e:ff:4c:19:27:dc:
                    e1:54:f1:1e:31:12:4f:6c:cb:06:b4:88:6f:73:cb:
                    2c:70:61:3b:f1:41:bc:30:31:64:bd:fa:e7:c7:fc:
                    f4:1c:86:ec:f2:a8:60:2f:60:06:9a:bc:f2:9d:a0:
                    ce:ef:57:55:1f:ba:9e:c5:04:45:ef:74:43:94:e2:
                    7f:6f:0a:b5:77:11:b6:fa:c8:d4:f2:b2:8b:0b:ef:
                    58:67:4b:e5:ae:b4:78:3f:71:cf:2f:34:56:68:fc:
                    77:2a:26:82:df:9c:29:07:0d:4d:ca:f9:73:48:da:
                    87:81:f0:45:28:c6:ff:24:c4:10:7b:76:53:2a:3f:
                    be:39:90:c6:81:66:8b:81:2a:8f:4b:68:37:1a:4f:
                    49:e6:cb:15:0f:55:79:c7:f5:53:f7:71:ed:6a:e7:
                    7f:aa:d9:32:e0:29:ba:cd:d8:fb:7d:e7:44:78:91:
                    3e:9e:cb:21:a1:a0:1e:be:05:3b:3b:20:cb:97:8f:
                    c5:e3:a5:1a:c5:38:e1:c4:e0:de:90:e3:f0:d9:0a:
                    49:2d
                Exponent: 65537 (0x10001)
        X509v3 extensions:
            X509v3 Basic Constraints: 
                CA:FALSE
            X509v3 Subject Key Identifier: 
                94:10:AF:9F:25:B7:55:54:AE:26:33:60:B4:A3:9F:C2:B7:27:92:5E
            X509v3 Authority Key Identifier: 
                keyid:6A:24:1C:60:9E:8E:B3:C6:BA:D7:B5:F2:CC:9E:C5:81:9E:3B:43:76
                DirName:/CN=team41-net
                serial:61:CA:1A:91:6D:A3:69:0E:C1:2B:59:26:B7:64:6D:B4:6F:AA:8E:D5
            X509v3 Extended Key Usage: 
                TLS Web Server Authentication
            X509v3 Key Usage: 
                Digital Signature, Key Encipherment
            X509v3 Subject Alternative Name: 
                DNS:team41-server
    Signature Algorithm: sha256WithRSAEncryption
    Signature Value:
        4f:70:68:0b:4f:0f:f2:49:9f:3b:55:d5:e9:19:1a:8f:e5:6a:
        32:46:e9:32:d1:43:e1:04:92:79:34:b6:e4:e0:8c:04:a7:d2:
        79:36:e8:56:da:e6:ca:44:55:df:7f:8e:ac:74:a9:db:e6:60:
        9b:65:a5:de:8a:41:1a:ae:c5:f5:30:2c:eb:80:ac:f5:fc:34:
        b2:fe:e8:ed:cb:96:5b:65:aa:af:cf:f3:9c:8e:b7:db:95:1d:
        88:e1:78:f4:35:a2:0f:7a:f0:c4:c7:a1:e8:c3:cd:da:47:aa:
        87:c0:fc:a0:83:d7:31:80:e1:ec:93:dd:de:a4:d8:4a:b2:3b:
        b3:45:41:54:0e:0c:ba:85:8e:6f:41:eb:ef:42:6b:20:d8:63:
        d8:9a:f2:6f:63:20:37:6e:65:11:81:b3:1b:17:7f:35:9d:dd:
        3f:73:c9:52:35:2b:68:44:4a:10:b4:16:a5:d2:71:a8:40:45:
        97:94:fc:bc:0b:b7:d4:c5:6e:6f:dd:40:87:22:e4:10:de:d0:
        c7:df:57:28:5d:db:ca:12:34:5e:4d:d2:38:cb:a9:f3:21:70:
        6f:b1:9f:3d:47:ba:5d:42:79:4a:ff:e7:f9:1e:f1:61:cd:8b:
        95:74:71:ef:bf:37:0d:ea:37:d3:8e:bd:63:38:02:a0:30:3d:
        cf:a7:cb:b0
-----BEGIN CERTIFICATE-----
MIIDdDCCAlygAwIBAgIRANbwOdxwbjwR4tOr1pMQ7YAwDQYJKoZIhvcNAQELBQAw
FTETMBEGA1UEAwwKdGVhbTQxLW5ldDAeFw0yMzA0MjAwMDEwNTVaFw0yNjA0MDQw
MDEwNTVaMBgxFjAUBgNVBAMMDXRlYW00MS1zZXJ2ZXIwggEiMA0GCSqGSIb3DQEB
AQUAA4IBDwAwggEKAoIBAQCW7jdwhPDyUSO9NWntN5vZUj3tuiZCJrOJpMzh8mnB
IlLtjL7yr+fTJFMYmfI3+6hURJHoEj7/TBkn3OFU8R4xEk9sywa0iG9zyyxwYTvx
QbwwMWS9+ufH/PQchuzyqGAvYAaavPKdoM7vV1Ufup7FBEXvdEOU4n9vCrV3Ebb6
yNTysosL71hnS+WutHg/cc8vNFZo/HcqJoLfnCkHDU3K+XNI2oeB8EUoxv8kxBB7
dlMqP745kMaBZouBKo9LaDcaT0nmyxUPVXnH9VP3ce1q53+q2TLgKbrN2Pt950R4
kT6eyyGhoB6+BTs7IMuXj8XjpRrFOOHE4N6Q4/DZCkktAgMBAAGjgbswgbgwCQYD
VR0TBAIwADAdBgNVHQ4EFgQUlBCvnyW3VVSuJjNgtKOfwrcnkl4wUAYDVR0jBEkw
R4AUaiQcYJ6Os8a617XyzJ7FgZ47Q3ahGaQXMBUxEzARBgNVBAMMCnRlYW00MS1u
ZXSCFGHKGpFto2kOwStZJrdkbbRvqo7VMBMGA1UdJQQMMAoGCCsGAQUFBwMBMAsG
A1UdDwQEAwIFoDAYBgNVHREEETAPgg10ZWFtNDEtc2VydmVyMA0GCSqGSIb3DQEB
CwUAA4IBAQBPcGgLTw/ySZ87VdXpGRqP5WoyRuky0UPhBJJ5NLbk4IwEp9J5NuhW
2ubKRFXff46sdKnb5mCbZaXeikEarsX1MCzrgKz1/DSy/ujty5ZbZaqvz/Ocjrfb
lR2I4Xj0NaIPevDEx6How83aR6qHwPygg9cxgOHsk93epNhKsjuzRUFUDgy6hY5v
QevvQmsg2GPYmvJvYyA3bmURgbMbF381nd0/c8lSNStoREoQtBal0nGoQEWXlPy8
C7fUxW5v3UCHIuQQ3tDH31coXdvKEjReTdI4y6nzIXBvsZ89R7pdQnlK/+f5HvFh
zYuVdHHvvzcN6jfTjr1jOAKgMD3Pp8uw
-----END CERTIFICATE-----
