Certificate:
    Data:
        Version: 3 (0x2)
        Serial Number:
            a2:d1:6a:4c:46:2a:9d:80:2b:b3:52:01:1c:4b:1d:c5
        Signature Algorithm: sha256WithRSAEncryption
        Issuer: CN=team19-net
        Validity
            Not Before: Apr 20 00:10:23 2023 GMT
            Not After : Apr  4 00:10:23 2026 GMT
        Subject: CN=team19-server
        Subject Public Key Info:
            Public Key Algorithm: rsaEncryption
                Public-Key: (2048 bit)
                Modulus:
                    00:96:b4:ad:34:27:c2:72:90:5c:79:58:f3:66:f9:
                    95:42:24:8b:05:e0:82:15:7b:08:0a:ed:a3:90:9d:
                    95:4a:a0:17:ca:fb:a6:c7:04:11:be:9d:40:f6:cd:
                    7d:1f:7d:28:90:99:9b:3a:30:a4:c2:f7:00:32:13:
                    45:72:8b:b7:7f:fd:47:5c:7d:c9:0d:07:21:11:80:
                    62:2a:76:b8:25:2b:11:0f:1c:e1:f2:e6:8b:a5:a1:
                    1c:83:e9:1e:1f:6a:b1:72:36:74:eb:4f:2d:32:63:
                    1b:77:d2:1c:09:32:1f:f8:6c:7c:23:7d:88:da:a0:
                    f9:cd:34:eb:7e:cc:28:26:75:f7:00:d8:99:d8:f6:
                    f2:96:51:ff:09:fc:8c:ef:31:69:80:02:e0:11:be:
                    c7:ea:c5:86:f2:cc:ce:a1:52:52:79:c2:9c:9e:b6:
                    01:c7:9a:0e:8f:ff:55:78:e6:cd:04:f4:c1:5e:85:
                    72:d8:6d:32:e0:fc:71:02:3e:d0:65:d1:c3:cf:24:
                    c1:bb:33:0e:b0:d8:2d:be:d3:18:46:50:02:d2:ca:
                    ad:ad:7d:1d:35:ec:58:fe:37:38:d2:47:c4:2e:ef:
                    59:1c:0e:79:4e:af:df:ce:54:76:0f:56:37:2f:c6:
                    2b:5a:39:b3:88:a7:0f:16:bd:d5:ac:6b:a1:33:4c:
                    ff:9b
                Exponent: 65537 (0x10001)
        X509v3 extensions:
            X509v3 Basic Constraints: 
                CA:FALSE
            X509v3 Subject Key Identifier: 
                F1:56:35:E0:64:AE:67:66:47:B3:C5:7C:88:96:DD:50:1E:06:04:96
            X509v3 Authority Key Identifier: 
                keyid:C6:1A:A1:DD:23:DD:3B:1B:CC:E1:85:C9:36:98:ED:F5:AE:E3:01:7C
                DirName:/CN=team19-net
                serial:15:2D:42:AF:F0:A4:A6:85:D2:B8:05:3A:7A:5E:FE:B6:3C:61:D6:D4
            X509v3 Extended Key Usage: 
                TLS Web Server Authentication
            X509v3 Key Usage: 
                Digital Signature, Key Encipherment
            X509v3 Subject Alternative Name: 
                DNS:team19-server
    Signature Algorithm: sha256WithRSAEncryption
    Signature Value:
        5a:c0:b2:29:05:5b:3f:ad:6f:d9:c9:c0:fe:df:95:12:be:c9:
        19:d6:09:6a:f9:f1:fa:b7:7a:e7:9f:fe:f1:a1:a6:91:09:1c:
        ee:f3:27:b3:5e:33:cc:03:b6:f1:af:8a:26:1e:94:8d:08:ee:
        43:ab:fb:bf:96:56:4c:3d:1c:46:c1:c5:c0:ac:42:90:8a:8c:
        b1:11:8b:37:12:ea:84:09:b2:33:5f:f9:56:f6:fd:23:c3:ed:
        e7:06:bf:49:98:65:37:0f:26:68:23:de:07:96:70:fe:a8:c4:
        e6:d7:b8:f6:e8:9f:bc:42:57:01:38:98:93:a1:ef:fe:c5:1c:
        67:eb:3d:50:e2:c4:24:be:a7:9b:74:c0:81:ed:49:26:ea:01:
        6e:d3:b6:e4:8e:1b:0f:f6:cb:d2:5b:40:8c:2d:44:b4:80:6f:
        07:17:0b:53:ee:2e:5a:e6:8f:12:c9:3f:ca:52:d0:22:f5:ca:
        23:ed:ed:9b:42:79:e4:c2:7e:f3:67:22:ef:8a:0c:a0:88:da:
        44:44:fb:4c:85:66:63:d6:36:03:6d:f4:bc:79:55:a7:a4:9a:
        f3:8e:82:52:eb:83:4c:1e:63:ba:e1:48:c7:73:9a:01:af:69:
        c4:02:66:2d:17:36:6e:60:47:45:9a:46:fc:09:02:59:fc:32:
        fd:ad:09:a5
-----BEGIN CERTIFICATE-----
MIIDdDCCAlygAwIBAgIRAKLRakxGKp2AK7NSARxLHcUwDQYJKoZIhvcNAQELBQAw
FTETMBEGA1UEAwwKdGVhbTE5LW5ldDAeFw0yMzA0MjAwMDEwMjNaFw0yNjA0MDQw
MDEwMjNaMBgxFjAUBgNVBAMMDXRlYW0xOS1zZXJ2ZXIwggEiMA0GCSqGSIb3DQEB
AQUAA4IBDwAwggEKAoIBAQCWtK00J8JykFx5WPNm+ZVCJIsF4IIVewgK7aOQnZVK
oBfK+6bHBBG+nUD2zX0ffSiQmZs6MKTC9wAyE0Vyi7d//UdcfckNByERgGIqdrgl
KxEPHOHy5ouloRyD6R4farFyNnTrTy0yYxt30hwJMh/4bHwjfYjaoPnNNOt+zCgm
dfcA2JnY9vKWUf8J/IzvMWmAAuARvsfqxYbyzM6hUlJ5wpyetgHHmg6P/1V45s0E
9MFehXLYbTLg/HECPtBl0cPPJMG7Mw6w2C2+0xhGUALSyq2tfR017Fj+NzjSR8Qu
71kcDnlOr9/OVHYPVjcvxitaObOIpw8WvdWsa6EzTP+bAgMBAAGjgbswgbgwCQYD
VR0TBAIwADAdBgNVHQ4EFgQU8VY14GSuZ2ZHs8V8iJbdUB4GBJYwUAYDVR0jBEkw
R4AUxhqh3SPdOxvM4YXJNpjt9a7jAXyhGaQXMBUxEzARBgNVBAMMCnRlYW0xOS1u
ZXSCFBUtQq/wpKaF0rgFOnpe/rY8YdbUMBMGA1UdJQQMMAoGCCsGAQUFBwMBMAsG
A1UdDwQEAwIFoDAYBgNVHREEETAPgg10ZWFtMTktc2VydmVyMA0GCSqGSIb3DQEB
CwUAA4IBAQBawLIpBVs/rW/ZycD+35USvskZ1glq+fH6t3rnn/7xoaaRCRzu8yez
XjPMA7bxr4omHpSNCO5Dq/u/llZMPRxGwcXArEKQioyxEYs3EuqECbIzX/lW9v0j
w+3nBr9JmGU3DyZoI94HlnD+qMTm17j26J+8QlcBOJiToe/+xRxn6z1Q4sQkvqeb
dMCB7Ukm6gFu07bkjhsP9svSW0CMLUS0gG8HFwtT7i5a5o8SyT/KUtAi9coj7e2b
Qnnkwn7zZyLvigygiNpERPtMhWZj1jYDbfS8eVWnpJrzjoJS64NMHmO64UjHc5oB
r2nEAmYtFzZuYEdFmkb8CQJZ/DL9rQml
-----END CERTIFICATE-----
