Certificate:
    Data:
        Version: 3 (0x2)
        Serial Number:
            1a:59:a5:cd:e0:ff:f2:b5:ae:1c:ff:df:28:30:93:cb
        Signature Algorithm: sha256WithRSAEncryption
        Issuer: CN=team56-net
        Validity
            Not Before: Apr 20 22:54:55 2023 GMT
            Not After : Apr  4 22:54:55 2026 GMT
        Subject: CN=team56-server
        Subject Public Key Info:
            Public Key Algorithm: rsaEncryption
                Public-Key: (2048 bit)
                Modulus:
                    00:96:c5:69:2b:e3:41:17:42:2a:0f:dd:1f:09:dd:
                    7e:d0:97:af:b5:5e:0b:88:83:9e:d9:08:32:82:f6:
                    1b:9b:f8:86:c6:ab:f5:6a:48:47:3e:1e:d8:6e:36:
                    c5:9c:b6:0a:04:80:f1:10:6c:47:32:81:b7:b0:d4:
                    8a:1c:42:13:62:19:d5:7a:d6:28:88:fd:6c:2a:c8:
                    5d:90:69:fb:b1:96:eb:c1:d9:35:af:06:c8:fa:12:
                    3f:2a:e8:2e:1c:ce:5c:41:ca:e1:ad:e5:12:b9:4b:
                    c8:6f:d1:52:9b:81:1a:8b:1a:04:6a:c9:2e:4f:2b:
                    c6:2b:30:88:5a:7f:17:ff:e4:40:6c:9f:6f:db:62:
                    30:16:46:36:7e:bb:fa:76:cf:a3:6e:72:07:95:85:
                    a6:3f:44:f3:c9:98:5d:e1:6e:10:bb:68:5c:39:3a:
                    ba:20:30:ee:66:98:48:8c:0f:27:9d:90:51:96:2a:
                    b8:f6:55:29:53:48:a3:6a:b4:52:cd:8f:c3:22:0a:
                    8b:97:5a:6c:92:ef:fb:81:b6:2d:94:2a:e3:a5:76:
                    00:29:e6:5e:2c:5d:40:93:69:64:41:23:8c:d0:5d:
                    28:52:be:a1:90:ff:fb:30:f5:66:77:21:06:c8:0b:
                    31:d5:b6:b2:14:92:bc:ff:ac:21:63:b8:3f:1d:a6:
                    4f:7f
                Exponent: 65537 (0x10001)
        X509v3 extensions:
            X509v3 Basic Constraints: 
                CA:FALSE
            X509v3 Subject Key Identifier: 
                1E:F1:B4:8F:D1:FA:46:7F:EA:4B:40:40:E1:8B:AF:0C:D3:73:CB:90
            X509v3 Authority Key Identifier: 
                keyid:40:E1:95:75:0A:C1:50:CF:1D:84:A8:A1:5D:67:81:2B:F2:B5:4F:11
                DirName:/CN=team56-net
                serial:11:72:32:7A:96:91:37:87:94:14:52:38:7A:13:DB:EE:70:FB:29:ED
            X509v3 Extended Key Usage: 
                TLS Web Server Authentication
            X509v3 Key Usage: 
                Digital Signature, Key Encipherment
            X509v3 Subject Alternative Name: 
                DNS:team56-server
    Signature Algorithm: sha256WithRSAEncryption
    Signature Value:
        82:9f:05:1a:dd:84:69:2e:70:99:ea:78:d0:65:f3:1c:de:88:
        40:24:8c:20:b7:4f:ff:a0:ff:b6:1f:46:01:db:e9:20:86:41:
        56:83:31:f0:44:21:7a:f9:ef:ee:3d:1e:9a:6d:e1:84:2b:aa:
        05:2b:4e:c7:b5:c5:2f:43:95:c1:dd:fd:66:5f:35:b9:6d:3a:
        19:30:26:cd:bf:81:5e:40:f0:23:4c:db:ad:d9:cc:c7:44:b2:
        37:3c:cf:2d:7f:00:f0:aa:0d:d4:2f:be:18:11:dc:f1:d2:a9:
        df:4b:6e:44:a0:2b:5e:91:87:98:62:97:c4:73:b8:10:dd:c7:
        be:2b:55:37:73:a3:7a:bf:a0:3e:c1:64:e8:b5:c4:2a:22:b3:
        6d:0f:d0:dc:dc:5d:a8:00:c1:16:35:6b:4c:88:77:4f:56:62:
        1a:69:23:8f:8d:73:f8:2e:34:2a:19:1d:58:6f:19:c1:a6:76:
        96:24:30:d0:4d:80:b8:2c:dd:f5:55:43:b2:59:11:92:3e:97:
        12:cc:ec:4e:94:b8:0a:fc:e9:b8:d4:28:03:dc:6b:db:e9:55:
        99:90:ea:1c:3b:7a:fe:06:44:13:b6:81:a4:d9:f0:3d:73:a9:
        42:ed:e5:8d:36:c4:93:25:82:37:f9:f4:81:56:19:e5:ed:60:
        cb:28:05:b7
-----BEGIN CERTIFICATE-----
MIIDczCCAlugAwIBAgIQGlmlzeD/8rWuHP/fKDCTyzANBgkqhkiG9w0BAQsFADAV
MRMwEQYDVQQDDAp0ZWFtNTYtbmV0MB4XDTIzMDQyMDIyNTQ1NVoXDTI2MDQwNDIy
NTQ1NVowGDEWMBQGA1UEAwwNdGVhbTU2LXNlcnZlcjCCASIwDQYJKoZIhvcNAQEB
BQADggEPADCCAQoCggEBAJbFaSvjQRdCKg/dHwndftCXr7VeC4iDntkIMoL2G5v4
hsar9WpIRz4e2G42xZy2CgSA8RBsRzKBt7DUihxCE2IZ1XrWKIj9bCrIXZBp+7GW
68HZNa8GyPoSPyroLhzOXEHK4a3lErlLyG/RUpuBGosaBGrJLk8rxiswiFp/F//k
QGyfb9tiMBZGNn67+nbPo25yB5WFpj9E88mYXeFuELtoXDk6uiAw7maYSIwPJ52Q
UZYquPZVKVNIo2q0Us2PwyIKi5dabJLv+4G2LZQq46V2ACnmXixdQJNpZEEjjNBd
KFK+oZD/+zD1ZnchBsgLMdW2shSSvP+sIWO4Px2mT38CAwEAAaOBuzCBuDAJBgNV
HRMEAjAAMB0GA1UdDgQWBBQe8bSP0fpGf+pLQEDhi68M03PLkDBQBgNVHSMESTBH
gBRA4ZV1CsFQzx2EqKFdZ4Er8rVPEaEZpBcwFTETMBEGA1UEAwwKdGVhbTU2LW5l
dIIUEXIyepaRN4eUFFI4ehPb7nD7Ke0wEwYDVR0lBAwwCgYIKwYBBQUHAwEwCwYD
VR0PBAQDAgWgMBgGA1UdEQQRMA+CDXRlYW01Ni1zZXJ2ZXIwDQYJKoZIhvcNAQEL
BQADggEBAIKfBRrdhGkucJnqeNBl8xzeiEAkjCC3T/+g/7YfRgHb6SCGQVaDMfBE
IXr57+49Hppt4YQrqgUrTse1xS9DlcHd/WZfNbltOhkwJs2/gV5A8CNM263ZzMdE
sjc8zy1/APCqDdQvvhgR3PHSqd9LbkSgK16Rh5hil8RzuBDdx74rVTdzo3q/oD7B
ZOi1xCois20P0NzcXagAwRY1a0yId09WYhppI4+Nc/guNCoZHVhvGcGmdpYkMNBN
gLgs3fVVQ7JZEZI+lxLM7E6UuAr86bjUKAPca9vpVZmQ6hw7ev4GRBO2gaTZ8D1z
qULt5Y02xJMlgjf59IFWGeXtYMsoBbc=
-----END CERTIFICATE-----
