Certificate:
    Data:
        Version: 3 (0x2)
        Serial Number:
            6c:54:9a:d1:86:16:aa:4f:6a:72:99:8d:8f:e3:b9:d2
        Signature Algorithm: sha256WithRSAEncryption
        Issuer: CN=team56-net
        Validity
            Not Before: Apr 20 22:54:54 2023 GMT
            Not After : Apr  4 22:54:54 2026 GMT
        Subject: CN=team56-client
        Subject Public Key Info:
            Public Key Algorithm: rsaEncryption
                Public-Key: (2048 bit)
                Modulus:
                    00:c0:6f:99:1d:99:6e:86:de:4b:14:e3:cf:f9:f8:
                    72:79:f6:ec:55:33:ab:33:f4:fe:e4:4e:04:5a:f1:
                    11:46:08:bf:8d:0e:fe:d5:18:a4:56:ef:c3:8e:87:
                    58:06:37:76:5c:ec:37:b6:bc:40:86:b3:c8:91:39:
                    d6:6f:38:08:48:8a:3a:30:9c:ad:50:d4:47:bd:7f:
                    42:15:82:42:81:09:0b:17:3a:b2:09:63:1f:42:4b:
                    8a:f8:04:1a:13:e3:f0:c7:40:f4:91:1a:f9:f1:56:
                    27:11:9f:f8:1d:11:ef:79:ee:91:40:30:fa:f3:62:
                    19:49:92:1b:f5:49:22:38:61:5c:29:e2:85:09:19:
                    c2:2a:c1:52:80:53:74:ef:0c:fe:52:28:0b:65:68:
                    65:d3:99:bb:e0:bc:75:ec:be:d2:13:c1:79:24:2f:
                    6f:cf:c2:89:e8:9a:12:08:9c:46:ea:3c:1f:45:f6:
                    7d:3c:7e:cc:d1:6b:76:17:ea:cb:13:60:89:e9:96:
                    ad:6c:72:ca:ff:32:15:08:03:62:77:80:be:23:c4:
                    0b:9e:d9:2e:37:c9:d2:15:b5:00:8d:d8:ef:8f:fc:
                    0f:d4:89:43:c2:e8:40:bd:35:d1:97:89:68:32:83:
                    f3:bc:cf:1c:70:4b:ca:e2:a6:14:c6:72:ca:2b:4a:
                    4a:e9
                Exponent: 65537 (0x10001)
        X509v3 extensions:
            X509v3 Basic Constraints: 
                CA:FALSE
            X509v3 Subject Key Identifier: 
                8A:33:5C:22:7F:3D:BE:A2:A8:57:4D:CA:F6:DE:DF:A0:3E:76:5E:6B
            X509v3 Authority Key Identifier: 
                keyid:40:E1:95:75:0A:C1:50:CF:1D:84:A8:A1:5D:67:81:2B:F2:B5:4F:11
                DirName:/CN=team56-net
                serial:11:72:32:7A:96:91:37:87:94:14:52:38:7A:13:DB:EE:70:FB:29:ED
            X509v3 Extended Key Usage: 
                TLS Web Client Authentication
            X509v3 Key Usage: 
                Digital Signature
    Signature Algorithm: sha256WithRSAEncryption
    Signature Value:
        59:58:a8:31:03:43:fd:ef:b1:45:8d:ed:f7:dc:c4:78:ff:53:
        e7:04:6a:db:08:b0:df:6f:5f:e8:e7:46:e1:cb:7c:33:a9:dd:
        80:42:9f:1c:3e:84:59:a6:af:fa:94:b3:a7:b3:ea:dc:50:96:
        f2:ff:c5:2f:51:51:b3:6f:54:9d:13:f9:52:a1:a0:97:57:b4:
        17:ed:db:3e:4b:59:e8:c0:68:c1:36:11:bf:8e:77:94:64:b6:
        74:25:59:4f:5b:ef:ef:7a:70:36:1a:b9:e1:4b:08:cb:2b:af:
        95:b0:a3:43:90:09:17:d6:27:3a:a9:83:51:2a:a7:8c:29:b7:
        15:42:4a:ed:44:1d:8f:f5:a0:d8:6a:64:5a:6a:eb:69:89:03:
        27:c9:9b:d0:85:75:e5:71:dd:c6:0e:d3:13:90:ce:17:5f:28:
        53:67:1b:64:d9:d6:96:c8:b7:d6:8b:eb:d0:35:06:d7:14:11:
        a0:db:a6:59:eb:7f:64:27:df:97:c8:de:78:9e:3a:a6:42:e2:
        a4:5d:f1:e5:c3:1e:2f:b2:9e:b4:5a:f7:06:1d:26:1e:99:6a:
        4d:de:99:99:24:44:95:2c:94:5c:8a:a7:e9:53:4f:f4:53:4c:
        6a:26:ea:1b:82:51:76:5b:bf:90:12:69:b6:09:5e:b2:ee:ae:
        87:67:46:09
-----BEGIN CERTIFICATE-----
MIIDWTCCAkGgAwIBAgIQbFSa0YYWqk9qcpmNj+O50jANBgkqhkiG9w0BAQsFADAV
MRMwEQYDVQQDDAp0ZWFtNTYtbmV0MB4XDTIzMDQyMDIyNTQ1NFoXDTI2MDQwNDIy
NTQ1NFowGDEWMBQGA1UEAwwNdGVhbTU2LWNsaWVudDCCASIwDQYJKoZIhvcNAQEB
BQADggEPADCCAQoCggEBAMBvmR2ZbobeSxTjz/n4cnn27FUzqzP0/uROBFrxEUYI
v40O/tUYpFbvw46HWAY3dlzsN7a8QIazyJE51m84CEiKOjCcrVDUR71/QhWCQoEJ
Cxc6sgljH0JLivgEGhPj8MdA9JEa+fFWJxGf+B0R73nukUAw+vNiGUmSG/VJIjhh
XCnihQkZwirBUoBTdO8M/lIoC2VoZdOZu+C8dey+0hPBeSQvb8/CieiaEgicRuo8
H0X2fTx+zNFrdhfqyxNgiemWrWxyyv8yFQgDYneAviPEC57ZLjfJ0hW1AI3Y74/8
D9SJQ8LoQL010ZeJaDKD87zPHHBLyuKmFMZyyitKSukCAwEAAaOBoTCBnjAJBgNV
HRMEAjAAMB0GA1UdDgQWBBSKM1wifz2+oqhXTcr23t+gPnZeazBQBgNVHSMESTBH
gBRA4ZV1CsFQzx2EqKFdZ4Er8rVPEaEZpBcwFTETMBEGA1UEAwwKdGVhbTU2LW5l
dIIUEXIyepaRN4eUFFI4ehPb7nD7Ke0wEwYDVR0lBAwwCgYIKwYBBQUHAwIwCwYD
VR0PBAQDAgeAMA0GCSqGSIb3DQEBCwUAA4IBAQBZWKgxA0P977FFje333MR4/1Pn
BGrbCLDfb1/o50bhy3wzqd2AQp8cPoRZpq/6lLOns+rcUJby/8UvUVGzb1SdE/lS
oaCXV7QX7ds+S1nowGjBNhG/jneUZLZ0JVlPW+/venA2GrnhSwjLK6+VsKNDkAkX
1ic6qYNRKqeMKbcVQkrtRB2P9aDYamRaautpiQMnyZvQhXXlcd3GDtMTkM4XXyhT
Zxtk2daWyLfWi+vQNQbXFBGg26ZZ639kJ9+XyN54njqmQuKkXfHlwx4vsp60WvcG
HSYemWpN3pmZJESVLJRciqfpU0/0U0xqJuobglF2W7+QEmm2CV6y7q6HZ0YJ
-----END CERTIFICATE-----
