Certificate:
    Data:
        Version: 3 (0x2)
        Serial Number:
            5d:7c:64:4e:8a:28:7f:53:5f:82:55:31:2d:b0:a6:70
        Signature Algorithm: sha256WithRSAEncryption
        Issuer: CN=team43-net
        Validity
            Not Before: Apr 20 22:54:32 2023 GMT
            Not After : Apr  4 22:54:32 2026 GMT
        Subject: CN=team43-server
        Subject Public Key Info:
            Public Key Algorithm: rsaEncryption
                Public-Key: (2048 bit)
                Modulus:
                    00:91:7f:de:3a:86:f0:3c:73:f2:5e:21:72:7f:35:
                    48:29:64:c0:99:9d:19:af:1f:82:4d:b7:f4:74:fa:
                    af:19:8e:80:04:9f:5f:47:f9:57:41:ff:3d:47:d7:
                    6e:59:fc:68:65:10:a6:f4:99:6d:6c:1c:8f:bf:fa:
                    7d:09:d0:1e:43:77:f1:80:b7:38:85:a5:ee:56:e1:
                    e0:b0:ad:90:6f:c9:25:b7:f5:6f:fe:a2:23:06:b4:
                    6d:f6:6b:26:f4:d4:cc:fb:9b:12:55:fd:52:59:41:
                    9d:56:26:56:a5:61:e9:78:95:d6:82:08:0f:2b:56:
                    df:e7:2f:d2:ea:c2:6d:bf:3a:91:af:0f:97:0b:5d:
                    4d:f1:65:64:77:a6:0e:e7:f4:8b:34:83:7c:bf:c6:
                    f3:43:d3:47:16:49:a4:31:0d:70:dd:f0:96:0d:f4:
                    e7:2b:51:fa:59:6a:cf:5e:b8:1f:44:29:3f:1a:9e:
                    3e:45:f0:5e:16:40:72:92:fb:fd:e3:36:de:88:09:
                    62:cd:b9:2c:95:e5:67:c2:2b:e0:35:f9:cf:b7:3c:
                    46:0f:fe:c9:c2:3c:2d:fa:16:4d:41:1c:67:b6:6f:
                    1b:d2:3e:f2:90:c2:af:f2:f5:57:fb:89:b3:e5:ed:
                    48:fe:2d:13:8a:df:74:38:3e:6b:f3:e7:81:ef:4a:
                    a4:e5
                Exponent: 65537 (0x10001)
        X509v3 extensions:
            X509v3 Basic Constraints: 
                CA:FALSE
            X509v3 Subject Key Identifier: 
                0D:B0:0D:6C:53:40:37:50:20:22:F2:0B:07:91:34:76:BD:A4:2F:3D
            X509v3 Authority Key Identifier: 
                keyid:C8:65:4B:7E:16:6F:CB:6C:74:43:B2:37:4C:AC:78:C2:7A:67:93:1B
                DirName:/CN=team43-net
                serial:42:72:98:DC:30:42:41:41:97:81:2B:73:9F:DB:22:66:7F:A8:B1:67
            X509v3 Extended Key Usage: 
                TLS Web Server Authentication
            X509v3 Key Usage: 
                Digital Signature, Key Encipherment
            X509v3 Subject Alternative Name: 
                DNS:team43-server
    Signature Algorithm: sha256WithRSAEncryption
    Signature Value:
        0b:02:56:2b:32:15:95:84:d0:ba:4d:34:d1:1c:5f:56:50:ba:
        46:d0:ce:fa:88:98:86:bc:05:15:68:03:88:5c:0b:6b:a2:b1:
        9b:e6:e5:eb:6b:29:83:da:e4:bf:33:c2:d2:2b:76:b4:7b:4a:
        e4:87:30:93:7d:d5:88:80:aa:75:9a:cd:a4:73:e1:cc:d1:92:
        79:ae:de:f0:ed:bc:f5:c2:d3:36:86:cc:c0:a1:5d:88:fc:02:
        d2:3d:ed:58:f2:07:d3:f2:83:15:ac:cb:85:f4:14:cb:cc:0a:
        8e:41:7d:d1:6e:de:27:b9:8c:49:69:07:12:01:56:5c:d4:69:
        4c:83:06:64:d0:49:7e:b4:f4:1b:89:5d:89:ec:f8:df:ff:54:
        4a:37:29:83:bc:8f:6d:74:66:8f:aa:20:df:17:85:17:b2:eb:
        8c:5c:a0:ff:cf:e1:5a:d6:6c:4b:ff:b8:79:c4:ab:e2:53:53:
        57:dc:15:6b:a4:17:d9:62:c7:64:f7:b3:f8:00:36:cb:d3:61:
        cb:04:2f:78:4d:d5:04:d3:6f:f7:cb:47:6d:26:ac:ff:7c:b0:
        d4:02:71:9f:59:44:f2:0a:43:e8:df:66:21:51:8c:06:4a:cb:
        32:d5:38:c2:34:97:a3:45:69:5d:70:c3:90:e6:c3:61:ed:40:
        8e:f3:15:81
-----BEGIN CERTIFICATE-----
MIIDczCCAlugAwIBAgIQXXxkTooof1NfglUxLbCmcDANBgkqhkiG9w0BAQsFADAV
MRMwEQYDVQQDDAp0ZWFtNDMtbmV0MB4XDTIzMDQyMDIyNTQzMloXDTI2MDQwNDIy
NTQzMlowGDEWMBQGA1UEAwwNdGVhbTQzLXNlcnZlcjCCASIwDQYJKoZIhvcNAQEB
BQADggEPADCCAQoCggEBAJF/3jqG8Dxz8l4hcn81SClkwJmdGa8fgk239HT6rxmO
gASfX0f5V0H/PUfXbln8aGUQpvSZbWwcj7/6fQnQHkN38YC3OIWl7lbh4LCtkG/J
Jbf1b/6iIwa0bfZrJvTUzPubElX9UllBnVYmVqVh6XiV1oIIDytW3+cv0urCbb86
ka8PlwtdTfFlZHemDuf0izSDfL/G80PTRxZJpDENcN3wlg305ytR+llqz164H0Qp
PxqePkXwXhZAcpL7/eM23ogJYs25LJXlZ8Ir4DX5z7c8Rg/+ycI8LfoWTUEcZ7Zv
G9I+8pDCr/L1V/uJs+XtSP4tE4rfdDg+a/Pnge9KpOUCAwEAAaOBuzCBuDAJBgNV
HRMEAjAAMB0GA1UdDgQWBBQNsA1sU0A3UCAi8gsHkTR2vaQvPTBQBgNVHSMESTBH
gBTIZUt+Fm/LbHRDsjdMrHjCemeTG6EZpBcwFTETMBEGA1UEAwwKdGVhbTQzLW5l
dIIUQnKY3DBCQUGXgStzn9siZn+osWcwEwYDVR0lBAwwCgYIKwYBBQUHAwEwCwYD
VR0PBAQDAgWgMBgGA1UdEQQRMA+CDXRlYW00My1zZXJ2ZXIwDQYJKoZIhvcNAQEL
BQADggEBAAsCVisyFZWE0LpNNNEcX1ZQukbQzvqImIa8BRVoA4hcC2uisZvm5etr
KYPa5L8zwtIrdrR7SuSHMJN91YiAqnWazaRz4czRknmu3vDtvPXC0zaGzMChXYj8
AtI97VjyB9PygxWsy4X0FMvMCo5BfdFu3ie5jElpBxIBVlzUaUyDBmTQSX609BuJ
XYns+N//VEo3KYO8j210Zo+qIN8XhRey64xcoP/P4VrWbEv/uHnEq+JTU1fcFWuk
F9lix2T3s/gANsvTYcsEL3hN1QTTb/fLR20mrP98sNQCcZ9ZRPIKQ+jfZiFRjAZK
yzLVOMI0l6NFaV1ww5Dmw2HtQI7zFYE=
-----END CERTIFICATE-----
