Certificate:
    Data:
        Version: 3 (0x2)
        Serial Number:
            d0:29:62:ec:d4:15:b8:1f:c9:cf:92:a4:f7:71:b4:a8
        Signature Algorithm: sha256WithRSAEncryption
        Issuer: CN=team43-net
        Validity
            Not Before: Apr 20 22:54:32 2023 GMT
            Not After : Apr  4 22:54:32 2026 GMT
        Subject: CN=team43-client
        Subject Public Key Info:
            Public Key Algorithm: rsaEncryption
                Public-Key: (2048 bit)
                Modulus:
                    00:ca:46:0b:6e:3f:1c:32:c8:d4:54:01:a8:dc:7a:
                    45:95:c9:ee:d0:ff:6c:33:e3:4f:7c:fc:32:3b:8f:
                    6b:76:78:11:5a:a3:5e:39:dc:4f:fe:84:35:7b:e6:
                    cd:a2:b2:95:19:21:26:14:46:fd:09:09:16:8f:02:
                    d3:f4:87:b8:e4:5c:0d:13:ac:9a:88:13:d5:4e:4c:
                    dc:0c:6b:7d:b3:d1:63:b1:d4:62:e5:9a:d6:74:d5:
                    c3:7d:63:fc:6c:2b:3d:4e:33:1d:6d:eb:fd:b7:47:
                    0f:c5:b1:3a:34:a1:9a:1b:5c:3c:c5:f5:c1:af:c5:
                    26:b0:b0:7c:b1:08:4a:ac:d8:12:80:c2:3e:ce:b7:
                    ba:10:3a:bc:bf:a3:38:73:ba:8b:57:0b:b0:fb:21:
                    78:f4:90:01:41:b4:2f:50:c0:b4:06:79:05:c1:cf:
                    7c:af:ed:0e:d3:d8:6c:00:c0:e9:a0:17:2a:53:2a:
                    7c:71:f0:80:33:fa:28:2c:ff:38:e7:37:60:21:97:
                    e3:f6:8f:37:94:1f:65:9e:42:b3:38:3c:6e:0a:05:
                    cd:d4:60:48:a9:b1:7c:d8:bc:03:f9:a6:88:dd:cf:
                    c9:0c:af:4f:61:6d:38:94:af:4b:71:1d:23:1c:e0:
                    38:50:78:06:a6:14:ac:d2:46:27:57:99:27:52:1a:
                    14:79
                Exponent: 65537 (0x10001)
        X509v3 extensions:
            X509v3 Basic Constraints: 
                CA:FALSE
            X509v3 Subject Key Identifier: 
                51:D1:7C:B0:65:B6:80:7B:DD:52:D7:EC:7E:7B:33:8A:84:A6:46:0E
            X509v3 Authority Key Identifier: 
                keyid:C8:65:4B:7E:16:6F:CB:6C:74:43:B2:37:4C:AC:78:C2:7A:67:93:1B
                DirName:/CN=team43-net
                serial:42:72:98:DC:30:42:41:41:97:81:2B:73:9F:DB:22:66:7F:A8:B1:67
            X509v3 Extended Key Usage: 
                TLS Web Client Authentication
            X509v3 Key Usage: 
                Digital Signature
    Signature Algorithm: sha256WithRSAEncryption
    Signature Value:
        3c:41:46:c8:99:70:c2:b1:2d:34:c7:50:59:ec:a8:f9:dc:eb:
        c3:f6:92:cd:0d:b8:09:ab:99:a3:20:0f:5f:ec:ab:ce:e8:a3:
        7f:2e:d2:3d:2f:82:1a:7a:2a:12:19:25:57:f9:ad:f5:5b:32:
        8f:8b:b0:bf:79:61:19:ea:36:d0:b9:3e:1e:b4:07:91:8f:40:
        87:bf:a8:40:56:4a:c8:7b:82:54:d0:2e:03:73:53:b2:29:8f:
        20:ee:27:e1:00:a1:29:88:4e:d9:10:d5:e3:48:65:3a:b5:cf:
        d2:ce:28:e7:3c:3e:74:ba:5f:8c:fe:3a:e3:e7:40:49:00:8a:
        07:d3:ee:50:b2:1e:4a:6d:1a:7f:84:ff:e5:9d:8b:94:fe:48:
        06:4f:31:ee:29:e0:13:0d:d2:ad:0d:8c:f7:ef:a6:9a:b6:fd:
        b4:07:19:5b:1b:7f:e3:82:4c:08:af:75:c7:76:72:d9:de:7c:
        9d:09:77:ae:e7:22:3f:93:0e:b2:6a:ef:e5:ce:f0:f3:f1:9d:
        86:79:0e:8d:09:15:77:18:62:db:46:2a:16:eb:49:3e:fc:e1:
        00:a8:bd:d2:0f:49:e1:5a:4b:f6:1f:74:43:ea:b8:4f:80:fc:
        da:a7:21:8a:87:b9:89:26:5d:2a:9f:b3:ac:31:48:92:b4:bc:
        6b:80:89:97
-----BEGIN CERTIFICATE-----
MIIDWjCCAkKgAwIBAgIRANApYuzUFbgfyc+SpPdxtKgwDQYJKoZIhvcNAQELBQAw
FTETMBEGA1UEAwwKdGVhbTQzLW5ldDAeFw0yMzA0MjAyMjU0MzJaFw0yNjA0MDQy
MjU0MzJaMBgxFjAUBgNVBAMMDXRlYW00My1jbGllbnQwggEiMA0GCSqGSIb3DQEB
AQUAA4IBDwAwggEKAoIBAQDKRgtuPxwyyNRUAajcekWVye7Q/2wz4098/DI7j2t2
eBFao1453E/+hDV75s2ispUZISYURv0JCRaPAtP0h7jkXA0TrJqIE9VOTNwMa32z
0WOx1GLlmtZ01cN9Y/xsKz1OMx1t6/23Rw/FsTo0oZobXDzF9cGvxSawsHyxCEqs
2BKAwj7Ot7oQOry/ozhzuotXC7D7IXj0kAFBtC9QwLQGeQXBz3yv7Q7T2GwAwOmg
FypTKnxx8IAz+igs/zjnN2Ahl+P2jzeUH2WeQrM4PG4KBc3UYEipsXzYvAP5pojd
z8kMr09hbTiUr0txHSMc4DhQeAamFKzSRidXmSdSGhR5AgMBAAGjgaEwgZ4wCQYD
VR0TBAIwADAdBgNVHQ4EFgQUUdF8sGW2gHvdUtfsfnszioSmRg4wUAYDVR0jBEkw
R4AUyGVLfhZvy2x0Q7I3TKx4wnpnkxuhGaQXMBUxEzARBgNVBAMMCnRlYW00My1u
ZXSCFEJymNwwQkFBl4Erc5/bImZ/qLFnMBMGA1UdJQQMMAoGCCsGAQUFBwMCMAsG
A1UdDwQEAwIHgDANBgkqhkiG9w0BAQsFAAOCAQEAPEFGyJlwwrEtNMdQWeyo+dzr
w/aSzQ24CauZoyAPX+yrzuijfy7SPS+CGnoqEhklV/mt9Vsyj4uwv3lhGeo20Lk+
HrQHkY9Ah7+oQFZKyHuCVNAuA3NTsimPIO4n4QChKYhO2RDV40hlOrXP0s4o5zw+
dLpfjP464+dASQCKB9PuULIeSm0af4T/5Z2LlP5IBk8x7ingEw3SrQ2M9++mmrb9
tAcZWxt/44JMCK91x3Zy2d58nQl3ruciP5MOsmrv5c7w8/GdhnkOjQkVdxhi20Yq
FutJPvzhAKi90g9J4VpL9h90Q+q4T4D82qchioe5iSZdKp+zrDFIkrS8a4CJlw==
-----END CERTIFICATE-----
