Certificate:
    Data:
        Version: 3 (0x2)
        Serial Number:
            e1:54:9d:ce:b4:51:fb:70:d1:89:f1:62:8d:ee:cf:24
        Signature Algorithm: sha256WithRSAEncryption
        Issuer: CN=team43-net
        Validity
            Not Before: Apr 20 00:10:57 2023 GMT
            Not After : Apr  4 00:10:57 2026 GMT
        Subject: CN=team43-server
        Subject Public Key Info:
            Public Key Algorithm: rsaEncryption
                Public-Key: (2048 bit)
                Modulus:
                    00:b8:af:95:50:ba:1b:d2:fc:65:d7:26:64:39:78:
                    58:9a:48:bc:3e:d8:7f:59:0b:49:e9:e0:ff:d2:81:
                    6f:70:b9:18:fb:bc:99:7b:d8:e7:80:9f:ca:0e:4a:
                    0a:6f:e4:72:f6:0a:51:0c:8b:d7:a0:9d:78:03:39:
                    3f:c2:5a:79:b7:53:52:96:21:95:ac:c7:6c:2c:fa:
                    32:a6:e1:02:20:e9:45:79:23:b0:11:3d:d4:5e:f1:
                    e5:db:14:6c:4f:ae:80:6f:62:33:19:1f:4e:32:8a:
                    6f:83:d3:ec:f2:c3:83:f7:9b:05:58:7b:c3:89:c0:
                    bb:37:8d:0d:cd:4f:ec:f7:06:a1:db:00:43:bb:6e:
                    20:2f:f7:b6:9e:20:16:f4:1c:1c:08:46:18:7c:78:
                    b5:ab:5c:a1:fd:0d:51:35:8e:c3:27:4e:75:d9:3d:
                    21:e8:5e:75:71:cb:c5:6d:a4:58:5f:f8:6e:10:06:
                    c4:6b:2f:72:6c:63:40:36:57:5f:4f:bf:62:73:62:
                    08:c7:60:f1:70:d0:b4:3c:94:32:92:6a:e7:08:cb:
                    d3:f1:61:d7:4b:74:87:67:3d:17:dd:c5:8b:3d:28:
                    38:66:da:83:09:70:8e:45:bc:54:78:16:04:13:f5:
                    c4:62:ed:f2:fb:2e:05:04:85:e7:61:e7:ce:5e:92:
                    a5:9b
                Exponent: 65537 (0x10001)
        X509v3 extensions:
            X509v3 Basic Constraints: 
                CA:FALSE
            X509v3 Subject Key Identifier: 
                15:6B:F7:04:C7:A2:61:B2:63:C4:71:9C:EF:1B:98:DE:33:F9:8E:8E
            X509v3 Authority Key Identifier: 
                keyid:D9:0B:E1:81:7F:A9:0D:34:ED:DD:50:89:A0:21:82:61:F7:E8:B9:23
                DirName:/CN=team43-net
                serial:3A:27:84:77:AE:5E:37:3D:4E:19:33:52:A0:70:26:C7:25:03:BE:7D
            X509v3 Extended Key Usage: 
                TLS Web Server Authentication
            X509v3 Key Usage: 
                Digital Signature, Key Encipherment
            X509v3 Subject Alternative Name: 
                DNS:team43-server
    Signature Algorithm: sha256WithRSAEncryption
    Signature Value:
        1a:ec:ec:85:94:15:95:7f:77:d1:05:67:80:02:4f:a0:47:b4:
        1f:be:a1:fe:26:81:0f:b3:20:b7:b5:3f:d2:1b:c5:89:57:0e:
        b8:fb:ab:80:35:7e:d8:22:f8:5f:e6:b9:22:53:0b:f3:9c:e0:
        b9:83:ce:2e:45:e7:7e:35:c7:62:87:5e:6d:74:1c:be:95:e3:
        1a:2d:ac:46:11:d4:8f:c8:a3:5c:a7:2e:9a:b5:71:80:fb:7d:
        d1:48:fc:8c:fa:0a:19:f7:36:b9:1e:25:a8:22:60:23:99:01:
        b9:ac:35:02:17:a1:d3:e1:06:0d:01:82:25:c4:c7:d0:e5:0b:
        5f:94:52:53:b2:09:8f:0c:46:86:d8:1f:0b:00:8d:b8:38:f9:
        5a:8e:f0:a4:58:f3:ab:6c:15:d0:1d:a8:27:23:34:f1:6d:9e:
        2d:f4:1d:3a:ac:08:30:7a:61:a9:1b:ee:9f:f4:d8:16:e4:b8:
        72:2e:cc:6f:eb:c1:52:42:8d:bc:af:6d:6c:7c:a3:04:ab:22:
        d1:5d:06:86:91:5c:d0:20:8e:88:50:71:e4:69:76:94:d1:e7:
        42:3e:5a:a1:dc:13:d4:64:ef:01:7f:56:c9:42:d1:32:16:26:
        92:8b:cf:b8:2d:63:2e:89:b9:92:b9:42:96:c0:ba:64:98:fa:
        ac:bf:06:25
-----BEGIN CERTIFICATE-----
MIIDdDCCAlygAwIBAgIRAOFUnc60Uftw0YnxYo3uzyQwDQYJKoZIhvcNAQELBQAw
FTETMBEGA1UEAwwKdGVhbTQzLW5ldDAeFw0yMzA0MjAwMDEwNTdaFw0yNjA0MDQw
MDEwNTdaMBgxFjAUBgNVBAMMDXRlYW00My1zZXJ2ZXIwggEiMA0GCSqGSIb3DQEB
AQUAA4IBDwAwggEKAoIBAQC4r5VQuhvS/GXXJmQ5eFiaSLw+2H9ZC0np4P/SgW9w
uRj7vJl72OeAn8oOSgpv5HL2ClEMi9egnXgDOT/CWnm3U1KWIZWsx2ws+jKm4QIg
6UV5I7ARPdRe8eXbFGxProBvYjMZH04yim+D0+zyw4P3mwVYe8OJwLs3jQ3NT+z3
BqHbAEO7biAv97aeIBb0HBwIRhh8eLWrXKH9DVE1jsMnTnXZPSHoXnVxy8VtpFhf
+G4QBsRrL3JsY0A2V19Pv2JzYgjHYPFw0LQ8lDKSaucIy9PxYddLdIdnPRfdxYs9
KDhm2oMJcI5FvFR4FgQT9cRi7fL7LgUEhedh585ekqWbAgMBAAGjgbswgbgwCQYD
VR0TBAIwADAdBgNVHQ4EFgQUFWv3BMeiYbJjxHGc7xuY3jP5jo4wUAYDVR0jBEkw
R4AU2QvhgX+pDTTt3VCJoCGCYffouSOhGaQXMBUxEzARBgNVBAMMCnRlYW00My1u
ZXSCFDonhHeuXjc9ThkzUqBwJsclA759MBMGA1UdJQQMMAoGCCsGAQUFBwMBMAsG
A1UdDwQEAwIFoDAYBgNVHREEETAPgg10ZWFtNDMtc2VydmVyMA0GCSqGSIb3DQEB
CwUAA4IBAQAa7OyFlBWVf3fRBWeAAk+gR7QfvqH+JoEPsyC3tT/SG8WJVw64+6uA
NX7YIvhf5rkiUwvznOC5g84uRed+Ncdih15tdBy+leMaLaxGEdSPyKNcpy6atXGA
+33RSPyM+goZ9za5HiWoImAjmQG5rDUCF6HT4QYNAYIlxMfQ5QtflFJTsgmPDEaG
2B8LAI24OPlajvCkWPOrbBXQHagnIzTxbZ4t9B06rAgwemGpG+6f9NgW5LhyLsxv
68FSQo28r21sfKMEqyLRXQaGkVzQII6IUHHkaXaU0edCPlqh3BPUZO8Bf1bJQtEy
FiaSi8+4LWMuibmSuUKWwLpkmPqsvwYl
-----END CERTIFICATE-----
