Certificate:
    Data:
        Version: 3 (0x2)
        Serial Number:
            32:81:f0:f0:03:2b:7a:67:38:e7:a7:fe:09:05:45:7f
        Signature Algorithm: sha256WithRSAEncryption
        Issuer: CN=team18-net
        Validity
            Not Before: Apr 20 22:53:49 2023 GMT
            Not After : Apr  4 22:53:49 2026 GMT
        Subject: CN=team18-client
        Subject Public Key Info:
            Public Key Algorithm: rsaEncryption
                Public-Key: (2048 bit)
                Modulus:
                    00:ba:30:22:fd:79:24:25:14:05:5b:62:eb:ce:3e:
                    f3:09:f8:e4:e8:82:c5:1c:1a:fc:d3:be:df:3d:17:
                    79:e6:3e:7c:57:38:be:e0:58:36:e9:81:88:83:49:
                    b6:c6:d0:5c:c1:54:c8:07:04:ef:db:15:0d:0a:6e:
                    70:30:d0:80:4d:17:d1:82:9e:4a:98:82:55:f4:5b:
                    b5:cc:e9:47:dc:96:be:52:04:2d:d1:02:25:a0:7a:
                    16:61:5d:29:d6:bd:b4:6f:e4:d8:84:26:1a:73:16:
                    37:7c:ea:1b:8e:1a:ab:79:2a:17:aa:d6:f1:7c:12:
                    6b:28:d5:f0:8d:a6:3f:98:8d:ca:27:77:46:60:d8:
                    52:44:5c:df:ae:1d:e8:fc:a1:ed:e1:2f:55:b2:14:
                    33:c5:e3:78:84:58:90:1f:08:1c:1d:1f:57:09:c3:
                    65:d4:47:04:f4:56:ef:19:4b:3e:d4:5e:92:d6:08:
                    72:f1:c6:e1:e5:6e:cc:29:00:ca:c7:ce:d9:84:eb:
                    a8:c6:52:d6:08:5f:20:23:18:09:a4:c3:f9:be:82:
                    29:20:cf:9c:32:56:bb:74:00:ec:39:78:eb:5a:16:
                    ee:f2:15:44:21:4a:4e:f6:69:ec:d4:c0:39:8a:ff:
                    21:75:bd:de:f3:86:cb:6e:f6:e3:dd:21:be:cc:86:
                    5c:5b
                Exponent: 65537 (0x10001)
        X509v3 extensions:
            X509v3 Basic Constraints: 
                CA:FALSE
            X509v3 Subject Key Identifier: 
                55:60:97:0B:01:E3:6D:BF:33:99:3E:F5:41:50:FC:3B:06:22:44:8B
            X509v3 Authority Key Identifier: 
                keyid:E6:95:7B:BE:3B:0C:D8:C2:1B:1E:9C:13:E1:8A:3F:48:E9:4E:73:3A
                DirName:/CN=team18-net
                serial:34:43:36:C1:2D:6B:4E:15:30:86:96:C3:53:E3:BD:7D:09:0A:0E:D9
            X509v3 Extended Key Usage: 
                TLS Web Client Authentication
            X509v3 Key Usage: 
                Digital Signature
    Signature Algorithm: sha256WithRSAEncryption
    Signature Value:
        14:20:59:a6:1a:c6:24:ea:f0:49:3a:c7:aa:d2:31:0f:5c:44:
        c8:d5:55:f0:ac:90:8a:40:44:00:67:33:3c:4a:a7:1b:8f:65:
        f0:2b:98:a8:90:60:f0:fd:2a:a4:48:ed:56:ac:79:99:00:1e:
        1b:c2:6c:89:d0:d4:e2:6e:10:74:dc:82:8b:c8:43:8d:50:9e:
        77:2d:54:63:00:ef:18:ab:b4:9d:55:be:45:be:8a:8b:cf:38:
        be:49:d3:61:28:41:17:bc:c3:06:60:0a:a9:1e:c8:79:b9:2c:
        c0:0f:a2:3d:16:85:c5:a9:a7:b9:5f:d7:a3:a2:d9:81:30:64:
        84:89:49:bc:0c:84:d4:72:e5:eb:d7:8c:94:46:24:49:2b:8b:
        91:54:60:fc:19:b5:70:c3:0a:f6:ac:63:84:45:ca:f5:88:5a:
        9f:d6:0b:e8:de:b8:50:cb:7a:b7:08:eb:54:6c:93:bb:6f:18:
        d6:fc:64:97:bf:71:bb:db:30:1b:11:88:a0:f5:c3:5f:17:39:
        58:d7:d0:f8:b0:25:3b:29:7c:b1:26:db:39:f2:71:3e:c7:cf:
        00:e5:67:34:39:50:59:ad:93:4f:40:d4:62:b5:35:70:99:ec:
        77:98:ee:9f:4c:4f:61:3c:ba:10:70:1b:6e:21:2f:1a:21:cc:
        f3:3e:d0:0a
-----BEGIN CERTIFICATE-----
MIIDWTCCAkGgAwIBAgIQMoHw8AMremc456f+CQVFfzANBgkqhkiG9w0BAQsFADAV
MRMwEQYDVQQDDAp0ZWFtMTgtbmV0MB4XDTIzMDQyMDIyNTM0OVoXDTI2MDQwNDIy
NTM0OVowGDEWMBQGA1UEAwwNdGVhbTE4LWNsaWVudDCCASIwDQYJKoZIhvcNAQEB
BQADggEPADCCAQoCggEBALowIv15JCUUBVti684+8wn45OiCxRwa/NO+3z0XeeY+
fFc4vuBYNumBiINJtsbQXMFUyAcE79sVDQpucDDQgE0X0YKeSpiCVfRbtczpR9yW
vlIELdECJaB6FmFdKda9tG/k2IQmGnMWN3zqG44aq3kqF6rW8XwSayjV8I2mP5iN
yid3RmDYUkRc364d6Pyh7eEvVbIUM8XjeIRYkB8IHB0fVwnDZdRHBPRW7xlLPtRe
ktYIcvHG4eVuzCkAysfO2YTrqMZS1ghfICMYCaTD+b6CKSDPnDJWu3QA7Dl461oW
7vIVRCFKTvZp7NTAOYr/IXW93vOGy272490hvsyGXFsCAwEAAaOBoTCBnjAJBgNV
HRMEAjAAMB0GA1UdDgQWBBRVYJcLAeNtvzOZPvVBUPw7BiJEizBQBgNVHSMESTBH
gBTmlXu+OwzYwhsenBPhij9I6U5zOqEZpBcwFTETMBEGA1UEAwwKdGVhbTE4LW5l
dIIUNEM2wS1rThUwhpbDU+O9fQkKDtkwEwYDVR0lBAwwCgYIKwYBBQUHAwIwCwYD
VR0PBAQDAgeAMA0GCSqGSIb3DQEBCwUAA4IBAQAUIFmmGsYk6vBJOseq0jEPXETI
1VXwrJCKQEQAZzM8Sqcbj2XwK5iokGDw/SqkSO1WrHmZAB4bwmyJ0NTibhB03IKL
yEONUJ53LVRjAO8Yq7SdVb5FvoqLzzi+SdNhKEEXvMMGYAqpHsh5uSzAD6I9FoXF
qae5X9ejotmBMGSEiUm8DITUcuXr14yURiRJK4uRVGD8GbVwwwr2rGOERcr1iFqf
1gvo3rhQy3q3COtUbJO7bxjW/GSXv3G72zAbEYig9cNfFzlY19D4sCU7KXyxJts5
8nE+x88A5Wc0OVBZrZNPQNRitTVwmex3mO6fTE9hPLoQcBtuIS8aIczzPtAK
-----END CERTIFICATE-----
