Certificate:
    Data:
        Version: 3 (0x2)
        Serial Number:
            62:de:8e:c7:a8:2c:12:4c:24:f3:6d:86:c3:1d:d6:e5
        Signature Algorithm: sha256WithRSAEncryption
        Issuer: CN=team18-net
        Validity
            Not Before: Apr 20 00:10:21 2023 GMT
            Not After : Apr  4 00:10:21 2026 GMT
        Subject: CN=team18-client
        Subject Public Key Info:
            Public Key Algorithm: rsaEncryption
                Public-Key: (2048 bit)
                Modulus:
                    00:cf:cd:8a:b3:24:eb:57:9f:56:fc:2f:9b:e3:45:
                    91:72:3b:41:65:5f:91:e4:1f:d9:2c:6f:5e:15:94:
                    2b:f5:aa:9d:11:01:02:ad:85:41:25:22:20:9d:d5:
                    cb:25:98:f0:6a:7f:e8:dc:87:f4:08:bb:ad:6a:dc:
                    17:52:5f:6f:6c:d6:60:88:28:37:1f:67:35:37:13:
                    26:85:5c:76:ea:53:52:93:8c:da:6a:51:27:9c:03:
                    1e:d6:7c:cb:73:e2:a3:0a:3e:36:4e:7d:b3:64:46:
                    d6:62:59:dc:db:57:d4:4b:79:da:ea:fc:aa:0a:96:
                    34:0b:ec:fe:ea:79:f3:da:c4:60:f4:34:c0:ae:03:
                    a7:43:5e:fa:f3:4a:03:ea:62:48:de:d3:7e:88:28:
                    19:21:2c:94:20:58:78:84:e4:5c:e4:8b:bf:d4:cf:
                    7a:6d:4b:16:cf:b9:99:32:cb:fd:1f:7c:12:b7:b2:
                    db:c7:7c:70:1a:5e:cc:a7:e2:a0:2c:04:4a:f2:fa:
                    2f:67:16:af:35:ff:ee:ba:b6:18:03:3b:9c:6a:e0:
                    c1:bc:41:5b:93:4b:03:3e:51:f2:e3:f5:3d:ef:f0:
                    95:b4:60:18:29:9e:fd:8b:74:d9:a7:bc:5b:fe:b8:
                    3b:34:cd:a0:94:4d:ed:12:8b:34:96:f2:18:36:73:
                    fc:d1
                Exponent: 65537 (0x10001)
        X509v3 extensions:
            X509v3 Basic Constraints: 
                CA:FALSE
            X509v3 Subject Key Identifier: 
                C9:4A:33:F3:25:6C:CC:19:EA:FB:3B:F6:87:F1:CF:78:C2:62:02:3B
            X509v3 Authority Key Identifier: 
                keyid:C3:8E:77:97:AF:F1:37:BF:CF:67:F6:E1:6C:A9:EE:C8:46:1F:50:50
                DirName:/CN=team18-net
                serial:3E:0C:75:D3:F7:5E:43:CC:AD:31:3B:4A:19:AE:FE:48:99:65:45:D0
            X509v3 Extended Key Usage: 
                TLS Web Client Authentication
            X509v3 Key Usage: 
                Digital Signature
    Signature Algorithm: sha256WithRSAEncryption
    Signature Value:
        58:48:0d:a3:da:79:5c:1f:f1:91:83:b0:4e:97:6d:f0:e6:67:
        3e:7f:0c:52:0e:ce:10:be:2d:e9:78:81:1b:37:96:ac:b5:5a:
        f2:d8:67:8e:e6:b6:44:19:f2:54:bb:2c:95:43:98:b4:96:ac:
        f5:d1:71:0b:dc:45:24:80:ab:31:6c:0e:d6:0e:1f:10:f8:5f:
        00:fe:81:de:68:65:31:cd:fa:5b:ee:1b:66:53:b2:fe:a9:c7:
        5e:7f:73:23:b0:c9:47:31:e3:37:1f:4c:d8:66:f7:54:e3:af:
        c8:0c:e9:11:19:e3:1f:eb:22:a5:15:13:bd:b6:69:fd:d8:8f:
        1c:e3:96:4c:ba:e7:75:dd:0d:9f:07:7c:a7:7f:fd:fb:58:bb:
        56:af:4d:98:eb:8d:a5:93:20:9e:ea:8b:f2:c6:6d:bf:3a:be:
        76:24:aa:b5:f5:49:b4:33:0c:fd:01:fe:7b:f6:7e:82:c4:70:
        a0:e3:c0:e0:83:4b:f2:5a:ce:66:48:b1:0f:a2:63:79:ce:e8:
        2d:e5:69:5e:5f:d3:06:49:4a:dc:25:05:ba:36:3d:bf:7a:e0:
        ac:39:e7:19:50:e2:c7:b4:61:46:05:b8:79:dd:af:16:ec:52:
        0a:98:49:12:69:28:ad:4b:ed:f4:94:93:31:9a:e8:a5:fa:08:
        0c:95:75:96
-----BEGIN CERTIFICATE-----
MIIDWTCCAkGgAwIBAgIQYt6Ox6gsEkwk822Gwx3W5TANBgkqhkiG9w0BAQsFADAV
MRMwEQYDVQQDDAp0ZWFtMTgtbmV0MB4XDTIzMDQyMDAwMTAyMVoXDTI2MDQwNDAw
MTAyMVowGDEWMBQGA1UEAwwNdGVhbTE4LWNsaWVudDCCASIwDQYJKoZIhvcNAQEB
BQADggEPADCCAQoCggEBAM/NirMk61efVvwvm+NFkXI7QWVfkeQf2SxvXhWUK/Wq
nREBAq2FQSUiIJ3VyyWY8Gp/6NyH9Ai7rWrcF1Jfb2zWYIgoNx9nNTcTJoVcdupT
UpOM2mpRJ5wDHtZ8y3Piowo+Nk59s2RG1mJZ3NtX1Et52ur8qgqWNAvs/up589rE
YPQ0wK4Dp0Ne+vNKA+piSN7TfogoGSEslCBYeITkXOSLv9TPem1LFs+5mTLL/R98
Erey28d8cBpezKfioCwESvL6L2cWrzX/7rq2GAM7nGrgwbxBW5NLAz5R8uP1Pe/w
lbRgGCme/Yt02ae8W/64OzTNoJRN7RKLNJbyGDZz/NECAwEAAaOBoTCBnjAJBgNV
HRMEAjAAMB0GA1UdDgQWBBTJSjPzJWzMGer7O/aH8c94wmICOzBQBgNVHSMESTBH
gBTDjneXr/E3v89n9uFsqe7IRh9QUKEZpBcwFTETMBEGA1UEAwwKdGVhbTE4LW5l
dIIUPgx10/deQ8ytMTtKGa7+SJllRdAwEwYDVR0lBAwwCgYIKwYBBQUHAwIwCwYD
VR0PBAQDAgeAMA0GCSqGSIb3DQEBCwUAA4IBAQBYSA2j2nlcH/GRg7BOl23w5mc+
fwxSDs4Qvi3peIEbN5astVry2GeO5rZEGfJUuyyVQ5i0lqz10XEL3EUkgKsxbA7W
Dh8Q+F8A/oHeaGUxzfpb7htmU7L+qcdef3MjsMlHMeM3H0zYZvdU46/IDOkRGeMf
6yKlFRO9tmn92I8c45ZMuud13Q2fB3ynf/37WLtWr02Y642lkyCe6ovyxm2/Or52
JKq19Um0Mwz9Af579n6CxHCg48Dgg0vyWs5mSLEPomN5zugt5WleX9MGSUrcJQW6
Nj2/euCsOecZUOLHtGFGBbh53a8W7FIKmEkSaSitS+30lJMxmuil+ggMlXWW
-----END CERTIFICATE-----
