Certificate:
    Data:
        Version: 3 (0x2)
        Serial Number:
            71:af:66:8e:fe:6a:84:ce:31:dd:47:a6:81:70:92:6f
        Signature Algorithm: sha256WithRSAEncryption
        Issuer: CN=team18-net
        Validity
            Not Before: Apr 20 00:10:21 2023 GMT
            Not After : Apr  4 00:10:21 2026 GMT
        Subject: CN=team18-server
        Subject Public Key Info:
            Public Key Algorithm: rsaEncryption
                Public-Key: (2048 bit)
                Modulus:
                    00:ad:d2:78:26:b3:43:55:be:b1:5b:51:99:66:8e:
                    62:4d:6a:95:35:b7:60:d4:66:92:c2:8d:23:86:a3:
                    f7:5e:3d:17:4a:ce:2a:57:af:8e:1b:35:82:d8:db:
                    d9:2c:12:26:1b:e8:ee:53:ea:2a:27:85:d2:b0:5e:
                    5d:5d:e2:33:b6:16:ac:9c:db:14:c8:7f:4c:ee:21:
                    e4:9e:07:14:cf:50:e8:88:b5:0d:db:b1:64:fc:28:
                    c7:85:f6:65:ba:c6:e0:71:4a:ed:71:6a:70:1d:27:
                    c0:4f:00:6d:f0:5a:8f:d9:2e:46:5f:31:9b:5c:a8:
                    0c:55:4d:aa:ae:99:8c:d0:bf:1d:e3:2a:e1:02:e1:
                    f5:c0:f8:b8:b5:6d:8d:7b:56:f8:d1:bf:1d:2c:a8:
                    c0:6e:67:b3:16:53:47:66:dc:72:9d:0e:83:15:b5:
                    e6:04:80:78:bf:a4:92:7f:cc:36:2c:6a:2f:31:94:
                    98:ed:c5:68:67:28:3e:3a:96:73:71:5e:20:36:29:
                    8b:23:4a:48:0b:8a:88:6b:2c:13:26:1a:9b:af:1e:
                    ce:4f:46:4d:2b:7e:2b:00:76:8d:a8:72:5e:f2:02:
                    e7:78:de:5f:f3:9f:39:4a:33:f1:dc:87:c6:7e:16:
                    05:e1:26:18:ad:2f:44:50:c1:76:4f:3f:62:61:ee:
                    30:05
                Exponent: 65537 (0x10001)
        X509v3 extensions:
            X509v3 Basic Constraints: 
                CA:FALSE
            X509v3 Subject Key Identifier: 
                08:5C:B2:F9:DE:07:E4:BD:FC:0B:49:D6:C5:9A:E9:D5:1B:A4:94:34
            X509v3 Authority Key Identifier: 
                keyid:C3:8E:77:97:AF:F1:37:BF:CF:67:F6:E1:6C:A9:EE:C8:46:1F:50:50
                DirName:/CN=team18-net
                serial:3E:0C:75:D3:F7:5E:43:CC:AD:31:3B:4A:19:AE:FE:48:99:65:45:D0
            X509v3 Extended Key Usage: 
                TLS Web Server Authentication
            X509v3 Key Usage: 
                Digital Signature, Key Encipherment
            X509v3 Subject Alternative Name: 
                DNS:team18-server
    Signature Algorithm: sha256WithRSAEncryption
    Signature Value:
        40:4e:5e:f4:34:7b:4e:2c:9b:81:f2:98:b4:bc:df:20:6d:64:
        77:98:26:ba:38:84:15:0d:62:48:e4:cf:42:b1:c1:17:d0:db:
        0c:6c:9d:53:69:42:0f:1f:f3:8a:90:9d:9d:ab:e1:85:8e:9e:
        64:04:f7:aa:95:3d:25:81:d6:f3:d5:38:02:99:47:7a:76:77:
        40:ec:88:e3:fa:1c:f3:6a:02:95:4a:da:44:c0:35:7f:e9:20:
        2a:f9:71:e3:2e:92:91:2e:5d:b4:1b:07:c4:eb:0a:f4:9c:f5:
        39:56:ad:17:d7:78:00:fb:8e:b1:a5:05:5f:3f:92:f6:de:64:
        f4:91:cc:d6:0c:bd:2c:7b:b2:f7:17:35:ac:4c:68:a5:f6:36:
        4f:56:74:6e:f6:06:dd:be:3e:99:93:01:2f:35:60:b0:ea:4a:
        0b:2d:3e:dc:a3:fd:4b:4e:44:b8:08:83:bf:c3:ad:38:3a:1b:
        04:73:ac:bb:d4:63:1d:a6:e2:9d:2c:1b:39:9a:4e:6c:ae:44:
        be:17:52:00:ea:97:66:08:c8:3d:22:e9:b7:32:30:24:35:32:
        1f:d1:7b:9e:13:ca:0e:d1:bf:35:4f:32:dd:30:69:42:fc:e6:
        e2:12:e6:3c:cb:d0:82:dd:4a:9d:25:18:9f:8f:24:62:28:df:
        2d:e9:d2:11
-----BEGIN CERTIFICATE-----
MIIDczCCAlugAwIBAgIQca9mjv5qhM4x3UemgXCSbzANBgkqhkiG9w0BAQsFADAV
MRMwEQYDVQQDDAp0ZWFtMTgtbmV0MB4XDTIzMDQyMDAwMTAyMVoXDTI2MDQwNDAw
MTAyMVowGDEWMBQGA1UEAwwNdGVhbTE4LXNlcnZlcjCCASIwDQYJKoZIhvcNAQEB
BQADggEPADCCAQoCggEBAK3SeCazQ1W+sVtRmWaOYk1qlTW3YNRmksKNI4aj9149
F0rOKlevjhs1gtjb2SwSJhvo7lPqKieF0rBeXV3iM7YWrJzbFMh/TO4h5J4HFM9Q
6Ii1DduxZPwox4X2ZbrG4HFK7XFqcB0nwE8AbfBaj9kuRl8xm1yoDFVNqq6ZjNC/
HeMq4QLh9cD4uLVtjXtW+NG/HSyowG5nsxZTR2bccp0OgxW15gSAeL+kkn/MNixq
LzGUmO3FaGcoPjqWc3FeIDYpiyNKSAuKiGssEyYam68ezk9GTSt+KwB2jahyXvIC
53jeX/OfOUoz8dyHxn4WBeEmGK0vRFDBdk8/YmHuMAUCAwEAAaOBuzCBuDAJBgNV
HRMEAjAAMB0GA1UdDgQWBBQIXLL53gfkvfwLSdbFmunVG6SUNDBQBgNVHSMESTBH
gBTDjneXr/E3v89n9uFsqe7IRh9QUKEZpBcwFTETMBEGA1UEAwwKdGVhbTE4LW5l
dIIUPgx10/deQ8ytMTtKGa7+SJllRdAwEwYDVR0lBAwwCgYIKwYBBQUHAwEwCwYD
VR0PBAQDAgWgMBgGA1UdEQQRMA+CDXRlYW0xOC1zZXJ2ZXIwDQYJKoZIhvcNAQEL
BQADggEBAEBOXvQ0e04sm4HymLS83yBtZHeYJro4hBUNYkjkz0KxwRfQ2wxsnVNp
Qg8f84qQnZ2r4YWOnmQE96qVPSWB1vPVOAKZR3p2d0DsiOP6HPNqApVK2kTANX/p
ICr5ceMukpEuXbQbB8TrCvSc9TlWrRfXeAD7jrGlBV8/kvbeZPSRzNYMvSx7svcX
NaxMaKX2Nk9WdG72Bt2+PpmTAS81YLDqSgstPtyj/UtORLgIg7/DrTg6GwRzrLvU
Yx2m4p0sGzmaTmyuRL4XUgDql2YIyD0i6bcyMCQ1Mh/Re54Tyg7RvzVPMt0waUL8
5uIS5jzL0ILdSp0lGJ+PJGIo3y3p0hE=
-----END CERTIFICATE-----
