Certificate:
    Data:
        Version: 3 (0x2)
        Serial Number:
            ec:77:bc:68:75:1d:ca:b4:76:11:0b:82:58:52:29:e0
        Signature Algorithm: sha256WithRSAEncryption
        Issuer: CN=team18-net
        Validity
            Not Before: Apr 20 22:53:50 2023 GMT
            Not After : Apr  4 22:53:50 2026 GMT
        Subject: CN=team18-server
        Subject Public Key Info:
            Public Key Algorithm: rsaEncryption
                Public-Key: (2048 bit)
                Modulus:
                    00:d0:f9:59:f9:44:5f:66:8b:75:91:b6:45:18:70:
                    49:34:63:e8:0c:4c:52:12:ed:72:85:c8:9e:ea:18:
                    1c:c6:74:e3:e0:86:76:cc:6e:7d:33:46:27:71:04:
                    d3:34:7d:cf:b8:67:ed:95:4d:b1:2e:14:63:96:6b:
                    e9:a5:3d:43:64:76:2e:d2:ea:0a:ec:9d:3f:7c:88:
                    35:09:1d:14:e2:ed:81:39:99:e4:4a:06:31:e9:20:
                    8f:ad:b5:9b:44:ce:ea:25:12:97:ea:0d:65:86:70:
                    4b:a9:31:a6:31:33:b5:3e:fa:15:30:19:0d:bd:59:
                    eb:c0:a4:81:e2:2b:d2:75:15:f2:92:de:ac:57:3a:
                    a7:62:dc:ad:62:d7:e8:e9:1a:65:3a:c2:64:76:db:
                    8b:e5:e0:1a:82:c5:28:7d:3f:06:1f:9e:c3:bd:67:
                    f1:52:d3:72:e1:28:9e:ac:68:54:c6:39:b8:40:a2:
                    1f:e5:22:05:44:d7:02:bd:96:c1:c9:2c:37:6e:0c:
                    8a:90:0b:06:dc:26:38:be:67:2d:4c:96:a3:98:1d:
                    6e:52:08:44:4e:25:e0:d0:02:5c:ef:d5:17:72:6b:
                    ba:62:04:8a:be:03:e6:ae:ca:61:c5:d9:10:9e:7a:
                    2f:f1:74:90:13:e5:18:01:09:59:f8:2c:d7:7b:f0:
                    3f:43
                Exponent: 65537 (0x10001)
        X509v3 extensions:
            X509v3 Basic Constraints: 
                CA:FALSE
            X509v3 Subject Key Identifier: 
                A8:D4:CD:E9:23:17:F8:75:45:A4:26:9A:8E:1A:68:0C:BE:8A:1D:FC
            X509v3 Authority Key Identifier: 
                keyid:E6:95:7B:BE:3B:0C:D8:C2:1B:1E:9C:13:E1:8A:3F:48:E9:4E:73:3A
                DirName:/CN=team18-net
                serial:34:43:36:C1:2D:6B:4E:15:30:86:96:C3:53:E3:BD:7D:09:0A:0E:D9
            X509v3 Extended Key Usage: 
                TLS Web Server Authentication
            X509v3 Key Usage: 
                Digital Signature, Key Encipherment
            X509v3 Subject Alternative Name: 
                DNS:team18-server
    Signature Algorithm: sha256WithRSAEncryption
    Signature Value:
        1b:d2:a2:86:55:50:39:01:19:aa:fb:90:30:cb:a6:dd:3e:81:
        d6:60:6d:52:1d:13:65:17:a3:68:a3:82:03:e4:31:6f:bb:f6:
        b8:f5:b0:fd:59:d6:17:f0:c9:9c:0e:0c:44:27:76:e6:1a:9c:
        7e:8d:99:53:45:ff:58:21:54:39:5f:5e:f5:72:3b:23:70:79:
        84:8c:09:f7:ef:e6:9b:51:95:47:3d:02:79:f4:7c:5c:ec:f8:
        6d:07:89:7a:bd:73:2a:12:ad:e5:4a:6e:0d:a0:46:4b:66:ad:
        58:26:c0:48:fd:27:cd:f8:41:35:1d:cb:a2:6a:b3:ca:6e:b5:
        b1:b3:fa:b6:09:a3:36:0e:63:ce:ff:d1:77:6d:22:2c:a0:f4:
        48:ce:23:9c:79:3a:44:59:6e:fe:f5:08:0a:83:2d:ff:e0:1d:
        45:5d:c7:b5:65:7a:b2:6c:e5:87:85:af:bd:df:81:6a:44:d6:
        30:f5:0a:97:0d:f2:9d:2b:e3:1d:93:2f:12:5a:31:09:1c:f4:
        c9:cc:2b:e8:63:70:c3:ad:62:de:c7:f3:40:6e:4c:ff:19:13:
        d4:f0:8d:aa:5a:0b:f5:33:fd:35:b5:39:ee:01:5f:73:9a:0a:
        f3:69:a7:fa:1b:d8:e5:31:30:89:e1:e7:db:e5:75:8c:84:d1:
        b0:19:77:ca
-----BEGIN CERTIFICATE-----
MIIDdDCCAlygAwIBAgIRAOx3vGh1Hcq0dhELglhSKeAwDQYJKoZIhvcNAQELBQAw
FTETMBEGA1UEAwwKdGVhbTE4LW5ldDAeFw0yMzA0MjAyMjUzNTBaFw0yNjA0MDQy
MjUzNTBaMBgxFjAUBgNVBAMMDXRlYW0xOC1zZXJ2ZXIwggEiMA0GCSqGSIb3DQEB
AQUAA4IBDwAwggEKAoIBAQDQ+Vn5RF9mi3WRtkUYcEk0Y+gMTFIS7XKFyJ7qGBzG
dOPghnbMbn0zRidxBNM0fc+4Z+2VTbEuFGOWa+mlPUNkdi7S6grsnT98iDUJHRTi
7YE5meRKBjHpII+ttZtEzuolEpfqDWWGcEupMaYxM7U++hUwGQ29WevApIHiK9J1
FfKS3qxXOqdi3K1i1+jpGmU6wmR224vl4BqCxSh9PwYfnsO9Z/FS03LhKJ6saFTG
ObhAoh/lIgVE1wK9lsHJLDduDIqQCwbcJji+Zy1MlqOYHW5SCEROJeDQAlzv1Rdy
a7piBIq+A+auymHF2RCeei/xdJAT5RgBCVn4LNd78D9DAgMBAAGjgbswgbgwCQYD
VR0TBAIwADAdBgNVHQ4EFgQUqNTN6SMX+HVFpCaajhpoDL6KHfwwUAYDVR0jBEkw
R4AU5pV7vjsM2MIbHpwT4Yo/SOlOczqhGaQXMBUxEzARBgNVBAMMCnRlYW0xOC1u
ZXSCFDRDNsEta04VMIaWw1PjvX0JCg7ZMBMGA1UdJQQMMAoGCCsGAQUFBwMBMAsG
A1UdDwQEAwIFoDAYBgNVHREEETAPgg10ZWFtMTgtc2VydmVyMA0GCSqGSIb3DQEB
CwUAA4IBAQAb0qKGVVA5ARmq+5Awy6bdPoHWYG1SHRNlF6Noo4ID5DFvu/a49bD9
WdYX8MmcDgxEJ3bmGpx+jZlTRf9YIVQ5X171cjsjcHmEjAn37+abUZVHPQJ59Hxc
7PhtB4l6vXMqEq3lSm4NoEZLZq1YJsBI/SfN+EE1HcuiarPKbrWxs/q2CaM2DmPO
/9F3bSIsoPRIziOceTpEWW7+9QgKgy3/4B1FXce1ZXqybOWHha+934FqRNYw9QqX
DfKdK+Mdky8SWjEJHPTJzCvoY3DDrWLex/NAbkz/GRPU8I2qWgv1M/01tTnuAV9z
mgrzaaf6G9jlMTCJ4efb5XWMhNGwGXfK
-----END CERTIFICATE-----
