Certificate:
    Data:
        Version: 3 (0x2)
        Serial Number:
            67:8a:62:c9:a4:5d:20:cf:8b:c7:fa:b6:00:f8:11:e5
        Signature Algorithm: sha256WithRSAEncryption
        Issuer: CN=team29-net
        Validity
            Not Before: Apr 20 22:54:08 2023 GMT
            Not After : Apr  4 22:54:08 2026 GMT
        Subject: CN=team29-client
        Subject Public Key Info:
            Public Key Algorithm: rsaEncryption
                Public-Key: (2048 bit)
                Modulus:
                    00:d0:88:85:3a:9d:9d:80:7d:5f:7b:1e:8e:84:f0:
                    cf:f0:44:26:e3:b2:29:87:39:3a:82:a7:97:86:f8:
                    17:7b:01:ba:3c:48:48:00:da:9b:f4:de:ee:d9:25:
                    8b:12:a6:22:aa:1b:fe:c3:cb:d6:7c:a3:78:23:5b:
                    60:2e:48:aa:d7:54:32:ca:83:01:4b:87:2d:c8:6f:
                    85:2b:5f:50:2b:a9:49:36:82:fb:4b:35:de:0d:bd:
                    d5:90:70:8a:63:5e:f5:c2:2f:85:8a:c6:61:c7:9b:
                    8b:56:7d:ab:79:50:fa:21:b5:93:cc:06:20:96:dd:
                    bc:33:3e:6f:02:2f:68:b3:e2:02:0a:1b:c3:d2:aa:
                    54:75:e9:51:00:87:3a:22:09:20:8c:06:a7:b6:17:
                    00:86:4a:5d:19:ee:c7:37:16:51:2d:84:5d:a9:48:
                    05:69:43:a7:f9:d3:e0:e8:1d:57:fc:95:0b:56:9e:
                    b1:1f:28:6f:64:e2:35:98:59:e6:8b:5c:ef:d0:e5:
                    50:ed:cb:d4:fb:f5:fc:c5:e3:df:9b:8c:1a:6d:e8:
                    c8:e4:fe:ee:2b:af:e2:ee:07:d7:d0:ff:85:de:2a:
                    1d:25:4a:bb:d8:3c:80:65:fe:26:e2:f1:ca:20:99:
                    97:dc:39:38:23:79:ce:8e:12:2c:ee:6d:bd:c7:d8:
                    4d:3d
                Exponent: 65537 (0x10001)
        X509v3 extensions:
            X509v3 Basic Constraints: 
                CA:FALSE
            X509v3 Subject Key Identifier: 
                25:C3:EF:CD:F5:B9:F7:E2:61:E6:72:B0:6D:5F:B9:92:66:E8:90:1E
            X509v3 Authority Key Identifier: 
                keyid:49:8E:92:84:6E:45:7C:AC:98:42:3E:A8:6C:99:EC:E0:15:E6:2A:DF
                DirName:/CN=team29-net
                serial:28:DD:37:2E:15:27:CB:F8:BB:07:9D:3A:93:E9:48:A7:9E:C7:F5:F8
            X509v3 Extended Key Usage: 
                TLS Web Client Authentication
            X509v3 Key Usage: 
                Digital Signature
    Signature Algorithm: sha256WithRSAEncryption
    Signature Value:
        24:d1:04:71:08:a0:64:f4:94:8a:6e:c3:c3:d6:b4:5f:f2:fc:
        9a:69:94:b0:a0:ad:e3:9c:8d:a4:31:45:fa:af:b2:5d:51:3a:
        13:0f:11:43:76:5a:9f:17:7a:d1:24:65:b1:89:60:a0:14:29:
        1d:df:1b:f2:f5:4b:58:fc:6a:99:11:6a:41:2b:93:38:b2:8c:
        ac:4b:57:ef:a4:5e:1c:54:7a:49:af:95:e3:27:b3:55:eb:65:
        15:c7:e1:23:4f:2f:f7:49:86:d1:d1:44:34:ae:dc:a4:ea:35:
        3f:83:86:2d:6c:03:28:a1:48:70:26:87:1c:f5:2c:0e:f4:b3:
        2e:8d:dc:61:e4:2b:45:ca:fa:25:8e:f6:70:29:e2:27:33:8b:
        ce:85:4e:69:e0:18:fd:bd:ce:39:ac:7b:6a:e8:c9:2c:48:82:
        d5:76:9d:9e:b2:ff:a2:3d:00:41:5e:15:44:be:74:b8:03:a8:
        a3:fd:6f:58:f7:af:87:8a:d3:79:ef:12:77:21:e6:95:47:b2:
        29:1e:ff:42:31:f9:1a:9b:40:97:a5:d7:d1:93:32:92:22:1e:
        b6:97:dc:0f:f8:1a:08:b7:07:c2:c2:81:9a:10:34:49:a2:c1:
        f0:16:a6:63:18:30:39:fb:1f:66:a3:e9:57:94:84:41:9d:ab:
        21:27:f7:c2
-----BEGIN CERTIFICATE-----
MIIDWTCCAkGgAwIBAgIQZ4piyaRdIM+Lx/q2APgR5TANBgkqhkiG9w0BAQsFADAV
MRMwEQYDVQQDDAp0ZWFtMjktbmV0MB4XDTIzMDQyMDIyNTQwOFoXDTI2MDQwNDIy
NTQwOFowGDEWMBQGA1UEAwwNdGVhbTI5LWNsaWVudDCCASIwDQYJKoZIhvcNAQEB
BQADggEPADCCAQoCggEBANCIhTqdnYB9X3sejoTwz/BEJuOyKYc5OoKnl4b4F3sB
ujxISADam/Te7tklixKmIqob/sPL1nyjeCNbYC5IqtdUMsqDAUuHLchvhStfUCup
STaC+0s13g291ZBwimNe9cIvhYrGYcebi1Z9q3lQ+iG1k8wGIJbdvDM+bwIvaLPi
Agobw9KqVHXpUQCHOiIJIIwGp7YXAIZKXRnuxzcWUS2EXalIBWlDp/nT4OgdV/yV
C1aesR8ob2TiNZhZ5otc79DlUO3L1Pv1/MXj35uMGm3oyOT+7iuv4u4H19D/hd4q
HSVKu9g8gGX+JuLxyiCZl9w5OCN5zo4SLO5tvcfYTT0CAwEAAaOBoTCBnjAJBgNV
HRMEAjAAMB0GA1UdDgQWBBQlw+/N9bn34mHmcrBtX7mSZuiQHjBQBgNVHSMESTBH
gBRJjpKEbkV8rJhCPqhsmezgFeYq36EZpBcwFTETMBEGA1UEAwwKdGVhbTI5LW5l
dIIUKN03LhUny/i7B506k+lIp57H9fgwEwYDVR0lBAwwCgYIKwYBBQUHAwIwCwYD
VR0PBAQDAgeAMA0GCSqGSIb3DQEBCwUAA4IBAQAk0QRxCKBk9JSKbsPD1rRf8vya
aZSwoK3jnI2kMUX6r7JdUToTDxFDdlqfF3rRJGWxiWCgFCkd3xvy9UtY/GqZEWpB
K5M4soysS1fvpF4cVHpJr5XjJ7NV62UVx+EjTy/3SYbR0UQ0rtyk6jU/g4YtbAMo
oUhwJocc9SwO9LMujdxh5CtFyvoljvZwKeInM4vOhU5p4Bj9vc45rHtq6MksSILV
dp2esv+iPQBBXhVEvnS4A6ij/W9Y96+HitN57xJ3IeaVR7IpHv9CMfkam0CXpdfR
kzKSIh62l9wP+BoItwfCwoGaEDRJosHwFqZjGDA5+x9mo+lXlIRBnashJ/fC
-----END CERTIFICATE-----
