Certificate:
    Data:
        Version: 3 (0x2)
        Serial Number:
            05:1d:25:d3:5f:0c:d3:d3:ae:44:f4:46:ac:97:57:13
        Signature Algorithm: sha256WithRSAEncryption
        Issuer: CN=team15-net
        Validity
            Not Before: Apr 20 00:10:16 2023 GMT
            Not After : Apr  4 00:10:16 2026 GMT
        Subject: CN=team15-server
        Subject Public Key Info:
            Public Key Algorithm: rsaEncryption
                Public-Key: (2048 bit)
                Modulus:
                    00:9f:55:cf:ee:53:ae:61:d2:78:23:43:12:5d:a3:
                    71:de:4d:4e:34:21:02:87:7c:fe:c1:5c:cd:a1:3b:
                    bc:a3:0f:00:0b:04:0c:ae:ac:7a:4f:8a:56:be:a5:
                    c6:38:ac:a5:83:6c:25:aa:8b:b6:c9:a8:76:30:01:
                    10:0d:13:35:cb:cd:e7:d6:19:28:3d:c7:88:3b:fb:
                    69:d8:61:f1:e1:f8:ef:1b:28:f0:cf:86:93:27:eb:
                    64:9e:29:94:c5:56:20:37:6c:cc:84:ca:12:41:db:
                    e5:19:68:0f:f9:47:1a:08:e2:09:8b:26:ca:48:5c:
                    d9:8b:70:ed:c3:a9:10:9e:02:ea:70:9f:0b:e9:96:
                    1e:ab:9c:cf:6b:22:e5:be:b5:9c:ca:85:fa:a6:ed:
                    23:9c:c0:ee:80:2a:af:df:e7:88:bc:46:06:78:1d:
                    f2:9f:e9:87:d9:cb:50:ca:44:8f:08:e3:a4:ba:d6:
                    e7:c5:e4:29:88:eb:d4:54:0b:02:8d:38:f0:00:51:
                    ff:a9:36:cd:48:41:47:86:f7:63:6d:a8:0e:ce:52:
                    f0:38:e7:2e:7a:44:92:ad:b4:bd:2a:f6:bc:20:3c:
                    b1:b1:88:60:99:7e:3e:23:02:33:08:61:09:2a:d9:
                    fc:bd:5f:a5:59:cf:00:a4:04:ce:86:1c:4f:41:a5:
                    c4:c1
                Exponent: 65537 (0x10001)
        X509v3 extensions:
            X509v3 Basic Constraints: 
                CA:FALSE
            X509v3 Subject Key Identifier: 
                29:61:BA:0C:97:94:6F:28:F9:92:0F:C2:D5:18:37:A5:90:FF:9B:28
            X509v3 Authority Key Identifier: 
                keyid:15:97:1C:9A:31:2B:1F:03:5B:48:9E:F5:21:0E:2A:34:C4:CD:70:09
                DirName:/CN=team15-net
                serial:17:42:A0:C2:71:38:8E:92:DC:C9:5F:D8:9A:20:6A:C1:D6:E5:12:3A
            X509v3 Extended Key Usage: 
                TLS Web Server Authentication
            X509v3 Key Usage: 
                Digital Signature, Key Encipherment
            X509v3 Subject Alternative Name: 
                DNS:team15-server
    Signature Algorithm: sha256WithRSAEncryption
    Signature Value:
        3f:fc:59:85:cc:3c:28:32:e8:99:81:33:3b:b3:ea:9f:dc:e4:
        e2:6f:3e:bf:e2:be:d6:ca:90:b9:77:99:a7:e0:eb:a7:dd:25:
        95:30:05:95:7b:d9:82:50:8a:77:b4:cf:d4:67:2f:ec:c1:d3:
        7f:92:4d:4a:29:d0:5a:41:55:e6:91:f1:6f:b0:3d:d5:43:63:
        fd:15:cb:87:37:04:1b:ba:de:42:1e:f3:ea:f4:22:df:50:20:
        2d:3f:cc:c7:1c:40:91:96:cd:fa:eb:71:fb:68:c9:49:23:86:
        43:e9:1b:cc:4c:32:0c:af:f4:5f:c0:3f:af:27:50:f2:08:bc:
        2b:be:8f:a8:09:99:dd:94:07:16:aa:e8:a1:26:17:c6:6b:ae:
        70:e9:96:43:28:13:f7:07:c7:f0:b1:27:a4:93:6b:58:c6:d5:
        f1:9a:c8:1c:b5:60:f9:52:3d:dc:55:f9:71:eb:5c:a1:9b:97:
        25:dd:a6:46:ba:59:86:8b:47:3e:e9:8b:45:a5:16:f6:bd:c2:
        90:7e:40:c6:ed:a0:09:56:8a:42:77:fe:50:31:4e:73:2f:93:
        cc:7b:86:75:98:e4:d5:f7:cb:0b:d1:a5:23:e9:0a:0f:83:72:
        ce:72:f0:8a:ad:aa:cf:a7:50:e7:2e:ae:df:42:4b:fc:16:6c:
        8f:16:27:33
-----BEGIN CERTIFICATE-----
MIIDczCCAlugAwIBAgIQBR0l018M09OuRPRGrJdXEzANBgkqhkiG9w0BAQsFADAV
MRMwEQYDVQQDDAp0ZWFtMTUtbmV0MB4XDTIzMDQyMDAwMTAxNloXDTI2MDQwNDAw
MTAxNlowGDEWMBQGA1UEAwwNdGVhbTE1LXNlcnZlcjCCASIwDQYJKoZIhvcNAQEB
BQADggEPADCCAQoCggEBAJ9Vz+5TrmHSeCNDEl2jcd5NTjQhAod8/sFczaE7vKMP
AAsEDK6sek+KVr6lxjispYNsJaqLtsmodjABEA0TNcvN59YZKD3HiDv7adhh8eH4
7xso8M+GkyfrZJ4plMVWIDdszITKEkHb5RloD/lHGgjiCYsmykhc2Ytw7cOpEJ4C
6nCfC+mWHqucz2si5b61nMqF+qbtI5zA7oAqr9/niLxGBngd8p/ph9nLUMpEjwjj
pLrW58XkKYjr1FQLAo048ABR/6k2zUhBR4b3Y22oDs5S8DjnLnpEkq20vSr2vCA8
sbGIYJl+PiMCMwhhCSrZ/L1fpVnPAKQEzoYcT0GlxMECAwEAAaOBuzCBuDAJBgNV
HRMEAjAAMB0GA1UdDgQWBBQpYboMl5RvKPmSD8LVGDelkP+bKDBQBgNVHSMESTBH
gBQVlxyaMSsfA1tInvUhDio0xM1wCaEZpBcwFTETMBEGA1UEAwwKdGVhbTE1LW5l
dIIUF0KgwnE4jpLcyV/YmiBqwdblEjowEwYDVR0lBAwwCgYIKwYBBQUHAwEwCwYD
VR0PBAQDAgWgMBgGA1UdEQQRMA+CDXRlYW0xNS1zZXJ2ZXIwDQYJKoZIhvcNAQEL
BQADggEBAD/8WYXMPCgy6JmBMzuz6p/c5OJvPr/ivtbKkLl3mafg66fdJZUwBZV7
2YJQine0z9RnL+zB03+STUop0FpBVeaR8W+wPdVDY/0Vy4c3BBu63kIe8+r0It9Q
IC0/zMccQJGWzfrrcftoyUkjhkPpG8xMMgyv9F/AP68nUPIIvCu+j6gJmd2UBxaq
6KEmF8ZrrnDplkMoE/cHx/CxJ6STa1jG1fGayBy1YPlSPdxV+XHrXKGblyXdpka6
WYaLRz7pi0WlFva9wpB+QMbtoAlWikJ3/lAxTnMvk8x7hnWY5NX3ywvRpSPpCg+D
cs5y8Iqtqs+nUOcurt9CS/wWbI8WJzM=
-----END CERTIFICATE-----
