Certificate:
    Data:
        Version: 3 (0x2)
        Serial Number:
            ad:e6:d1:6b:9f:20:0e:54:76:21:01:d2:e0:41:e7:ef
        Signature Algorithm: sha256WithRSAEncryption
        Issuer: CN=team27-net
        Validity
            Not Before: Apr 20 00:10:35 2023 GMT
            Not After : Apr  4 00:10:35 2026 GMT
        Subject: CN=team27-client
        Subject Public Key Info:
            Public Key Algorithm: rsaEncryption
                Public-Key: (2048 bit)
                Modulus:
                    00:97:25:78:5a:3a:a2:89:09:9f:5b:16:1c:a5:5e:
                    a1:1c:38:7b:d6:c6:22:f1:a5:d5:8c:73:a0:b3:c1:
                    8f:53:c2:b2:cc:de:03:f1:20:c7:d6:16:39:d6:05:
                    cc:7f:1f:00:c1:07:a8:90:0f:2f:6b:e8:a5:eb:9d:
                    99:eb:60:bd:31:91:66:36:2b:c4:80:ee:a7:1e:ad:
                    e1:e8:1a:e0:8f:7a:f3:92:79:94:0f:0f:f9:f5:cb:
                    f0:30:6c:21:30:6b:4d:1a:32:e1:db:80:c6:40:bc:
                    4c:f4:52:57:8f:46:2b:3f:f8:d3:6c:1d:ff:25:ad:
                    88:2c:38:b7:cb:16:b5:b7:bb:89:c4:1e:a9:33:53:
                    de:c3:9e:2e:3b:d1:7e:6a:11:91:30:ee:c6:da:a5:
                    a0:ec:de:a3:cc:e6:b6:1c:32:d9:f6:30:65:d6:bd:
                    96:af:53:2f:98:84:78:ff:4d:7a:2d:81:27:a3:d1:
                    75:ae:e5:df:ae:5b:05:60:65:ed:06:81:9e:0e:42:
                    23:98:ae:d6:bc:4f:c2:ed:bc:d3:72:87:e9:b3:87:
                    3b:9b:db:9b:fc:18:74:6e:44:82:61:8b:d4:bb:aa:
                    c8:40:03:ee:2a:11:4b:7b:2d:c9:50:b6:3b:6f:88:
                    52:df:58:3f:61:d8:6a:34:41:4d:80:1e:5b:2f:35:
                    53:cd
                Exponent: 65537 (0x10001)
        X509v3 extensions:
            X509v3 Basic Constraints: 
                CA:FALSE
            X509v3 Subject Key Identifier: 
                3E:F7:4E:7F:3B:74:8C:0A:C8:43:77:EC:DB:48:DF:F5:A0:84:E4:F4
            X509v3 Authority Key Identifier: 
                keyid:E4:14:77:94:25:07:19:C6:10:44:A4:37:6F:0D:47:58:96:70:87:7A
                DirName:/CN=team27-net
                serial:64:2B:40:F5:65:D5:D4:6F:B0:C5:74:B0:75:00:4F:E1:C6:40:F2:4E
            X509v3 Extended Key Usage: 
                TLS Web Client Authentication
            X509v3 Key Usage: 
                Digital Signature
    Signature Algorithm: sha256WithRSAEncryption
    Signature Value:
        89:06:d6:e2:37:6f:88:3c:92:99:b4:1f:4a:01:79:28:37:9b:
        c9:5e:06:2a:f9:bd:10:e8:25:7b:b9:a8:67:b0:ae:0c:b2:47:
        0c:1f:ac:24:94:41:5c:54:04:ca:32:5d:7e:13:8a:df:0c:9f:
        2d:5c:fa:01:0e:b8:84:ab:0b:11:56:52:03:21:0d:6d:c5:ca:
        a7:24:95:f7:6f:8e:f1:ef:08:c8:bc:56:1e:3b:09:db:74:5b:
        0e:5b:bc:46:2d:b9:54:77:f6:d2:07:9e:81:44:ee:af:ad:ff:
        5f:c6:7c:d2:91:49:e6:a1:cd:2b:0a:b2:63:54:9e:18:1c:00:
        e7:aa:b2:8f:fb:91:ff:a2:05:ee:ab:83:1d:43:ab:53:d0:c5:
        df:00:11:1c:ff:e0:62:e8:66:ef:a5:75:29:87:bb:5c:74:13:
        2c:32:36:a9:a2:96:25:43:51:fe:3a:50:1d:00:9a:0f:4b:b4:
        56:bf:5e:d3:22:5a:35:ad:af:a4:32:c5:bc:4d:1f:01:93:83:
        58:17:7a:7d:07:8e:6c:bf:44:24:8f:51:4d:0e:64:f1:08:07:
        53:7c:53:d7:ee:96:a8:2c:15:44:52:de:a8:54:87:bd:f6:d8:
        25:ae:45:cf:e4:d3:bc:de:c3:19:10:97:a7:64:7b:e9:31:14:
        b0:77:ab:ad
-----BEGIN CERTIFICATE-----
MIIDWjCCAkKgAwIBAgIRAK3m0WufIA5UdiEB0uBB5+8wDQYJKoZIhvcNAQELBQAw
FTETMBEGA1UEAwwKdGVhbTI3LW5ldDAeFw0yMzA0MjAwMDEwMzVaFw0yNjA0MDQw
MDEwMzVaMBgxFjAUBgNVBAMMDXRlYW0yNy1jbGllbnQwggEiMA0GCSqGSIb3DQEB
AQUAA4IBDwAwggEKAoIBAQCXJXhaOqKJCZ9bFhylXqEcOHvWxiLxpdWMc6CzwY9T
wrLM3gPxIMfWFjnWBcx/HwDBB6iQDy9r6KXrnZnrYL0xkWY2K8SA7qcereHoGuCP
evOSeZQPD/n1y/AwbCEwa00aMuHbgMZAvEz0UlePRis/+NNsHf8lrYgsOLfLFrW3
u4nEHqkzU97Dni470X5qEZEw7sbapaDs3qPM5rYcMtn2MGXWvZavUy+YhHj/TXot
gSej0XWu5d+uWwVgZe0GgZ4OQiOYrta8T8LtvNNyh+mzhzub25v8GHRuRIJhi9S7
qshAA+4qEUt7LclQtjtviFLfWD9h2Go0QU2AHlsvNVPNAgMBAAGjgaEwgZ4wCQYD
VR0TBAIwADAdBgNVHQ4EFgQUPvdOfzt0jArIQ3fs20jf9aCE5PQwUAYDVR0jBEkw
R4AU5BR3lCUHGcYQRKQ3bw1HWJZwh3qhGaQXMBUxEzARBgNVBAMMCnRlYW0yNy1u
ZXSCFGQrQPVl1dRvsMV0sHUAT+HGQPJOMBMGA1UdJQQMMAoGCCsGAQUFBwMCMAsG
A1UdDwQEAwIHgDANBgkqhkiG9w0BAQsFAAOCAQEAiQbW4jdviDySmbQfSgF5KDeb
yV4GKvm9EOgle7moZ7CuDLJHDB+sJJRBXFQEyjJdfhOK3wyfLVz6AQ64hKsLEVZS
AyENbcXKpySV92+O8e8IyLxWHjsJ23RbDlu8Ri25VHf20geegUTur63/X8Z80pFJ
5qHNKwqyY1SeGBwA56qyj/uR/6IF7quDHUOrU9DF3wARHP/gYuhm76V1KYe7XHQT
LDI2qaKWJUNR/jpQHQCaD0u0Vr9e0yJaNa2vpDLFvE0fAZODWBd6fQeObL9EJI9R
TQ5k8QgHU3xT1+6WqCwVRFLeqFSHvfbYJa5Fz+TTvN7DGRCXp2R76TEUsHerrQ==
-----END CERTIFICATE-----
