Certificate:
    Data:
        Version: 3 (0x2)
        Serial Number:
            05:41:73:b1:55:fd:af:3b:78:5d:29:16:d1:95:68:47
        Signature Algorithm: sha256WithRSAEncryption
        Issuer: CN=team27-net
        Validity
            Not Before: Apr 20 00:10:35 2023 GMT
            Not After : Apr  4 00:10:35 2026 GMT
        Subject: CN=team27-server
        Subject Public Key Info:
            Public Key Algorithm: rsaEncryption
                Public-Key: (2048 bit)
                Modulus:
                    00:a7:73:62:4f:22:93:76:19:02:dd:ee:15:c2:b9:
                    eb:ab:84:7b:4b:a3:4b:b1:48:0b:59:60:54:6f:2c:
                    fe:16:a4:7d:a8:ee:bf:8b:a2:e5:c9:43:13:94:95:
                    c6:be:20:9b:a4:ad:7d:02:69:1b:51:bd:fc:f1:2e:
                    21:78:a6:9f:68:74:48:6b:47:3b:ae:49:63:cb:4a:
                    46:79:0a:7b:66:3d:a9:4c:a5:b7:6d:e6:95:15:bc:
                    91:1f:f4:1e:f5:2c:41:b1:59:27:31:d3:00:64:f5:
                    4a:9f:43:02:7b:af:a2:1c:67:a0:03:f4:45:a1:61:
                    57:7a:a8:4e:f3:30:21:bf:7f:c2:af:8e:27:50:82:
                    22:ab:69:ec:f9:e5:60:7a:d1:ce:31:2f:02:7c:62:
                    28:78:3b:c1:74:dc:67:a1:dd:bc:42:25:04:63:da:
                    8e:bd:90:81:d0:d9:b0:33:8a:e1:db:79:2a:76:bc:
                    12:1e:90:fd:70:30:66:25:d9:72:67:e2:d9:5c:a4:
                    a3:66:b1:76:9f:c2:b8:dd:f9:5e:cf:8c:c2:a8:5f:
                    cb:8b:db:2a:28:9b:cd:f7:82:86:24:b0:7f:9b:a0:
                    c0:ce:23:17:3d:24:8c:09:61:f4:51:d0:2a:14:38:
                    99:0a:bd:ff:40:49:39:44:c7:a6:d3:12:d7:cd:de:
                    ee:31
                Exponent: 65537 (0x10001)
        X509v3 extensions:
            X509v3 Basic Constraints: 
                CA:FALSE
            X509v3 Subject Key Identifier: 
                21:B2:4E:54:10:06:71:EE:96:DE:54:2E:66:24:F4:88:99:64:BC:35
            X509v3 Authority Key Identifier: 
                keyid:E4:14:77:94:25:07:19:C6:10:44:A4:37:6F:0D:47:58:96:70:87:7A
                DirName:/CN=team27-net
                serial:64:2B:40:F5:65:D5:D4:6F:B0:C5:74:B0:75:00:4F:E1:C6:40:F2:4E
            X509v3 Extended Key Usage: 
                TLS Web Server Authentication
            X509v3 Key Usage: 
                Digital Signature, Key Encipherment
            X509v3 Subject Alternative Name: 
                DNS:team27-server
    Signature Algorithm: sha256WithRSAEncryption
    Signature Value:
        6c:f9:d0:49:cb:d2:87:c7:46:19:21:a4:48:d8:35:33:ca:34:
        92:2b:01:e1:c1:28:f7:db:74:6d:0d:ae:c6:03:42:e0:1c:2a:
        8c:c1:5f:8f:0b:9f:02:5d:57:15:e1:94:b9:78:b3:a4:0c:e8:
        d5:34:ba:46:7b:d3:03:40:12:3e:36:7a:6f:e3:0e:e0:62:2b:
        8e:8e:1a:60:56:87:28:38:ec:3e:14:b1:ae:a3:df:ae:f2:17:
        c5:a7:7e:93:6e:d9:1e:67:d4:c5:36:56:57:89:1d:fb:fe:18:
        88:ed:84:2a:95:40:4f:02:5e:c7:ef:ba:1d:bb:99:b7:53:d9:
        15:8c:c4:04:8a:95:6d:5a:5c:af:a3:99:9f:9c:d7:fc:4b:95:
        a7:f4:65:56:a3:b8:45:a7:bb:6f:71:e3:6a:9c:c5:ca:82:1c:
        a8:65:17:9c:bb:82:d1:70:42:29:55:8f:b7:5c:ce:80:18:5b:
        60:01:cf:8c:46:8b:33:5a:bd:4d:f7:06:12:a9:bd:73:58:69:
        b4:ca:d1:e7:b9:fc:57:eb:65:40:87:c8:cf:94:cd:94:00:f1:
        8e:34:77:70:bf:c4:b6:13:aa:57:59:16:60:ad:cc:16:80:50:
        39:29:c9:2a:18:33:74:62:2f:ec:17:51:b7:3f:91:52:1a:72:
        19:68:25:e5
-----BEGIN CERTIFICATE-----
MIIDczCCAlugAwIBAgIQBUFzsVX9rzt4XSkW0ZVoRzANBgkqhkiG9w0BAQsFADAV
MRMwEQYDVQQDDAp0ZWFtMjctbmV0MB4XDTIzMDQyMDAwMTAzNVoXDTI2MDQwNDAw
MTAzNVowGDEWMBQGA1UEAwwNdGVhbTI3LXNlcnZlcjCCASIwDQYJKoZIhvcNAQEB
BQADggEPADCCAQoCggEBAKdzYk8ik3YZAt3uFcK566uEe0ujS7FIC1lgVG8s/hak
fajuv4ui5clDE5SVxr4gm6StfQJpG1G9/PEuIXimn2h0SGtHO65JY8tKRnkKe2Y9
qUylt23mlRW8kR/0HvUsQbFZJzHTAGT1Sp9DAnuvohxnoAP0RaFhV3qoTvMwIb9/
wq+OJ1CCIqtp7PnlYHrRzjEvAnxiKHg7wXTcZ6HdvEIlBGPajr2QgdDZsDOK4dt5
Kna8Eh6Q/XAwZiXZcmfi2Vyko2axdp/CuN35Xs+Mwqhfy4vbKiibzfeChiSwf5ug
wM4jFz0kjAlh9FHQKhQ4mQq9/0BJOUTHptMS183e7jECAwEAAaOBuzCBuDAJBgNV
HRMEAjAAMB0GA1UdDgQWBBQhsk5UEAZx7pbeVC5mJPSImWS8NTBQBgNVHSMESTBH
gBTkFHeUJQcZxhBEpDdvDUdYlnCHeqEZpBcwFTETMBEGA1UEAwwKdGVhbTI3LW5l
dIIUZCtA9WXV1G+wxXSwdQBP4cZA8k4wEwYDVR0lBAwwCgYIKwYBBQUHAwEwCwYD
VR0PBAQDAgWgMBgGA1UdEQQRMA+CDXRlYW0yNy1zZXJ2ZXIwDQYJKoZIhvcNAQEL
BQADggEBAGz50EnL0ofHRhkhpEjYNTPKNJIrAeHBKPfbdG0NrsYDQuAcKozBX48L
nwJdVxXhlLl4s6QM6NU0ukZ70wNAEj42em/jDuBiK46OGmBWhyg47D4Usa6j367y
F8WnfpNu2R5n1MU2VleJHfv+GIjthCqVQE8CXsfvuh27mbdT2RWMxASKlW1aXK+j
mZ+c1/xLlaf0ZVajuEWnu29x42qcxcqCHKhlF5y7gtFwQilVj7dczoAYW2ABz4xG
izNavU33BhKpvXNYabTK0ee5/FfrZUCHyM+UzZQA8Y40d3C/xLYTqldZFmCtzBaA
UDkpySoYM3RiL+wXUbc/kVIachloJeU=
-----END CERTIFICATE-----
