Certificate:
    Data:
        Version: 3 (0x2)
        Serial Number:
            1a:8d:f7:d6:74:6e:b3:cd:3d:e0:28:dc:14:a5:40:39
        Signature Algorithm: sha256WithRSAEncryption
        Issuer: CN=team28-net
        Validity
            Not Before: Apr 20 22:54:07 2023 GMT
            Not After : Apr  4 22:54:07 2026 GMT
        Subject: CN=team28-server
        Subject Public Key Info:
            Public Key Algorithm: rsaEncryption
                Public-Key: (2048 bit)
                Modulus:
                    00:b8:1e:02:8c:77:ad:4e:6f:0c:51:1a:81:40:9c:
                    f8:ba:3b:25:0f:fa:bb:1e:07:71:ed:69:a1:2e:b0:
                    cc:fd:93:b5:12:eb:a0:dc:ac:3c:17:91:71:48:60:
                    e2:0b:9f:ce:d7:7c:ba:09:85:be:8d:bf:91:60:98:
                    99:25:52:53:cb:33:c4:48:fd:6a:49:82:0d:c4:79:
                    bf:c2:4a:76:3a:a6:6a:19:a6:9a:2c:6b:8b:38:0c:
                    f1:6e:28:6b:f1:19:8d:83:d6:c9:c0:fd:3c:91:89:
                    f5:8e:2a:8c:03:07:a4:54:cd:3c:3c:fc:7c:00:8a:
                    20:ec:4a:0a:8f:69:87:29:a1:9f:da:17:81:19:d5:
                    13:af:d5:09:7a:cb:f6:4a:37:4b:64:08:5f:55:be:
                    3d:6a:cc:27:06:61:c1:89:f7:13:99:09:d4:4e:5f:
                    e6:84:c5:e5:1a:eb:f9:ce:8f:85:81:79:a0:9f:15:
                    78:0a:16:16:58:84:1d:66:c1:79:2c:47:7a:e1:8e:
                    f4:8e:02:de:0d:7a:98:73:6e:08:27:7c:b0:e4:f5:
                    07:be:4d:67:14:3d:d3:fa:59:cb:f1:ac:b1:13:f0:
                    22:a3:ca:ae:f4:ef:8e:f2:0c:0b:22:75:75:85:2a:
                    81:cd:40:c7:58:81:9a:2b:de:d3:fd:88:ef:c3:67:
                    bb:5b
                Exponent: 65537 (0x10001)
        X509v3 extensions:
            X509v3 Basic Constraints: 
                CA:FALSE
            X509v3 Subject Key Identifier: 
                78:7C:74:D8:76:16:4F:96:D1:21:D6:60:0B:16:70:34:E7:4E:B2:FB
            X509v3 Authority Key Identifier: 
                keyid:81:EE:23:35:32:07:47:5C:1E:16:C6:20:2D:EE:BB:02:8C:52:57:F2
                DirName:/CN=team28-net
                serial:28:92:E2:BF:4C:A8:D8:D1:62:9D:73:CF:8B:71:0C:48:1C:E2:31:41
            X509v3 Extended Key Usage: 
                TLS Web Server Authentication
            X509v3 Key Usage: 
                Digital Signature, Key Encipherment
            X509v3 Subject Alternative Name: 
                DNS:team28-server
    Signature Algorithm: sha256WithRSAEncryption
    Signature Value:
        3c:e8:89:3e:c3:30:6b:8b:13:62:8c:9a:48:db:99:aa:3b:ea:
        a7:d6:aa:90:92:43:34:ab:30:a3:27:ed:37:48:eb:1a:53:50:
        19:9f:50:05:ca:37:45:fd:6a:9e:50:76:81:ae:85:ed:42:d5:
        d9:88:92:3f:7a:f0:51:06:93:c0:da:a6:86:9f:a6:16:c2:b3:
        8b:5f:c3:d4:26:55:22:49:71:ba:3b:e1:26:19:2b:b5:40:68:
        72:15:f8:93:02:81:3e:bf:b4:7e:e8:86:27:12:4c:25:fb:c2:
        ae:ef:df:d0:bd:bd:52:20:47:52:01:cb:0e:21:c6:a4:b8:5f:
        27:d3:d8:ab:c0:1c:99:99:31:96:7e:c0:b6:12:7b:ed:aa:35:
        30:02:aa:81:8e:9b:c3:f0:31:3e:aa:55:9a:f2:1d:86:df:ad:
        a6:1d:6b:fb:d6:61:3e:a8:ce:bc:3a:17:ef:dd:fb:37:cd:d5:
        7a:ad:6d:cb:ff:7e:9a:a4:20:f0:3b:6c:de:ea:ae:25:90:19:
        29:b2:ce:5c:5e:c1:2e:67:87:bc:7d:78:e0:be:e5:84:d5:8b:
        78:69:62:10:79:fe:4c:37:e9:b5:3f:78:e9:34:8d:5c:cf:4c:
        e1:75:a4:b9:e9:d2:ec:a1:43:3b:32:18:02:c6:3d:ed:17:4c:
        bf:4b:4b:1c
-----BEGIN CERTIFICATE-----
MIIDczCCAlugAwIBAgIQGo331nRus8094CjcFKVAOTANBgkqhkiG9w0BAQsFADAV
MRMwEQYDVQQDDAp0ZWFtMjgtbmV0MB4XDTIzMDQyMDIyNTQwN1oXDTI2MDQwNDIy
NTQwN1owGDEWMBQGA1UEAwwNdGVhbTI4LXNlcnZlcjCCASIwDQYJKoZIhvcNAQEB
BQADggEPADCCAQoCggEBALgeAox3rU5vDFEagUCc+Lo7JQ/6ux4Hce1poS6wzP2T
tRLroNysPBeRcUhg4gufztd8ugmFvo2/kWCYmSVSU8szxEj9akmCDcR5v8JKdjqm
ahmmmixrizgM8W4oa/EZjYPWycD9PJGJ9Y4qjAMHpFTNPDz8fACKIOxKCo9phymh
n9oXgRnVE6/VCXrL9ko3S2QIX1W+PWrMJwZhwYn3E5kJ1E5f5oTF5Rrr+c6PhYF5
oJ8VeAoWFliEHWbBeSxHeuGO9I4C3g16mHNuCCd8sOT1B75NZxQ90/pZy/GssRPw
IqPKrvTvjvIMCyJ1dYUqgc1Ax1iBmive0/2I78Nnu1sCAwEAAaOBuzCBuDAJBgNV
HRMEAjAAMB0GA1UdDgQWBBR4fHTYdhZPltEh1mALFnA0506y+zBQBgNVHSMESTBH
gBSB7iM1MgdHXB4WxiAt7rsCjFJX8qEZpBcwFTETMBEGA1UEAwwKdGVhbTI4LW5l
dIIUKJLiv0yo2NFinXPPi3EMSBziMUEwEwYDVR0lBAwwCgYIKwYBBQUHAwEwCwYD
VR0PBAQDAgWgMBgGA1UdEQQRMA+CDXRlYW0yOC1zZXJ2ZXIwDQYJKoZIhvcNAQEL
BQADggEBADzoiT7DMGuLE2KMmkjbmao76qfWqpCSQzSrMKMn7TdI6xpTUBmfUAXK
N0X9ap5QdoGuhe1C1dmIkj968FEGk8DapoafphbCs4tfw9QmVSJJcbo74SYZK7VA
aHIV+JMCgT6/tH7ohicSTCX7wq7v39C9vVIgR1IByw4hxqS4XyfT2KvAHJmZMZZ+
wLYSe+2qNTACqoGOm8PwMT6qVZryHYbfraYda/vWYT6ozrw6F+/d+zfN1Xqtbcv/
fpqkIPA7bN7qriWQGSmyzlxewS5nh7x9eOC+5YTVi3hpYhB5/kw36bU/eOk0jVzP
TOF1pLnp0uyhQzsyGALGPe0XTL9LSxw=
-----END CERTIFICATE-----
