Certificate:
    Data:
        Version: 3 (0x2)
        Serial Number:
            58:1f:bb:94:72:bb:cc:60:31:be:67:32:03:03:14:1a
        Signature Algorithm: sha256WithRSAEncryption
        Issuer: CN=team28-net
        Validity
            Not Before: Apr 20 00:10:36 2023 GMT
            Not After : Apr  4 00:10:36 2026 GMT
        Subject: CN=team28-server
        Subject Public Key Info:
            Public Key Algorithm: rsaEncryption
                Public-Key: (2048 bit)
                Modulus:
                    00:db:40:88:73:5f:6c:1a:dd:c2:e9:05:71:c6:71:
                    ec:85:c6:1e:27:e5:94:ef:38:c0:d1:21:4f:a0:72:
                    63:ec:30:c8:87:8d:71:a5:42:be:bb:52:73:49:5e:
                    47:82:4b:2f:d5:37:96:af:41:4c:09:3f:0a:41:07:
                    76:88:1a:b6:38:f7:b4:73:36:d4:3c:77:9a:a0:29:
                    28:e5:6b:04:30:30:17:68:ac:cd:e2:eb:bd:1f:15:
                    fe:94:80:0b:ba:33:0a:fd:4d:33:05:50:ae:6a:c9:
                    12:c2:ed:6d:04:85:31:6a:03:a6:15:97:1e:2d:31:
                    57:09:9f:45:33:8c:b5:ce:09:54:53:8a:db:72:2a:
                    30:57:5d:00:ba:26:4f:9e:c9:ec:b8:f4:9f:d9:2d:
                    9f:1a:e2:0d:40:4a:5f:f0:36:f2:3e:06:d8:70:7a:
                    b9:fc:ec:8a:7e:1f:5a:7b:27:9e:4f:cb:d3:65:5f:
                    e0:64:22:ba:ac:dc:ad:16:6e:2e:84:20:f1:c0:3e:
                    03:a9:02:8d:f8:6b:83:6b:da:19:ab:34:60:8c:9c:
                    b0:53:ea:e0:98:e2:5b:88:50:09:d3:b0:86:6a:a7:
                    a0:9a:71:7c:8a:ad:28:22:d7:db:70:48:f8:95:c6:
                    13:fa:a6:20:f1:3a:9c:02:2a:48:53:28:9d:c8:34:
                    e4:33
                Exponent: 65537 (0x10001)
        X509v3 extensions:
            X509v3 Basic Constraints: 
                CA:FALSE
            X509v3 Subject Key Identifier: 
                5C:B2:39:5B:15:A1:AD:80:23:4B:0B:94:BE:CF:21:9F:D2:D3:5F:F9
            X509v3 Authority Key Identifier: 
                keyid:A5:A5:5E:E3:05:A9:A3:C4:AE:1A:4B:B8:1A:22:94:E5:D8:8B:DB:7E
                DirName:/CN=team28-net
                serial:1F:3E:2D:D3:12:A5:31:20:D0:81:3F:D1:8C:49:4C:E7:BB:AD:7A:62
            X509v3 Extended Key Usage: 
                TLS Web Server Authentication
            X509v3 Key Usage: 
                Digital Signature, Key Encipherment
            X509v3 Subject Alternative Name: 
                DNS:team28-server
    Signature Algorithm: sha256WithRSAEncryption
    Signature Value:
        97:a5:3e:c8:93:e6:bc:48:13:8d:b8:73:cc:9b:6e:39:d0:3b:
        04:50:53:9a:03:78:e4:99:74:97:09:e9:3c:c9:7b:50:4c:7a:
        90:b5:dd:64:3f:b3:ab:b8:3c:49:b6:aa:8c:52:81:25:e4:68:
        23:63:d5:e5:5c:55:3d:88:c1:8c:f4:cc:64:d4:a0:56:75:b4:
        bd:a4:30:51:9a:a8:f2:db:05:44:8b:0b:96:a2:54:0b:44:19:
        68:b3:2c:a2:f6:09:d4:94:cd:ec:dd:f6:77:66:d5:99:50:75:
        5d:f0:4e:d0:92:e0:c1:6e:62:ad:9e:45:39:19:f0:f1:a6:24:
        53:13:6e:92:67:7d:15:02:55:aa:a8:b0:74:b1:25:11:12:8a:
        f3:95:3c:ce:c8:dd:55:31:ba:a2:12:c3:3d:39:75:49:f6:b4:
        f2:6d:b3:86:37:a2:9c:73:f0:e2:86:70:08:db:c8:1f:dd:3c:
        38:90:86:9e:3d:b0:ae:60:bf:b7:bc:91:3f:56:9a:05:39:cd:
        3d:b9:a7:c4:62:4f:99:69:0f:84:ba:3b:53:a2:be:31:00:c6:
        e2:76:fd:fe:77:e2:25:af:fb:80:a9:d6:2d:a8:6e:05:36:ab:
        cd:da:df:95:88:d3:56:ee:1a:45:ea:39:06:55:3a:2a:cc:21:
        62:5b:c2:36
-----BEGIN CERTIFICATE-----
MIIDczCCAlugAwIBAgIQWB+7lHK7zGAxvmcyAwMUGjANBgkqhkiG9w0BAQsFADAV
MRMwEQYDVQQDDAp0ZWFtMjgtbmV0MB4XDTIzMDQyMDAwMTAzNloXDTI2MDQwNDAw
MTAzNlowGDEWMBQGA1UEAwwNdGVhbTI4LXNlcnZlcjCCASIwDQYJKoZIhvcNAQEB
BQADggEPADCCAQoCggEBANtAiHNfbBrdwukFccZx7IXGHifllO84wNEhT6ByY+ww
yIeNcaVCvrtSc0leR4JLL9U3lq9BTAk/CkEHdogatjj3tHM21Dx3mqApKOVrBDAw
F2iszeLrvR8V/pSAC7ozCv1NMwVQrmrJEsLtbQSFMWoDphWXHi0xVwmfRTOMtc4J
VFOK23IqMFddALomT57J7Lj0n9ktnxriDUBKX/A28j4G2HB6ufzsin4fWnsnnk/L
02Vf4GQiuqzcrRZuLoQg8cA+A6kCjfhrg2vaGas0YIycsFPq4JjiW4hQCdOwhmqn
oJpxfIqtKCLX23BI+JXGE/qmIPE6nAIqSFMoncg05DMCAwEAAaOBuzCBuDAJBgNV
HRMEAjAAMB0GA1UdDgQWBBRcsjlbFaGtgCNLC5S+zyGf0tNf+TBQBgNVHSMESTBH
gBSlpV7jBamjxK4aS7gaIpTl2IvbfqEZpBcwFTETMBEGA1UEAwwKdGVhbTI4LW5l
dIIUHz4t0xKlMSDQgT/RjElM57utemIwEwYDVR0lBAwwCgYIKwYBBQUHAwEwCwYD
VR0PBAQDAgWgMBgGA1UdEQQRMA+CDXRlYW0yOC1zZXJ2ZXIwDQYJKoZIhvcNAQEL
BQADggEBAJelPsiT5rxIE424c8ybbjnQOwRQU5oDeOSZdJcJ6TzJe1BMepC13WQ/
s6u4PEm2qoxSgSXkaCNj1eVcVT2IwYz0zGTUoFZ1tL2kMFGaqPLbBUSLC5aiVAtE
GWizLKL2CdSUzezd9ndm1ZlQdV3wTtCS4MFuYq2eRTkZ8PGmJFMTbpJnfRUCVaqo
sHSxJRESivOVPM7I3VUxuqISwz05dUn2tPJts4Y3opxz8OKGcAjbyB/dPDiQhp49
sK5gv7e8kT9WmgU5zT25p8RiT5lpD4S6O1OivjEAxuJ2/f534iWv+4Cp1i2obgU2
q83a35WI01buGkXqOQZVOirMIWJbwjY=
-----END CERTIFICATE-----
