Certificate:
    Data:
        Version: 3 (0x2)
        Serial Number:
            9e:38:69:64:2e:91:75:3f:c7:e6:14:32:24:20:8e:c7
        Signature Algorithm: sha256WithRSAEncryption
        Issuer: CN=team28-net
        Validity
            Not Before: Apr 20 22:54:07 2023 GMT
            Not After : Apr  4 22:54:07 2026 GMT
        Subject: CN=team28-client
        Subject Public Key Info:
            Public Key Algorithm: rsaEncryption
                Public-Key: (2048 bit)
                Modulus:
                    00:d3:46:ab:7e:3d:ff:b9:f6:90:8e:da:be:64:d1:
                    b4:fa:5b:5e:7c:58:7d:95:89:af:ab:6f:21:c4:7b:
                    f1:f6:c2:c5:15:38:cc:15:6e:f1:3d:aa:07:20:c6:
                    dd:b7:02:c3:2a:de:85:86:ea:df:5c:3c:f1:69:dc:
                    02:dd:1a:0b:b1:f6:fa:8a:05:56:be:cb:36:be:3a:
                    3e:ed:1e:88:98:7d:4d:c8:53:fe:22:68:a8:87:1e:
                    5a:3f:aa:9e:bf:3b:32:e4:fa:83:b7:07:59:66:6b:
                    c2:fe:95:a3:37:9f:00:00:d4:39:e4:f7:3f:2b:dd:
                    b7:10:c8:dd:8b:ba:cb:a8:95:b1:e8:1b:32:68:9a:
                    d0:6c:86:73:df:ed:e5:b4:9f:a3:7d:63:b0:44:38:
                    be:f1:3f:a4:e3:81:bb:2c:5d:1b:5a:9e:77:43:12:
                    d4:f7:9f:04:e1:1b:5b:b6:50:c9:21:43:8f:8d:2d:
                    0d:88:9d:15:ae:d2:0f:aa:7d:fa:9e:5d:36:52:f5:
                    81:f0:67:c9:60:04:65:c0:a7:d3:14:bf:74:b0:a4:
                    8f:a1:ae:b7:20:66:41:9c:18:f4:60:33:d9:d0:a8:
                    85:f6:b2:be:5d:c4:d3:30:78:a5:bb:1a:21:0d:32:
                    cb:64:58:b6:d6:b8:5e:b9:1b:07:60:3b:15:df:22:
                    7d:cb
                Exponent: 65537 (0x10001)
        X509v3 extensions:
            X509v3 Basic Constraints: 
                CA:FALSE
            X509v3 Subject Key Identifier: 
                BC:38:D2:80:4E:F1:44:CB:34:EE:DF:82:72:C9:34:D6:06:4F:EC:66
            X509v3 Authority Key Identifier: 
                keyid:81:EE:23:35:32:07:47:5C:1E:16:C6:20:2D:EE:BB:02:8C:52:57:F2
                DirName:/CN=team28-net
                serial:28:92:E2:BF:4C:A8:D8:D1:62:9D:73:CF:8B:71:0C:48:1C:E2:31:41
            X509v3 Extended Key Usage: 
                TLS Web Client Authentication
            X509v3 Key Usage: 
                Digital Signature
    Signature Algorithm: sha256WithRSAEncryption
    Signature Value:
        81:f2:40:eb:d6:4e:9e:e3:a2:ee:cb:a7:51:e8:b9:02:7a:71:
        37:bb:36:ec:a8:77:fa:76:45:ff:52:a4:14:da:cf:17:e8:d4:
        7c:52:10:80:ee:00:41:98:f5:d7:c7:38:7a:95:10:b6:cd:dd:
        b4:d9:28:55:a4:99:cb:37:ef:67:87:fd:b6:fc:01:aa:6a:7b:
        ba:2e:21:d0:5f:44:1c:ba:d8:2e:f2:13:ae:0d:5a:62:ed:67:
        86:e6:3d:15:fb:1c:42:00:7e:1b:d7:54:74:09:26:40:0d:b2:
        be:23:54:55:10:07:11:ae:7e:a7:b9:53:4f:df:70:22:98:b4:
        04:5a:9d:a2:2e:ad:54:63:84:4d:98:2f:1c:58:1f:e2:36:41:
        ff:0a:04:a1:9e:e2:0f:5e:a3:22:fe:7c:69:d9:f4:93:da:02:
        8a:02:0e:16:0e:61:6e:16:7c:01:34:b7:52:3c:c6:b6:a3:8c:
        05:95:88:7d:c6:28:ba:30:6b:8b:73:00:1c:0b:52:ac:da:c5:
        4e:da:c4:d8:f9:78:c0:35:d8:4a:a7:2e:c2:99:6d:43:6d:85:
        d7:94:bd:ab:1f:f3:d5:3a:3a:5d:03:41:a0:c2:96:56:26:dc:
        c2:6c:44:27:91:52:77:e9:5d:d0:ad:5c:52:54:1d:11:44:a9:
        e8:19:35:42
-----BEGIN CERTIFICATE-----
MIIDWjCCAkKgAwIBAgIRAJ44aWQukXU/x+YUMiQgjscwDQYJKoZIhvcNAQELBQAw
FTETMBEGA1UEAwwKdGVhbTI4LW5ldDAeFw0yMzA0MjAyMjU0MDdaFw0yNjA0MDQy
MjU0MDdaMBgxFjAUBgNVBAMMDXRlYW0yOC1jbGllbnQwggEiMA0GCSqGSIb3DQEB
AQUAA4IBDwAwggEKAoIBAQDTRqt+Pf+59pCO2r5k0bT6W158WH2Via+rbyHEe/H2
wsUVOMwVbvE9qgcgxt23AsMq3oWG6t9cPPFp3ALdGgux9vqKBVa+yza+Oj7tHoiY
fU3IU/4iaKiHHlo/qp6/OzLk+oO3B1lma8L+laM3nwAA1Dnk9z8r3bcQyN2Lusuo
lbHoGzJomtBshnPf7eW0n6N9Y7BEOL7xP6TjgbssXRtanndDEtT3nwThG1u2UMkh
Q4+NLQ2InRWu0g+qffqeXTZS9YHwZ8lgBGXAp9MUv3SwpI+hrrcgZkGcGPRgM9nQ
qIX2sr5dxNMweKW7GiENMstkWLbWuF65GwdgOxXfIn3LAgMBAAGjgaEwgZ4wCQYD
VR0TBAIwADAdBgNVHQ4EFgQUvDjSgE7xRMs07t+Ccsk01gZP7GYwUAYDVR0jBEkw
R4AUge4jNTIHR1weFsYgLe67AoxSV/KhGaQXMBUxEzARBgNVBAMMCnRlYW0yOC1u
ZXSCFCiS4r9MqNjRYp1zz4txDEgc4jFBMBMGA1UdJQQMMAoGCCsGAQUFBwMCMAsG
A1UdDwQEAwIHgDANBgkqhkiG9w0BAQsFAAOCAQEAgfJA69ZOnuOi7sunUei5Anpx
N7s27Kh3+nZF/1KkFNrPF+jUfFIQgO4AQZj118c4epUQts3dtNkoVaSZyzfvZ4f9
tvwBqmp7ui4h0F9EHLrYLvITrg1aYu1nhuY9FfscQgB+G9dUdAkmQA2yviNUVRAH
Ea5+p7lTT99wIpi0BFqdoi6tVGOETZgvHFgf4jZB/woEoZ7iD16jIv58adn0k9oC
igIOFg5hbhZ8ATS3UjzGtqOMBZWIfcYoujBri3MAHAtSrNrFTtrE2Pl4wDXYSqcu
wpltQ22F15S9qx/z1To6XQNBoMKWVibcwmxEJ5FSd+ld0K1cUlQdEUSp6Bk1Qg==
-----END CERTIFICATE-----
