Certificate:
    Data:
        Version: 3 (0x2)
        Serial Number:
            3c:14:ae:a0:87:1d:d2:6d:c0:16:28:e9:da:f0:56:f7
        Signature Algorithm: sha256WithRSAEncryption
        Issuer: CN=team23-net
        Validity
            Not Before: Apr 20 00:10:29 2023 GMT
            Not After : Apr  4 00:10:29 2026 GMT
        Subject: CN=team23-client
        Subject Public Key Info:
            Public Key Algorithm: rsaEncryption
                Public-Key: (2048 bit)
                Modulus:
                    00:9a:ab:f9:d4:25:12:13:ac:9a:10:45:6d:78:0b:
                    f6:67:64:9e:35:f9:54:f9:88:a4:86:3b:3a:14:3b:
                    7b:d2:33:22:69:97:cd:64:6e:2b:24:c6:ca:38:f7:
                    5d:70:88:14:f2:ea:f1:ef:a5:b1:ee:3b:6c:36:63:
                    76:6f:6d:2b:55:54:eb:82:30:98:2b:07:f1:b4:5f:
                    1d:fb:b6:5f:d8:90:1c:2f:72:27:11:91:b3:ab:d9:
                    39:30:be:81:45:31:82:c3:58:42:fd:07:8d:83:59:
                    08:f6:62:be:82:40:f5:02:5e:65:b0:41:21:49:9e:
                    44:36:26:63:3c:c9:51:8a:9d:2f:35:25:a4:bb:58:
                    d7:71:11:0f:ab:8d:a8:2d:de:b5:6c:d1:04:33:43:
                    a4:77:19:84:97:58:be:30:67:ec:95:12:9a:a8:14:
                    dd:6c:66:cf:5d:a8:a6:75:54:0e:70:f0:03:f2:be:
                    25:e7:d8:c6:c2:c2:fb:6e:ce:03:c9:88:95:3b:94:
                    e2:7b:b7:8f:bc:1a:c3:c1:e7:ad:49:93:00:f3:50:
                    21:1d:f7:e9:e8:bb:1d:85:4d:97:2b:ee:a2:16:39:
                    e5:c7:ba:f5:66:cd:7b:aa:6a:30:a3:ec:74:a9:9c:
                    74:ba:20:25:ef:a1:55:bd:a1:48:7c:5a:cf:4a:92:
                    0a:91
                Exponent: 65537 (0x10001)
        X509v3 extensions:
            X509v3 Basic Constraints: 
                CA:FALSE
            X509v3 Subject Key Identifier: 
                EE:94:F0:55:96:C5:8A:F2:6A:93:7E:3F:84:D9:41:16:51:EA:AB:CD
            X509v3 Authority Key Identifier: 
                keyid:26:B8:2D:BE:45:0F:CF:14:44:4D:06:7A:6D:51:77:64:59:07:7F:86
                DirName:/CN=team23-net
                serial:36:06:0B:DB:1A:37:39:AB:2E:23:E3:AD:88:87:3E:22:E0:66:F1:60
            X509v3 Extended Key Usage: 
                TLS Web Client Authentication
            X509v3 Key Usage: 
                Digital Signature
    Signature Algorithm: sha256WithRSAEncryption
    Signature Value:
        64:09:49:7f:16:c1:4c:92:a7:34:6e:cf:4c:58:5f:f8:0a:5e:
        b4:6d:88:c8:38:80:a7:c6:38:71:7b:36:d7:db:93:ff:e1:5a:
        af:6f:58:14:ac:21:6e:96:d9:d7:5d:af:1d:06:5b:59:8a:bc:
        a7:65:82:b7:27:f1:50:8f:11:ac:54:f8:4e:1f:20:cd:57:0b:
        db:a1:a8:44:ab:09:1f:0e:b0:87:78:ca:7d:60:3d:d8:13:74:
        4e:ec:7f:88:ad:24:48:4c:b1:e5:cd:62:3c:a0:08:83:dd:39:
        7f:f2:3e:de:52:7a:f3:23:df:ed:0e:6b:44:38:7c:ef:18:d7:
        54:1a:d3:28:cf:aa:ac:64:e6:7c:3f:61:84:2d:85:ac:96:31:
        c5:73:1c:22:4f:be:a9:60:6e:ab:51:4a:bd:7a:7e:eb:32:01:
        2e:29:b9:d1:01:ab:eb:d0:fc:b5:cc:0c:3a:35:ad:66:53:69:
        95:75:6b:93:3b:63:63:fc:3b:2f:86:d9:35:48:ac:89:0e:2a:
        a5:95:6e:48:40:2d:67:2d:1b:c5:58:34:76:14:10:d1:5c:80:
        ee:1d:2d:9e:5b:52:0e:c8:19:f1:47:a5:cd:d7:4d:2d:76:1e:
        a5:f7:e1:6a:68:8a:66:81:b6:40:ad:e4:b6:cc:2f:50:24:ec:
        39:5c:b7:d9
-----BEGIN CERTIFICATE-----
MIIDWTCCAkGgAwIBAgIQPBSuoIcd0m3AFijp2vBW9zANBgkqhkiG9w0BAQsFADAV
MRMwEQYDVQQDDAp0ZWFtMjMtbmV0MB4XDTIzMDQyMDAwMTAyOVoXDTI2MDQwNDAw
MTAyOVowGDEWMBQGA1UEAwwNdGVhbTIzLWNsaWVudDCCASIwDQYJKoZIhvcNAQEB
BQADggEPADCCAQoCggEBAJqr+dQlEhOsmhBFbXgL9mdknjX5VPmIpIY7OhQ7e9Iz
ImmXzWRuKyTGyjj3XXCIFPLq8e+lse47bDZjdm9tK1VU64IwmCsH8bRfHfu2X9iQ
HC9yJxGRs6vZOTC+gUUxgsNYQv0HjYNZCPZivoJA9QJeZbBBIUmeRDYmYzzJUYqd
LzUlpLtY13ERD6uNqC3etWzRBDNDpHcZhJdYvjBn7JUSmqgU3Wxmz12opnVUDnDw
A/K+JefYxsLC+27OA8mIlTuU4nu3j7waw8HnrUmTAPNQIR336ei7HYVNlyvuohY5
5ce69WbNe6pqMKPsdKmcdLogJe+hVb2hSHxaz0qSCpECAwEAAaOBoTCBnjAJBgNV
HRMEAjAAMB0GA1UdDgQWBBTulPBVlsWK8mqTfj+E2UEWUeqrzTBQBgNVHSMESTBH
gBQmuC2+RQ/PFERNBnptUXdkWQd/hqEZpBcwFTETMBEGA1UEAwwKdGVhbTIzLW5l
dIIUNgYL2xo3OasuI+OtiIc+IuBm8WAwEwYDVR0lBAwwCgYIKwYBBQUHAwIwCwYD
VR0PBAQDAgeAMA0GCSqGSIb3DQEBCwUAA4IBAQBkCUl/FsFMkqc0bs9MWF/4Cl60
bYjIOICnxjhxezbX25P/4Vqvb1gUrCFultnXXa8dBltZirynZYK3J/FQjxGsVPhO
HyDNVwvboahEqwkfDrCHeMp9YD3YE3RO7H+IrSRITLHlzWI8oAiD3Tl/8j7eUnrz
I9/tDmtEOHzvGNdUGtMoz6qsZOZ8P2GELYWsljHFcxwiT76pYG6rUUq9en7rMgEu
KbnRAavr0Py1zAw6Na1mU2mVdWuTO2Nj/Dsvhtk1SKyJDiqllW5IQC1nLRvFWDR2
FBDRXIDuHS2eW1IOyBnxR6XN100tdh6l9+FqaIpmgbZAreS2zC9QJOw5XLfZ
-----END CERTIFICATE-----
