Certificate:
    Data:
        Version: 3 (0x2)
        Serial Number:
            83:e6:c5:e2:89:3b:17:f6:cb:67:d0:62:6b:88:57:dd
        Signature Algorithm: sha256WithRSAEncryption
        Issuer: CN=team23-net
        Validity
            Not Before: Apr 20 22:53:58 2023 GMT
            Not After : Apr  4 22:53:58 2026 GMT
        Subject: CN=team23-client
        Subject Public Key Info:
            Public Key Algorithm: rsaEncryption
                Public-Key: (2048 bit)
                Modulus:
                    00:b9:25:e2:b3:c7:a5:56:e9:85:3f:7d:d9:dc:22:
                    98:cc:c3:3d:e3:f3:3f:6d:33:4c:3b:00:dd:fe:77:
                    50:33:78:3a:28:49:13:12:a8:10:01:94:cc:c2:17:
                    d1:58:49:df:17:ed:2a:29:c8:dd:da:05:ee:36:f3:
                    16:b5:5f:31:79:84:fb:f6:b6:81:60:b0:0f:c9:18:
                    5c:13:4e:95:84:95:09:d7:54:af:7d:d3:2f:8f:99:
                    d1:ce:0a:e2:41:94:03:d7:51:cd:d9:07:76:46:e0:
                    8d:8d:bb:90:e4:56:5c:6d:ac:10:a3:87:97:73:01:
                    73:9a:13:7c:91:cd:55:73:3b:19:62:47:d5:7c:b8:
                    15:f0:3c:9c:6d:17:57:3d:48:49:cd:c5:0c:d1:8c:
                    7e:7c:ba:24:15:4c:93:f6:de:7a:f9:d0:68:b7:cd:
                    c5:35:64:9b:7f:1f:a1:bc:a4:5e:8f:aa:e1:24:ff:
                    cf:b1:d9:07:2e:96:ab:0e:3d:ad:31:a9:19:65:54:
                    0a:8d:e7:b2:fd:3e:2e:45:96:c6:c4:e8:a8:ff:c0:
                    1a:04:e5:2d:26:0b:d8:26:02:1c:0e:d7:d2:c2:4c:
                    99:15:4e:01:3d:23:45:f7:79:52:85:6e:a0:8a:a7:
                    6a:b5:e7:83:52:24:e0:06:b1:b0:c5:69:45:68:04:
                    7c:0f
                Exponent: 65537 (0x10001)
        X509v3 extensions:
            X509v3 Basic Constraints: 
                CA:FALSE
            X509v3 Subject Key Identifier: 
                FD:AD:52:39:68:33:34:FD:43:78:11:5C:BB:8F:3C:9A:55:9B:E6:8B
            X509v3 Authority Key Identifier: 
                keyid:F9:6A:3C:AF:CC:1F:04:3E:84:DE:79:76:D7:BC:98:C4:39:40:21:E1
                DirName:/CN=team23-net
                serial:2E:9A:9B:A1:5D:9F:CD:30:AF:0D:D9:FB:BD:AC:B4:26:20:CF:FC:25
            X509v3 Extended Key Usage: 
                TLS Web Client Authentication
            X509v3 Key Usage: 
                Digital Signature
    Signature Algorithm: sha256WithRSAEncryption
    Signature Value:
        2a:c0:3a:94:25:e3:b7:6c:4b:51:aa:08:d0:25:15:ac:3a:68:
        24:91:c4:a3:70:f6:7f:26:34:c4:14:b5:ff:c4:46:53:10:36:
        19:55:8c:8f:17:8e:59:25:f0:66:07:9d:c2:79:f9:f8:41:74:
        7e:65:45:de:59:ac:aa:92:b0:08:ab:1a:a8:01:66:88:e0:11:
        c3:7b:09:f6:e2:c5:5c:91:57:33:11:54:d7:91:e5:65:54:44:
        87:0f:20:f8:42:7a:e5:05:4b:b0:8e:ce:bb:9c:f8:01:94:7a:
        e6:b5:31:e5:1b:0f:b4:d3:13:a0:ca:94:d9:05:62:66:e6:d9:
        b2:78:b5:73:dd:e3:7c:9b:82:af:9a:a6:f3:5e:a5:4d:2a:63:
        76:c0:04:a2:e4:fc:a1:20:f9:ff:5b:b8:6d:a6:1e:bb:90:52:
        9a:9d:9f:8a:22:ea:d4:da:4e:14:4f:03:27:79:56:2f:af:b0:
        f9:6d:44:ce:48:17:25:fa:8c:bd:f2:b2:ad:0e:4b:ac:80:80:
        ef:41:d4:41:e9:6f:a4:39:31:ca:a0:1e:bf:33:a8:57:05:28:
        41:87:3d:b0:31:2c:d4:9d:f9:51:8d:81:2f:88:b4:d0:31:74:
        e8:77:3b:53:af:a5:29:ee:c5:a2:36:ab:95:3a:6c:98:df:d9:
        d3:8c:49:91
-----BEGIN CERTIFICATE-----
MIIDWjCCAkKgAwIBAgIRAIPmxeKJOxf2y2fQYmuIV90wDQYJKoZIhvcNAQELBQAw
FTETMBEGA1UEAwwKdGVhbTIzLW5ldDAeFw0yMzA0MjAyMjUzNThaFw0yNjA0MDQy
MjUzNThaMBgxFjAUBgNVBAMMDXRlYW0yMy1jbGllbnQwggEiMA0GCSqGSIb3DQEB
AQUAA4IBDwAwggEKAoIBAQC5JeKzx6VW6YU/fdncIpjMwz3j8z9tM0w7AN3+d1Az
eDooSRMSqBABlMzCF9FYSd8X7SopyN3aBe428xa1XzF5hPv2toFgsA/JGFwTTpWE
lQnXVK990y+PmdHOCuJBlAPXUc3ZB3ZG4I2Nu5DkVlxtrBCjh5dzAXOaE3yRzVVz
OxliR9V8uBXwPJxtF1c9SEnNxQzRjH58uiQVTJP23nr50Gi3zcU1ZJt/H6G8pF6P
quEk/8+x2QculqsOPa0xqRllVAqN57L9Pi5FlsbE6Kj/wBoE5S0mC9gmAhwO19LC
TJkVTgE9I0X3eVKFbqCKp2q154NSJOAGsbDFaUVoBHwPAgMBAAGjgaEwgZ4wCQYD
VR0TBAIwADAdBgNVHQ4EFgQU/a1SOWgzNP1DeBFcu488mlWb5oswUAYDVR0jBEkw
R4AU+Wo8r8wfBD6E3nl217yYxDlAIeGhGaQXMBUxEzARBgNVBAMMCnRlYW0yMy1u
ZXSCFC6am6Fdn80wrw3Z+72stCYgz/wlMBMGA1UdJQQMMAoGCCsGAQUFBwMCMAsG
A1UdDwQEAwIHgDANBgkqhkiG9w0BAQsFAAOCAQEAKsA6lCXjt2xLUaoI0CUVrDpo
JJHEo3D2fyY0xBS1/8RGUxA2GVWMjxeOWSXwZgedwnn5+EF0fmVF3lmsqpKwCKsa
qAFmiOARw3sJ9uLFXJFXMxFU15HlZVREhw8g+EJ65QVLsI7Ou5z4AZR65rUx5RsP
tNMToMqU2QViZubZsni1c93jfJuCr5qm816lTSpjdsAEouT8oSD5/1u4baYeu5BS
mp2fiiLq1NpOFE8DJ3lWL6+w+W1EzkgXJfqMvfKyrQ5LrICA70HUQelvpDkxyqAe
vzOoVwUoQYc9sDEs1J35UY2BL4i00DF06Hc7U6+lKe7FojarlTpsmN/Z04xJkQ==
-----END CERTIFICATE-----
