Certificate:
    Data:
        Version: 3 (0x2)
        Serial Number:
            17:5d:99:7c:e0:26:88:a4:3a:f1:8c:3b:cd:7e:ba:47
        Signature Algorithm: sha256WithRSAEncryption
        Issuer: CN=team42-net
        Validity
            Not Before: Apr 20 00:10:56 2023 GMT
            Not After : Apr  4 00:10:56 2026 GMT
        Subject: CN=team42-server
        Subject Public Key Info:
            Public Key Algorithm: rsaEncryption
                Public-Key: (2048 bit)
                Modulus:
                    00:f3:af:64:34:db:bb:c8:4f:1d:b2:61:51:5f:6f:
                    28:96:7b:b7:b8:1c:e6:ee:ae:0a:9d:7e:94:f4:7c:
                    93:d8:07:9f:9a:81:f4:43:e4:db:b5:33:2e:26:cb:
                    33:b7:db:ab:ed:25:ff:57:68:2d:79:06:5e:6e:0e:
                    d9:64:d1:80:5c:e4:40:42:6f:6e:72:5c:37:4d:4a:
                    45:60:f4:21:00:08:34:2f:8b:8c:67:40:01:bc:ef:
                    e9:37:19:b3:f1:c6:b6:f6:4c:c7:ce:8a:ae:06:f1:
                    b5:58:61:9a:8d:ed:53:5e:b1:b3:82:92:c5:3f:4d:
                    54:c9:62:3b:8f:42:e3:05:78:64:1d:ba:3d:ea:87:
                    73:3f:a1:65:27:dd:d0:24:c1:15:97:9e:2b:80:ac:
                    d6:b3:68:c4:52:bd:2e:88:95:59:40:a1:70:4f:50:
                    4a:f0:62:40:ca:38:5e:96:4b:78:ff:04:3e:2e:c7:
                    61:4f:ca:76:aa:aa:b1:49:5b:ae:9e:3a:c0:2b:1f:
                    7b:6c:04:d7:99:d2:c7:13:9e:72:85:ad:0c:43:35:
                    17:5d:35:5d:64:a7:c3:bb:69:6c:6a:e5:99:e8:12:
                    74:a0:f0:1a:b2:f6:d0:1c:eb:e5:81:29:8d:21:df:
                    41:dc:ea:e3:d7:03:fe:31:cb:ec:9c:fb:f7:ef:ec:
                    97:95
                Exponent: 65537 (0x10001)
        X509v3 extensions:
            X509v3 Basic Constraints: 
                CA:FALSE
            X509v3 Subject Key Identifier: 
                74:48:5C:F6:36:FE:B3:FB:77:22:2A:33:05:B5:9C:BB:A3:D3:AC:A2
            X509v3 Authority Key Identifier: 
                keyid:50:27:76:78:D4:7C:8E:1B:54:8D:EA:CE:E0:FC:72:BC:38:F6:54:2D
                DirName:/CN=team42-net
                serial:4D:9F:D2:2C:9E:36:65:D9:A2:28:40:0C:6A:18:EA:55:3F:78:A2:C4
            X509v3 Extended Key Usage: 
                TLS Web Server Authentication
            X509v3 Key Usage: 
                Digital Signature, Key Encipherment
            X509v3 Subject Alternative Name: 
                DNS:team42-server
    Signature Algorithm: sha256WithRSAEncryption
    Signature Value:
        af:eb:2b:92:f2:bc:37:21:b9:46:e3:04:a1:6b:d2:66:c2:2d:
        2d:f0:7c:f9:6a:6f:61:71:c2:46:29:f0:fc:6c:e8:e9:1c:be:
        0d:16:e1:a7:e0:5a:39:62:38:84:9e:81:d4:54:f0:69:b0:26:
        10:b1:e7:ff:ea:63:f4:62:c6:f5:e0:1a:d6:c8:d9:8a:a1:ed:
        6c:ef:5f:26:ba:d8:a5:e8:a3:2a:94:ae:86:d0:e5:c6:d5:c9:
        c3:4a:a3:0c:41:28:25:d9:22:f7:5a:01:ed:82:95:b0:42:28:
        cb:a4:6a:0c:0a:14:b0:d3:02:61:20:36:b3:4f:fc:bb:bb:2b:
        63:d6:b7:2b:ef:32:09:4b:f5:64:b6:d9:70:d8:ae:ea:be:5c:
        3c:03:07:0b:04:d2:47:a9:56:e2:00:27:52:54:c3:22:2f:8e:
        bf:4d:e1:45:84:b7:b7:86:0e:e8:34:4d:56:4c:93:4a:ac:36:
        cf:d6:0e:52:98:53:63:a7:b2:9c:99:bd:9c:f6:11:52:ce:27:
        83:e5:b8:44:4a:93:0e:8a:fd:45:8e:a4:18:f8:a7:d9:c5:87:
        76:ee:1b:50:65:7c:cd:b1:6b:9a:35:bb:5c:21:38:a1:24:0b:
        d5:b9:f2:06:c4:0a:6c:54:52:1f:b4:54:a6:42:dd:b2:3a:41:
        96:b0:25:db
-----BEGIN CERTIFICATE-----
MIIDczCCAlugAwIBAgIQF12ZfOAmiKQ68Yw7zX66RzANBgkqhkiG9w0BAQsFADAV
MRMwEQYDVQQDDAp0ZWFtNDItbmV0MB4XDTIzMDQyMDAwMTA1NloXDTI2MDQwNDAw
MTA1NlowGDEWMBQGA1UEAwwNdGVhbTQyLXNlcnZlcjCCASIwDQYJKoZIhvcNAQEB
BQADggEPADCCAQoCggEBAPOvZDTbu8hPHbJhUV9vKJZ7t7gc5u6uCp1+lPR8k9gH
n5qB9EPk27UzLibLM7fbq+0l/1doLXkGXm4O2WTRgFzkQEJvbnJcN01KRWD0IQAI
NC+LjGdAAbzv6TcZs/HGtvZMx86KrgbxtVhhmo3tU16xs4KSxT9NVMliO49C4wV4
ZB26PeqHcz+hZSfd0CTBFZeeK4Cs1rNoxFK9LoiVWUChcE9QSvBiQMo4XpZLeP8E
Pi7HYU/KdqqqsUlbrp46wCsfe2wE15nSxxOecoWtDEM1F101XWSnw7tpbGrlmegS
dKDwGrL20Bzr5YEpjSHfQdzq49cD/jHL7Jz79+/sl5UCAwEAAaOBuzCBuDAJBgNV
HRMEAjAAMB0GA1UdDgQWBBR0SFz2Nv6z+3ciKjMFtZy7o9OsojBQBgNVHSMESTBH
gBRQJ3Z41HyOG1SN6s7g/HK8OPZULaEZpBcwFTETMBEGA1UEAwwKdGVhbTQyLW5l
dIIUTZ/SLJ42ZdmiKEAMahjqVT94osQwEwYDVR0lBAwwCgYIKwYBBQUHAwEwCwYD
VR0PBAQDAgWgMBgGA1UdEQQRMA+CDXRlYW00Mi1zZXJ2ZXIwDQYJKoZIhvcNAQEL
BQADggEBAK/rK5LyvDchuUbjBKFr0mbCLS3wfPlqb2FxwkYp8Pxs6Okcvg0W4afg
WjliOISegdRU8GmwJhCx5//qY/RixvXgGtbI2Yqh7WzvXya62KXooyqUrobQ5cbV
ycNKowxBKCXZIvdaAe2ClbBCKMukagwKFLDTAmEgNrNP/Lu7K2PWtyvvMglL9WS2
2XDYruq+XDwDBwsE0kepVuIAJ1JUwyIvjr9N4UWEt7eGDug0TVZMk0qsNs/WDlKY
U2OnspyZvZz2EVLOJ4PluERKkw6K/UWOpBj4p9nFh3buG1BlfM2xa5o1u1whOKEk
C9W58gbECmxUUh+0VKZC3bI6QZawJds=
-----END CERTIFICATE-----
