Certificate:
    Data:
        Version: 3 (0x2)
        Serial Number:
            18:66:97:56:7e:1f:e4:77:85:c4:f5:a0:b4:ff:a4:bd
        Signature Algorithm: sha256WithRSAEncryption
        Issuer: CN=team42-net
        Validity
            Not Before: Apr 20 22:54:30 2023 GMT
            Not After : Apr  4 22:54:30 2026 GMT
        Subject: CN=team42-server
        Subject Public Key Info:
            Public Key Algorithm: rsaEncryption
                Public-Key: (2048 bit)
                Modulus:
                    00:e0:35:28:57:05:4f:22:0c:44:27:f3:d7:8f:4e:
                    8e:10:92:be:b4:95:f2:6c:0b:8a:35:53:f9:ce:26:
                    5c:66:d9:dc:30:df:23:83:36:da:20:82:5a:f5:16:
                    5b:5f:3b:9c:d1:61:c5:50:94:ae:db:1c:e8:8d:ef:
                    44:0c:4b:80:b6:3c:62:7b:a4:93:cb:b4:3e:b9:51:
                    56:71:35:86:73:91:ea:25:d3:04:2e:47:a2:84:fb:
                    8d:ed:09:42:0e:58:f3:aa:61:dc:03:19:f8:4b:2e:
                    55:58:5e:ec:c9:fe:02:38:ae:97:a9:21:f5:15:ba:
                    06:0d:ad:c1:ee:cc:21:9c:05:40:45:d0:49:f4:f8:
                    55:49:bd:2a:13:12:55:ca:46:9a:7a:0c:a3:3f:ba:
                    e4:c7:42:3d:f7:f6:e9:b2:d3:fe:c5:d7:50:91:f4:
                    b6:3a:6d:c1:c6:2c:9f:c3:47:4c:5b:53:68:15:41:
                    f0:1d:eb:65:c3:eb:cd:3f:b3:87:86:21:46:dc:a4:
                    1d:9a:27:f0:70:f3:8c:ab:8f:d8:73:c5:93:5a:47:
                    ba:0d:38:43:1d:ce:8e:d2:f7:4d:86:ac:fb:ee:73:
                    b1:44:b2:2f:ec:9d:f8:74:f6:3e:58:8c:48:13:9f:
                    39:7e:a1:6d:45:b6:0b:89:69:6e:98:b8:78:7d:91:
                    ba:6b
                Exponent: 65537 (0x10001)
        X509v3 extensions:
            X509v3 Basic Constraints: 
                CA:FALSE
            X509v3 Subject Key Identifier: 
                59:AC:F3:C9:F0:8B:4C:79:7A:14:F1:63:50:39:50:F1:BF:5A:27:6A
            X509v3 Authority Key Identifier: 
                keyid:87:B8:70:47:01:E1:5B:E3:F4:CE:87:D9:B5:C9:69:B4:F4:47:B0:B2
                DirName:/CN=team42-net
                serial:16:A5:87:71:9F:F8:C7:C0:51:2B:3F:42:6D:00:E7:15:26:42:BF:42
            X509v3 Extended Key Usage: 
                TLS Web Server Authentication
            X509v3 Key Usage: 
                Digital Signature, Key Encipherment
            X509v3 Subject Alternative Name: 
                DNS:team42-server
    Signature Algorithm: sha256WithRSAEncryption
    Signature Value:
        28:a3:ad:68:2b:1e:b8:5d:94:b3:05:55:bd:f6:a4:de:9b:8d:
        09:a8:03:2e:1b:c9:6a:19:77:da:cf:d8:24:2c:f0:a6:71:a5:
        51:f3:7b:d4:fe:7a:9e:ae:bd:a6:fe:59:93:b7:1d:9b:14:de:
        01:64:05:85:24:1e:c3:f3:02:94:30:f9:92:e6:e5:c5:6c:7c:
        27:29:75:24:7b:de:21:10:9d:5c:d4:26:4c:8c:5f:3c:64:cd:
        da:a5:2b:b2:53:bb:fd:51:bf:52:12:59:ff:cc:9f:64:f1:28:
        38:c7:33:00:76:1b:2c:a7:1d:bb:d9:af:d7:6d:85:27:ef:d2:
        cd:ea:39:26:d1:d8:2a:1f:e0:be:d3:48:7a:da:01:5f:ea:38:
        be:b2:9c:a1:d5:95:4a:24:23:d0:9a:8d:a5:bc:5d:31:d5:cf:
        56:e0:4f:ae:02:fd:ff:54:7a:a2:61:74:47:26:1e:c8:04:1b:
        d5:be:98:a9:7c:d9:8e:9e:40:f5:4c:ca:6e:c6:9d:78:32:bf:
        b1:b5:0c:a5:c7:0d:b1:48:e2:4a:69:6f:b2:ce:5d:a3:0f:b4:
        ce:ad:34:2c:13:69:11:30:38:3f:1a:87:24:53:40:65:34:36:
        9e:48:0a:60:90:7c:e0:df:4e:c1:4b:57:64:6a:cf:a4:95:f7:
        5a:dd:54:7d
-----BEGIN CERTIFICATE-----
MIIDczCCAlugAwIBAgIQGGaXVn4f5HeFxPWgtP+kvTANBgkqhkiG9w0BAQsFADAV
MRMwEQYDVQQDDAp0ZWFtNDItbmV0MB4XDTIzMDQyMDIyNTQzMFoXDTI2MDQwNDIy
NTQzMFowGDEWMBQGA1UEAwwNdGVhbTQyLXNlcnZlcjCCASIwDQYJKoZIhvcNAQEB
BQADggEPADCCAQoCggEBAOA1KFcFTyIMRCfz149OjhCSvrSV8mwLijVT+c4mXGbZ
3DDfI4M22iCCWvUWW187nNFhxVCUrtsc6I3vRAxLgLY8Ynukk8u0PrlRVnE1hnOR
6iXTBC5HooT7je0JQg5Y86ph3AMZ+EsuVVhe7Mn+Ajiul6kh9RW6Bg2twe7MIZwF
QEXQSfT4VUm9KhMSVcpGmnoMoz+65MdCPff26bLT/sXXUJH0tjptwcYsn8NHTFtT
aBVB8B3rZcPrzT+zh4YhRtykHZon8HDzjKuP2HPFk1pHug04Qx3OjtL3TYas++5z
sUSyL+yd+HT2PliMSBOfOX6hbUW2C4lpbpi4eH2RumsCAwEAAaOBuzCBuDAJBgNV
HRMEAjAAMB0GA1UdDgQWBBRZrPPJ8ItMeXoU8WNQOVDxv1onajBQBgNVHSMESTBH
gBSHuHBHAeFb4/TOh9m1yWm09EewsqEZpBcwFTETMBEGA1UEAwwKdGVhbTQyLW5l
dIIUFqWHcZ/4x8BRKz9CbQDnFSZCv0IwEwYDVR0lBAwwCgYIKwYBBQUHAwEwCwYD
VR0PBAQDAgWgMBgGA1UdEQQRMA+CDXRlYW00Mi1zZXJ2ZXIwDQYJKoZIhvcNAQEL
BQADggEBACijrWgrHrhdlLMFVb32pN6bjQmoAy4byWoZd9rP2CQs8KZxpVHze9T+
ep6uvab+WZO3HZsU3gFkBYUkHsPzApQw+ZLm5cVsfCcpdSR73iEQnVzUJkyMXzxk
zdqlK7JTu/1Rv1ISWf/Mn2TxKDjHMwB2GyynHbvZr9dthSfv0s3qOSbR2Cof4L7T
SHraAV/qOL6ynKHVlUokI9CajaW8XTHVz1bgT64C/f9UeqJhdEcmHsgEG9W+mKl8
2Y6eQPVMym7GnXgyv7G1DKXHDbFI4kppb7LOXaMPtM6tNCwTaREwOD8ahyRTQGU0
Np5ICmCQfODfTsFLV2Rqz6SV91rdVH0=
-----END CERTIFICATE-----
