Certificate:
    Data:
        Version: 3 (0x2)
        Serial Number:
            30:49:51:c2:e1:e6:46:09:8f:a6:5f:19:05:92:2b:a6
        Signature Algorithm: sha256WithRSAEncryption
        Issuer: CN=team42-net
        Validity
            Not Before: Apr 20 22:54:30 2023 GMT
            Not After : Apr  4 22:54:30 2026 GMT
        Subject: CN=team42-client
        Subject Public Key Info:
            Public Key Algorithm: rsaEncryption
                Public-Key: (2048 bit)
                Modulus:
                    00:a7:a2:a9:2f:d2:aa:f3:40:b3:09:96:88:53:11:
                    68:40:47:e9:84:c8:4b:18:0c:84:e4:a3:25:a0:7f:
                    95:a2:3d:e7:0c:8c:a9:21:af:17:14:94:f1:f0:7f:
                    05:79:52:62:f2:0c:77:5f:e4:f3:82:e0:8d:b8:75:
                    d0:25:01:0c:57:95:8b:f3:d2:a0:47:85:e5:e9:cb:
                    7c:b9:45:fd:25:50:c6:71:ae:bf:31:ed:03:ae:7c:
                    f8:09:46:2f:2e:c9:97:95:44:69:ec:56:17:ed:9b:
                    e6:a1:2d:2c:b3:56:4e:ad:37:db:60:ea:d0:7e:f5:
                    dd:99:ab:06:68:88:1e:c1:cd:84:da:4e:47:be:24:
                    0f:db:1d:ae:aa:42:f1:82:00:85:78:71:16:8c:46:
                    d7:57:d1:2c:0b:91:68:e3:18:8b:23:7d:66:fd:2e:
                    97:af:bb:be:cc:9e:74:d3:52:22:d7:78:2b:97:1f:
                    48:93:46:bb:bb:59:16:48:86:79:d8:6d:79:7e:6d:
                    69:09:32:3b:2e:c0:a3:46:17:97:1f:91:dd:fd:67:
                    74:61:0d:1d:2c:32:21:80:c6:85:d3:af:42:e1:f6:
                    8f:b0:db:e1:5d:fe:5e:14:58:94:95:e3:2c:92:b7:
                    3d:b3:7d:a5:bc:c9:8b:c7:cd:14:66:93:77:59:48:
                    26:0f
                Exponent: 65537 (0x10001)
        X509v3 extensions:
            X509v3 Basic Constraints: 
                CA:FALSE
            X509v3 Subject Key Identifier: 
                7E:EB:EE:1C:99:1A:52:3B:C7:42:36:B4:08:99:46:2F:D1:CF:7D:AF
            X509v3 Authority Key Identifier: 
                keyid:87:B8:70:47:01:E1:5B:E3:F4:CE:87:D9:B5:C9:69:B4:F4:47:B0:B2
                DirName:/CN=team42-net
                serial:16:A5:87:71:9F:F8:C7:C0:51:2B:3F:42:6D:00:E7:15:26:42:BF:42
            X509v3 Extended Key Usage: 
                TLS Web Client Authentication
            X509v3 Key Usage: 
                Digital Signature
    Signature Algorithm: sha256WithRSAEncryption
    Signature Value:
        18:e0:bc:ae:63:0b:9d:61:72:73:1f:55:49:49:4e:11:87:fd:
        fa:9b:20:7e:62:0a:f5:44:51:4a:ee:e7:85:d8:6b:be:4f:79:
        cd:33:3e:55:31:91:66:26:e8:4d:6f:23:90:0b:58:a4:91:a7:
        08:ff:43:14:42:df:a1:53:03:8f:02:0f:0f:38:74:9d:83:50:
        1b:5c:26:5d:b7:d8:9c:db:4f:28:3d:71:75:25:91:7a:26:2e:
        f3:31:18:4a:f3:84:27:2f:c1:2e:cd:31:61:cb:39:72:85:c1:
        d6:c3:d6:ac:cd:ba:fd:34:28:0d:1a:40:cc:4b:bd:0e:f4:b0:
        15:e1:6f:47:e6:fa:ab:89:50:81:a2:e5:ea:f7:79:d9:89:06:
        1e:be:19:16:52:92:f2:63:cb:4c:b1:2b:76:17:31:40:57:9a:
        f7:ef:dd:99:14:e6:bd:94:be:ed:13:0a:4f:19:39:08:c8:40:
        21:cd:02:de:e5:9d:24:d8:71:e4:f1:c3:c3:8e:ea:58:73:7b:
        aa:db:3e:c2:b9:5b:0c:12:1a:64:e2:c7:8c:df:bf:70:65:c6:
        78:ae:c4:20:3e:94:0a:09:25:15:6e:8f:01:48:7b:cd:37:b6:
        9c:73:a0:49:be:2d:6e:52:53:62:e5:17:06:5a:17:bb:12:b5:
        96:7c:65:83
-----BEGIN CERTIFICATE-----
MIIDWTCCAkGgAwIBAgIQMElRwuHmRgmPpl8ZBZIrpjANBgkqhkiG9w0BAQsFADAV
MRMwEQYDVQQDDAp0ZWFtNDItbmV0MB4XDTIzMDQyMDIyNTQzMFoXDTI2MDQwNDIy
NTQzMFowGDEWMBQGA1UEAwwNdGVhbTQyLWNsaWVudDCCASIwDQYJKoZIhvcNAQEB
BQADggEPADCCAQoCggEBAKeiqS/SqvNAswmWiFMRaEBH6YTISxgMhOSjJaB/laI9
5wyMqSGvFxSU8fB/BXlSYvIMd1/k84Lgjbh10CUBDFeVi/PSoEeF5enLfLlF/SVQ
xnGuvzHtA658+AlGLy7Jl5VEaexWF+2b5qEtLLNWTq0322Dq0H713ZmrBmiIHsHN
hNpOR74kD9sdrqpC8YIAhXhxFoxG11fRLAuRaOMYiyN9Zv0ul6+7vsyedNNSItd4
K5cfSJNGu7tZFkiGedhteX5taQkyOy7Ao0YXlx+R3f1ndGENHSwyIYDGhdOvQuH2
j7Db4V3+XhRYlJXjLJK3PbN9pbzJi8fNFGaTd1lIJg8CAwEAAaOBoTCBnjAJBgNV
HRMEAjAAMB0GA1UdDgQWBBR+6+4cmRpSO8dCNrQImUYv0c99rzBQBgNVHSMESTBH
gBSHuHBHAeFb4/TOh9m1yWm09EewsqEZpBcwFTETMBEGA1UEAwwKdGVhbTQyLW5l
dIIUFqWHcZ/4x8BRKz9CbQDnFSZCv0IwEwYDVR0lBAwwCgYIKwYBBQUHAwIwCwYD
VR0PBAQDAgeAMA0GCSqGSIb3DQEBCwUAA4IBAQAY4LyuYwudYXJzH1VJSU4Rh/36
myB+Ygr1RFFK7ueF2Gu+T3nNMz5VMZFmJuhNbyOQC1ikkacI/0MUQt+hUwOPAg8P
OHSdg1AbXCZdt9ic208oPXF1JZF6Ji7zMRhK84QnL8EuzTFhyzlyhcHWw9aszbr9
NCgNGkDMS70O9LAV4W9H5vqriVCBouXq93nZiQYevhkWUpLyY8tMsSt2FzFAV5r3
792ZFOa9lL7tEwpPGTkIyEAhzQLe5Z0k2HHk8cPDjupYc3uq2z7CuVsMEhpk4seM
379wZcZ4rsQgPpQKCSUVbo8BSHvNN7acc6BJvi1uUlNi5RcGWhe7ErWWfGWD
-----END CERTIFICATE-----
