Certificate:
    Data:
        Version: 3 (0x2)
        Serial Number:
            a9:4a:bf:dc:1a:8b:9b:f3:79:11:86:83:6e:da:14:02
        Signature Algorithm: sha256WithRSAEncryption
        Issuer: CN=team42-net
        Validity
            Not Before: Apr 20 00:10:55 2023 GMT
            Not After : Apr  4 00:10:55 2026 GMT
        Subject: CN=team42-client
        Subject Public Key Info:
            Public Key Algorithm: rsaEncryption
                Public-Key: (2048 bit)
                Modulus:
                    00:be:21:f7:e2:58:1c:33:9f:05:7d:1c:cb:db:78:
                    69:c6:33:67:24:aa:66:f0:ce:9f:44:9e:c0:a0:4f:
                    93:00:e7:0b:c6:64:3c:07:5b:ee:3e:e1:e5:27:91:
                    5a:c6:07:a9:e5:71:93:cc:d0:b8:1e:65:60:bc:df:
                    aa:75:86:f3:6c:23:da:70:46:43:81:d0:a6:69:57:
                    1e:8e:5b:4b:df:cc:83:64:e1:ec:37:9d:25:1b:38:
                    d1:78:39:2b:e1:af:f7:df:7a:34:de:54:ae:99:b5:
                    2b:57:3e:9d:e9:d3:e4:18:46:51:fe:c1:91:64:48:
                    87:1d:0b:9f:34:6f:31:97:dc:4d:39:60:0c:8b:f1:
                    8a:51:73:7b:c0:db:05:b4:6e:d3:d2:c3:eb:a4:78:
                    4a:7e:51:e1:27:10:8e:68:b1:6a:d0:1f:35:95:a8:
                    dd:49:30:f1:60:fa:5e:1e:c0:ee:bc:b8:ec:a5:19:
                    cf:3f:e8:da:ab:b4:bb:6b:30:ec:de:03:4f:23:a4:
                    81:d4:db:e8:42:8c:11:70:55:7e:e0:0b:c2:cb:29:
                    72:62:0e:1d:c4:46:81:36:1e:e7:6e:13:74:77:99:
                    fa:c9:d1:e6:95:75:02:d9:52:8a:f4:6c:9e:97:41:
                    40:25:42:9f:18:8f:22:18:98:d2:72:c2:dd:ce:48:
                    1e:ff
                Exponent: 65537 (0x10001)
        X509v3 extensions:
            X509v3 Basic Constraints: 
                CA:FALSE
            X509v3 Subject Key Identifier: 
                72:E8:82:DD:2E:FF:41:F0:AD:E2:37:6D:1C:C4:87:35:0D:7E:90:72
            X509v3 Authority Key Identifier: 
                keyid:50:27:76:78:D4:7C:8E:1B:54:8D:EA:CE:E0:FC:72:BC:38:F6:54:2D
                DirName:/CN=team42-net
                serial:4D:9F:D2:2C:9E:36:65:D9:A2:28:40:0C:6A:18:EA:55:3F:78:A2:C4
            X509v3 Extended Key Usage: 
                TLS Web Client Authentication
            X509v3 Key Usage: 
                Digital Signature
    Signature Algorithm: sha256WithRSAEncryption
    Signature Value:
        0b:ea:07:2f:c8:6c:c5:ec:46:be:a0:17:8f:85:ec:9f:6c:e6:
        14:14:a7:0d:87:54:a6:21:07:eb:06:96:c1:44:a0:67:73:bb:
        a8:c9:d7:69:a7:df:e6:fb:8f:68:d6:3a:28:db:f4:ad:0d:25:
        4c:f4:57:a1:62:7e:9e:be:72:fd:07:fa:91:d9:4e:0d:6e:48:
        cd:fd:66:86:30:f3:a6:37:fb:f4:a8:9e:c0:06:07:82:da:74:
        1a:09:8a:c8:d2:f4:5e:3e:1b:ca:3f:19:79:6a:fb:ac:d4:4c:
        78:12:b2:98:0e:65:15:6c:5a:ea:f5:3b:d4:80:3a:1b:60:ed:
        9f:88:76:89:7d:af:70:31:f4:e3:7f:70:80:88:ff:80:35:f8:
        1a:67:bb:40:59:2d:d5:62:d4:e5:ae:dc:be:0d:a0:16:d7:9e:
        74:1d:81:c4:95:71:03:9a:85:a6:b5:69:43:90:7c:ed:cd:72:
        8a:31:6b:18:3e:01:f4:8e:7a:39:40:cf:77:e7:43:7e:e5:62:
        c8:d3:be:14:ab:50:44:19:33:ac:63:7c:73:b3:c0:26:aa:38:
        40:22:54:cf:2b:4b:2d:a8:88:86:cc:2d:7c:74:f9:a8:88:81:
        89:15:ef:81:a1:64:0c:42:33:2e:52:ff:19:48:92:1f:fd:93:
        c9:ec:b8:b9
-----BEGIN CERTIFICATE-----
MIIDWjCCAkKgAwIBAgIRAKlKv9wai5vzeRGGg27aFAIwDQYJKoZIhvcNAQELBQAw
FTETMBEGA1UEAwwKdGVhbTQyLW5ldDAeFw0yMzA0MjAwMDEwNTVaFw0yNjA0MDQw
MDEwNTVaMBgxFjAUBgNVBAMMDXRlYW00Mi1jbGllbnQwggEiMA0GCSqGSIb3DQEB
AQUAA4IBDwAwggEKAoIBAQC+IffiWBwznwV9HMvbeGnGM2ckqmbwzp9EnsCgT5MA
5wvGZDwHW+4+4eUnkVrGB6nlcZPM0LgeZWC836p1hvNsI9pwRkOB0KZpVx6OW0vf
zINk4ew3nSUbONF4OSvhr/ffejTeVK6ZtStXPp3p0+QYRlH+wZFkSIcdC580bzGX
3E05YAyL8YpRc3vA2wW0btPSw+ukeEp+UeEnEI5osWrQHzWVqN1JMPFg+l4ewO68
uOylGc8/6NqrtLtrMOzeA08jpIHU2+hCjBFwVX7gC8LLKXJiDh3ERoE2HuduE3R3
mfrJ0eaVdQLZUor0bJ6XQUAlQp8YjyIYmNJywt3OSB7/AgMBAAGjgaEwgZ4wCQYD
VR0TBAIwADAdBgNVHQ4EFgQUcuiC3S7/QfCt4jdtHMSHNQ1+kHIwUAYDVR0jBEkw
R4AUUCd2eNR8jhtUjerO4PxyvDj2VC2hGaQXMBUxEzARBgNVBAMMCnRlYW00Mi1u
ZXSCFE2f0iyeNmXZoihADGoY6lU/eKLEMBMGA1UdJQQMMAoGCCsGAQUFBwMCMAsG
A1UdDwQEAwIHgDANBgkqhkiG9w0BAQsFAAOCAQEAC+oHL8hsxexGvqAXj4Xsn2zm
FBSnDYdUpiEH6waWwUSgZ3O7qMnXaaff5vuPaNY6KNv0rQ0lTPRXoWJ+nr5y/Qf6
kdlODW5Izf1mhjDzpjf79KiewAYHgtp0GgmKyNL0Xj4byj8ZeWr7rNRMeBKymA5l
FWxa6vU71IA6G2Dtn4h2iX2vcDH0439wgIj/gDX4Gme7QFkt1WLU5a7cvg2gFtee
dB2BxJVxA5qFprVpQ5B87c1yijFrGD4B9I56OUDPd+dDfuViyNO+FKtQRBkzrGN8
c7PAJqo4QCJUzytLLaiIhswtfHT5qIiBiRXvgaFkDEIzLlL/GUiSH/2Tyey4uQ==
-----END CERTIFICATE-----
