Certificate:
    Data:
        Version: 3 (0x2)
        Serial Number:
            6c:0c:a5:fe:4a:85:0e:69:82:03:f5:93:53:7d:2d:e2
        Signature Algorithm: sha256WithRSAEncryption
        Issuer: CN=team25-net
        Validity
            Not Before: Apr 20 22:54:02 2023 GMT
            Not After : Apr  4 22:54:02 2026 GMT
        Subject: CN=team25-client
        Subject Public Key Info:
            Public Key Algorithm: rsaEncryption
                Public-Key: (2048 bit)
                Modulus:
                    00:e7:f4:39:55:65:76:2e:48:6f:44:61:8b:c6:30:
                    22:4b:10:ee:ef:3b:4c:e6:2b:c8:a9:ce:f2:68:27:
                    bb:28:fd:cd:d6:b4:3a:27:c7:2d:49:b5:13:08:e2:
                    5a:3b:8a:d6:90:f7:a7:8a:9b:6d:c3:a1:99:35:2d:
                    1c:94:cd:2e:52:77:07:fa:6d:84:7e:c2:f4:71:67:
                    36:0e:5f:c2:f6:fd:6a:77:53:fc:f1:f7:02:b5:b3:
                    7e:00:4d:19:52:a4:c0:c7:e2:c5:c2:16:57:03:91:
                    90:d8:92:b8:05:22:34:57:29:e4:99:67:5a:e1:fd:
                    b5:f7:3e:77:2b:59:8d:75:06:69:54:b2:d4:d8:33:
                    60:47:4b:c3:2f:dd:1a:bf:a8:09:1a:69:81:6a:06:
                    73:da:00:a6:f9:b3:f6:42:ec:c3:e1:a7:8f:d1:10:
                    82:e4:37:d2:cb:6c:59:1d:06:ac:3e:77:29:bc:5e:
                    49:75:49:40:78:e7:a6:b5:b9:ab:77:80:f5:12:73:
                    6f:26:da:42:88:df:05:fb:e9:5e:4f:d4:d5:71:87:
                    f3:6e:87:0a:24:b8:8d:af:c3:28:7b:af:47:83:f9:
                    7f:46:1a:3d:71:4e:9d:5b:27:78:39:98:0e:25:f8:
                    68:19:72:68:30:1b:99:4b:06:c2:78:eb:2f:7b:36:
                    de:a1
                Exponent: 65537 (0x10001)
        X509v3 extensions:
            X509v3 Basic Constraints: 
                CA:FALSE
            X509v3 Subject Key Identifier: 
                AE:77:6B:06:17:81:CA:0A:48:D8:D8:A4:9E:92:D1:90:9A:49:74:28
            X509v3 Authority Key Identifier: 
                keyid:ED:BF:0E:29:EF:A3:A6:BA:F8:A2:35:8C:FA:63:F4:07:95:7F:C1:F5
                DirName:/CN=team25-net
                serial:1B:98:0D:FE:92:0D:10:AC:AF:B6:8A:1E:AC:BE:F2:1E:30:CA:82:3F
            X509v3 Extended Key Usage: 
                TLS Web Client Authentication
            X509v3 Key Usage: 
                Digital Signature
    Signature Algorithm: sha256WithRSAEncryption
    Signature Value:
        71:60:2c:2d:65:83:de:23:01:57:0a:09:44:62:d4:a8:37:c0:
        a3:f4:bb:79:34:ef:e0:ba:db:aa:2a:6f:3e:a5:8d:70:a0:f4:
        bd:a9:13:29:23:7a:ae:8b:82:88:a2:e8:95:3d:d2:aa:16:6d:
        89:39:fb:14:b7:b2:72:84:81:c5:7a:c9:be:17:58:86:64:f1:
        dd:c1:2b:23:65:cb:18:5c:92:cc:c9:f4:a4:f7:74:91:57:b4:
        78:07:43:e5:fc:9f:5e:1e:48:4c:43:c7:ae:fb:f4:9b:39:02:
        a0:ed:6e:3d:fe:5b:41:4f:ce:8f:0b:79:a2:78:f6:c5:da:50:
        c0:a0:f7:26:db:1e:5b:9d:bb:e3:5c:cb:77:b1:ae:4b:6a:cd:
        78:e7:2d:16:86:61:ff:9c:45:6c:94:d0:a7:8f:f3:7b:da:06:
        ae:cf:e0:b4:75:6f:a5:27:11:ad:e0:71:59:1b:dd:67:27:a8:
        02:c8:8e:e6:0f:39:e3:24:34:d5:4d:a0:51:34:81:e6:cc:57:
        74:2e:73:69:35:49:d8:e0:73:b1:ee:9b:f1:3f:0f:22:c5:d4:
        53:0f:38:94:e7:ef:31:f8:23:0b:a3:6f:48:68:0d:2a:55:d4:
        ea:ed:46:70:a2:33:5b:46:8f:fd:08:9e:3e:ff:5b:c1:da:82:
        2f:80:fd:98
-----BEGIN CERTIFICATE-----
MIIDWTCCAkGgAwIBAgIQbAyl/kqFDmmCA/WTU30t4jANBgkqhkiG9w0BAQsFADAV
MRMwEQYDVQQDDAp0ZWFtMjUtbmV0MB4XDTIzMDQyMDIyNTQwMloXDTI2MDQwNDIy
NTQwMlowGDEWMBQGA1UEAwwNdGVhbTI1LWNsaWVudDCCASIwDQYJKoZIhvcNAQEB
BQADggEPADCCAQoCggEBAOf0OVVldi5Ib0Rhi8YwIksQ7u87TOYryKnO8mgnuyj9
zda0OifHLUm1EwjiWjuK1pD3p4qbbcOhmTUtHJTNLlJ3B/pthH7C9HFnNg5fwvb9
andT/PH3ArWzfgBNGVKkwMfixcIWVwORkNiSuAUiNFcp5JlnWuH9tfc+dytZjXUG
aVSy1NgzYEdLwy/dGr+oCRppgWoGc9oApvmz9kLsw+Gnj9EQguQ30stsWR0GrD53
KbxeSXVJQHjnprW5q3eA9RJzbybaQojfBfvpXk/U1XGH826HCiS4ja/DKHuvR4P5
f0YaPXFOnVsneDmYDiX4aBlyaDAbmUsGwnjrL3s23qECAwEAAaOBoTCBnjAJBgNV
HRMEAjAAMB0GA1UdDgQWBBSud2sGF4HKCkjY2KSektGQmkl0KDBQBgNVHSMESTBH
gBTtvw4p76OmuviiNYz6Y/QHlX/B9aEZpBcwFTETMBEGA1UEAwwKdGVhbTI1LW5l
dIIUG5gN/pINEKyvtooerL7yHjDKgj8wEwYDVR0lBAwwCgYIKwYBBQUHAwIwCwYD
VR0PBAQDAgeAMA0GCSqGSIb3DQEBCwUAA4IBAQBxYCwtZYPeIwFXCglEYtSoN8Cj
9Lt5NO/gutuqKm8+pY1woPS9qRMpI3qui4KIouiVPdKqFm2JOfsUt7JyhIHFesm+
F1iGZPHdwSsjZcsYXJLMyfSk93SRV7R4B0Pl/J9eHkhMQ8eu+/SbOQKg7W49/ltB
T86PC3miePbF2lDAoPcm2x5bnbvjXMt3sa5Las145y0WhmH/nEVslNCnj/N72gau
z+C0dW+lJxGt4HFZG91nJ6gCyI7mDznjJDTVTaBRNIHmzFd0LnNpNUnY4HOx7pvx
Pw8ixdRTDziU5+8x+CMLo29IaA0qVdTq7UZwojNbRo/9CJ4+/1vB2oIvgP2Y
-----END CERTIFICATE-----
