Certificate:
    Data:
        Version: 3 (0x2)
        Serial Number:
            a7:78:7a:1c:15:fa:b1:7a:9d:62:0e:bc:c1:67:44:8e
        Signature Algorithm: sha256WithRSAEncryption
        Issuer: CN=team25-net
        Validity
            Not Before: Apr 20 00:10:32 2023 GMT
            Not After : Apr  4 00:10:32 2026 GMT
        Subject: CN=team25-server
        Subject Public Key Info:
            Public Key Algorithm: rsaEncryption
                Public-Key: (2048 bit)
                Modulus:
                    00:ac:f3:bc:1e:a0:22:04:6d:e4:3f:81:48:59:56:
                    48:6e:d9:f6:c7:81:11:de:de:10:73:10:c9:cd:b3:
                    41:e2:13:e3:90:8d:85:97:04:70:a9:87:38:51:62:
                    c3:8e:11:f1:d0:8e:dc:ce:d8:c0:3a:dd:6b:60:19:
                    87:a7:80:aa:03:03:83:a4:9a:15:e2:9d:09:56:7b:
                    46:2d:b7:1b:11:8c:de:9e:b1:44:ba:a2:f8:b7:de:
                    41:54:15:77:1d:e0:46:9b:73:dd:3a:8a:2c:97:db:
                    ec:aa:25:5f:aa:11:00:5d:22:ce:30:c4:a8:b6:f9:
                    68:17:8d:70:3a:24:1c:99:e5:ef:48:e1:c7:d7:77:
                    37:e9:06:07:d9:c7:db:45:fc:ec:07:db:f6:a7:6e:
                    78:09:e8:68:64:a7:86:ef:f0:24:bc:52:c6:5e:7c:
                    64:20:eb:c1:9e:a0:83:a3:0f:dd:0e:8c:6a:8f:1b:
                    a8:59:e7:0c:92:08:14:69:e1:93:af:cd:cd:44:23:
                    2c:a3:96:1e:9d:d5:dd:48:8a:c2:f8:46:25:e4:99:
                    e2:f5:50:d9:fc:a1:1b:6d:90:a6:74:b0:45:74:9f:
                    09:32:e7:4a:f4:9d:e3:22:7d:b6:01:c9:f0:01:1b:
                    05:fc:c6:aa:b3:28:1a:75:6d:69:c9:5f:3a:88:f0:
                    a9:27
                Exponent: 65537 (0x10001)
        X509v3 extensions:
            X509v3 Basic Constraints: 
                CA:FALSE
            X509v3 Subject Key Identifier: 
                58:92:A7:66:DC:95:A3:F8:E3:B5:BF:D6:F6:DF:50:C3:0D:9A:ED:75
            X509v3 Authority Key Identifier: 
                keyid:BE:66:C1:2F:A6:BC:45:97:37:45:26:39:90:7F:14:E2:EA:07:6E:CA
                DirName:/CN=team25-net
                serial:57:AB:A0:27:E5:76:B8:0C:4D:CE:F6:A6:57:10:41:65:CB:3B:20:4F
            X509v3 Extended Key Usage: 
                TLS Web Server Authentication
            X509v3 Key Usage: 
                Digital Signature, Key Encipherment
            X509v3 Subject Alternative Name: 
                DNS:team25-server
    Signature Algorithm: sha256WithRSAEncryption
    Signature Value:
        94:46:3d:c2:90:8d:66:c1:7b:62:9e:3e:5f:5f:7d:80:be:be:
        bd:9b:67:70:5d:0e:40:c4:53:28:f3:ee:f1:99:a0:02:6e:0a:
        e6:e7:12:27:ba:bc:91:3d:1a:5f:dd:8f:49:f7:ba:dd:e8:ab:
        a9:75:b9:22:6d:00:a1:c9:39:86:64:d9:56:59:7b:48:d5:87:
        b4:45:b9:be:26:cc:a1:f2:b5:dd:0f:3b:b3:43:4c:12:2c:f9:
        36:4f:08:78:a0:3d:65:ea:c0:1a:51:83:91:6d:f4:9e:3a:f1:
        f7:49:9e:3b:21:9b:76:45:4f:1d:30:90:61:5d:fc:bd:d8:89:
        47:11:f5:2a:ef:04:a6:82:38:f8:a8:ae:ca:00:ec:3b:43:6e:
        8f:48:7a:7f:fe:31:74:38:2c:26:bd:2d:a2:6e:30:d9:0c:eb:
        9b:3c:f9:34:cc:b6:97:9a:06:97:f6:6b:30:57:f0:46:98:c6:
        e0:65:d0:27:f0:6c:16:af:1c:ae:5d:e2:9d:de:3d:ff:f3:67:
        70:b3:e5:00:c2:8b:e3:35:4c:f1:1a:8a:87:86:f9:d4:e0:fd:
        d3:0f:98:16:5e:12:6b:87:70:96:91:d7:66:9b:6f:76:fd:47:
        d2:74:89:b0:5c:2a:56:26:81:dd:af:6d:30:0d:39:89:7d:ed:
        80:ce:f6:37
-----BEGIN CERTIFICATE-----
MIIDdDCCAlygAwIBAgIRAKd4ehwV+rF6nWIOvMFnRI4wDQYJKoZIhvcNAQELBQAw
FTETMBEGA1UEAwwKdGVhbTI1LW5ldDAeFw0yMzA0MjAwMDEwMzJaFw0yNjA0MDQw
MDEwMzJaMBgxFjAUBgNVBAMMDXRlYW0yNS1zZXJ2ZXIwggEiMA0GCSqGSIb3DQEB
AQUAA4IBDwAwggEKAoIBAQCs87weoCIEbeQ/gUhZVkhu2fbHgRHe3hBzEMnNs0Hi
E+OQjYWXBHCphzhRYsOOEfHQjtzO2MA63WtgGYengKoDA4OkmhXinQlWe0YttxsR
jN6esUS6ovi33kFUFXcd4Eabc906iiyX2+yqJV+qEQBdIs4wxKi2+WgXjXA6JByZ
5e9I4cfXdzfpBgfZx9tF/OwH2/anbngJ6Ghkp4bv8CS8UsZefGQg68GeoIOjD90O
jGqPG6hZ5wySCBRp4ZOvzc1EIyyjlh6d1d1IisL4RiXkmeL1UNn8oRttkKZ0sEV0
nwky50r0neMifbYByfABGwX8xqqzKBp1bWnJXzqI8KknAgMBAAGjgbswgbgwCQYD
VR0TBAIwADAdBgNVHQ4EFgQUWJKnZtyVo/jjtb/W9t9Qww2a7XUwUAYDVR0jBEkw
R4AUvmbBL6a8RZc3RSY5kH8U4uoHbsqhGaQXMBUxEzARBgNVBAMMCnRlYW0yNS1u
ZXSCFFeroCfldrgMTc72plcQQWXLOyBPMBMGA1UdJQQMMAoGCCsGAQUFBwMBMAsG
A1UdDwQEAwIFoDAYBgNVHREEETAPgg10ZWFtMjUtc2VydmVyMA0GCSqGSIb3DQEB
CwUAA4IBAQCURj3CkI1mwXtinj5fX32Avr69m2dwXQ5AxFMo8+7xmaACbgrm5xIn
uryRPRpf3Y9J97rd6KupdbkibQChyTmGZNlWWXtI1Ye0Rbm+Jsyh8rXdDzuzQ0wS
LPk2Twh4oD1l6sAaUYORbfSeOvH3SZ47IZt2RU8dMJBhXfy92IlHEfUq7wSmgjj4
qK7KAOw7Q26PSHp//jF0OCwmvS2ibjDZDOubPPk0zLaXmgaX9mswV/BGmMbgZdAn
8GwWrxyuXeKd3j3/82dws+UAwovjNUzxGoqHhvnU4P3TD5gWXhJrh3CWkddmm292
/UfSdImwXCpWJoHdr20wDTmJfe2AzvY3
-----END CERTIFICATE-----
