Certificate:
    Data:
        Version: 3 (0x2)
        Serial Number:
            b7:b7:76:c3:3f:7a:5d:ee:12:e8:14:88:30:4b:26:1a
        Signature Algorithm: sha256WithRSAEncryption
        Issuer: CN=team25-net
        Validity
            Not Before: Apr 20 22:54:03 2023 GMT
            Not After : Apr  4 22:54:03 2026 GMT
        Subject: CN=team25-server
        Subject Public Key Info:
            Public Key Algorithm: rsaEncryption
                Public-Key: (2048 bit)
                Modulus:
                    00:d1:d0:53:43:71:18:ad:ba:79:0a:1e:c9:ec:58:
                    31:72:72:78:1a:0f:fc:60:2c:93:12:be:e7:81:90:
                    20:42:1a:74:9e:e1:d6:52:f5:c9:c9:97:e8:c1:5d:
                    e8:34:12:90:0e:32:61:ee:a7:c6:e3:58:c9:e8:f1:
                    1e:4d:4d:73:0d:40:e3:e6:9d:43:7a:fe:c5:c0:bb:
                    a4:15:9e:26:ed:0a:ac:39:75:a5:f2:ca:ed:28:e5:
                    6f:9e:54:fa:ae:83:2d:9e:fc:b7:b7:48:26:88:a0:
                    82:fd:a4:9d:ef:31:54:ac:2c:46:ad:a9:48:16:1e:
                    b2:65:f4:ff:64:2b:b0:ee:d8:62:19:df:63:d2:59:
                    52:75:8d:6b:d1:dd:4a:a8:2a:65:fb:18:0c:03:09:
                    08:5e:92:dc:10:4c:f8:7d:64:2b:db:fa:fc:3a:05:
                    5b:03:4f:9f:61:50:09:20:a5:97:f2:b9:d3:02:e7:
                    4c:05:d1:df:8f:83:87:8f:8a:98:38:06:71:e1:b6:
                    ed:d1:bc:3f:05:60:80:41:34:c6:49:07:a6:50:3a:
                    37:8e:c9:5f:3c:43:e0:76:fe:f7:5d:e1:af:33:77:
                    7b:b0:21:94:05:a8:79:3c:17:db:b6:f2:3a:5b:69:
                    7c:84:02:23:42:34:3b:c1:33:ef:11:41:19:b0:9f:
                    71:7d
                Exponent: 65537 (0x10001)
        X509v3 extensions:
            X509v3 Basic Constraints: 
                CA:FALSE
            X509v3 Subject Key Identifier: 
                E7:BD:9A:4D:BC:AD:15:E7:4B:E7:32:E1:82:C7:D9:87:54:49:4F:E6
            X509v3 Authority Key Identifier: 
                keyid:ED:BF:0E:29:EF:A3:A6:BA:F8:A2:35:8C:FA:63:F4:07:95:7F:C1:F5
                DirName:/CN=team25-net
                serial:1B:98:0D:FE:92:0D:10:AC:AF:B6:8A:1E:AC:BE:F2:1E:30:CA:82:3F
            X509v3 Extended Key Usage: 
                TLS Web Server Authentication
            X509v3 Key Usage: 
                Digital Signature, Key Encipherment
            X509v3 Subject Alternative Name: 
                DNS:team25-server
    Signature Algorithm: sha256WithRSAEncryption
    Signature Value:
        9b:1b:4c:ac:70:c7:09:79:31:ed:91:86:0a:8e:68:99:d3:37:
        77:9f:29:a0:55:2b:38:e1:d5:06:f0:d0:d0:b1:89:c8:39:3b:
        f5:30:4c:d6:46:67:35:90:2c:57:63:49:3b:6b:c7:1b:a6:7e:
        ab:b2:36:e6:d4:ca:6d:44:03:e7:eb:a1:f2:72:c6:5a:32:fe:
        de:ff:39:38:5c:12:f5:76:d0:18:9b:d2:26:2f:70:0c:6e:df:
        e6:e9:ba:e1:e0:ba:3c:3e:29:89:63:ff:26:bc:82:0e:4d:4f:
        73:7a:ef:26:7e:af:d2:4b:aa:51:c4:27:32:66:e8:f0:09:50:
        68:73:d7:fb:6d:3d:1c:03:54:b2:76:c8:2d:8a:6f:2e:0c:ee:
        15:c6:30:76:3d:9b:5f:d9:f7:bf:2e:df:7e:b2:fa:fc:a6:e3:
        8c:ff:13:bc:97:9c:82:a5:b6:af:ff:75:20:5a:d0:37:b0:48:
        77:2d:24:39:b4:e3:7c:d5:5f:71:4e:37:34:72:97:39:83:9d:
        8f:2d:60:44:6d:78:1f:bb:4c:24:a0:20:0b:58:a6:6e:0c:24:
        37:5c:43:02:0d:59:50:83:c6:a2:6b:f0:94:ac:26:f1:46:a4:
        c8:3b:f0:5f:b1:79:64:c6:07:8c:01:83:dc:16:0a:25:24:57:
        e1:3e:28:70
-----BEGIN CERTIFICATE-----
MIIDdDCCAlygAwIBAgIRALe3dsM/el3uEugUiDBLJhowDQYJKoZIhvcNAQELBQAw
FTETMBEGA1UEAwwKdGVhbTI1LW5ldDAeFw0yMzA0MjAyMjU0MDNaFw0yNjA0MDQy
MjU0MDNaMBgxFjAUBgNVBAMMDXRlYW0yNS1zZXJ2ZXIwggEiMA0GCSqGSIb3DQEB
AQUAA4IBDwAwggEKAoIBAQDR0FNDcRitunkKHsnsWDFycngaD/xgLJMSvueBkCBC
GnSe4dZS9cnJl+jBXeg0EpAOMmHup8bjWMno8R5NTXMNQOPmnUN6/sXAu6QVnibt
Cqw5daXyyu0o5W+eVPqugy2e/Le3SCaIoIL9pJ3vMVSsLEatqUgWHrJl9P9kK7Du
2GIZ32PSWVJ1jWvR3UqoKmX7GAwDCQhektwQTPh9ZCvb+vw6BVsDT59hUAkgpZfy
udMC50wF0d+Pg4ePipg4BnHhtu3RvD8FYIBBNMZJB6ZQOjeOyV88Q+B2/vdd4a8z
d3uwIZQFqHk8F9u28jpbaXyEAiNCNDvBM+8RQRmwn3F9AgMBAAGjgbswgbgwCQYD
VR0TBAIwADAdBgNVHQ4EFgQU572aTbytFedL5zLhgsfZh1RJT+YwUAYDVR0jBEkw
R4AU7b8OKe+jprr4ojWM+mP0B5V/wfWhGaQXMBUxEzARBgNVBAMMCnRlYW0yNS1u
ZXSCFBuYDf6SDRCsr7aKHqy+8h4wyoI/MBMGA1UdJQQMMAoGCCsGAQUFBwMBMAsG
A1UdDwQEAwIFoDAYBgNVHREEETAPgg10ZWFtMjUtc2VydmVyMA0GCSqGSIb3DQEB
CwUAA4IBAQCbG0yscMcJeTHtkYYKjmiZ0zd3nymgVSs44dUG8NDQsYnIOTv1MEzW
Rmc1kCxXY0k7a8cbpn6rsjbm1MptRAPn66HycsZaMv7e/zk4XBL1dtAYm9ImL3AM
bt/m6brh4Lo8PimJY/8mvIIOTU9zeu8mfq/SS6pRxCcyZujwCVBoc9f7bT0cA1Sy
dsgtim8uDO4VxjB2PZtf2fe/Lt9+svr8puOM/xO8l5yCpbav/3UgWtA3sEh3LSQ5
tON81V9xTjc0cpc5g52PLWBEbXgfu0wkoCALWKZuDCQ3XEMCDVlQg8aia/CUrCbx
RqTIO/BfsXlkxgeMAYPcFgolJFfhPihw
-----END CERTIFICATE-----
