Certificate:
    Data:
        Version: 3 (0x2)
        Serial Number:
            94:24:a7:a9:31:c4:db:c1:ee:83:1d:9e:aa:ae:cc:f2
        Signature Algorithm: sha256WithRSAEncryption
        Issuer: CN=team35-net
        Validity
            Not Before: Apr 20 00:10:47 2023 GMT
            Not After : Apr  4 00:10:47 2026 GMT
        Subject: CN=team35-client
        Subject Public Key Info:
            Public Key Algorithm: rsaEncryption
                Public-Key: (2048 bit)
                Modulus:
                    00:a6:50:c1:26:39:25:30:0b:ef:b0:3c:79:22:01:
                    fc:c1:23:e6:82:3e:c8:df:87:3e:ff:8d:75:9e:f3:
                    02:85:48:88:f4:e3:e5:d4:e6:df:c1:c0:b7:b1:cb:
                    c1:d3:90:8c:dc:be:89:3f:ea:19:08:70:49:c0:ff:
                    96:23:66:89:67:f8:ca:76:6f:23:ec:c6:47:70:bc:
                    0c:7e:e5:ee:53:53:44:30:1f:a7:ac:82:06:b1:28:
                    f1:62:ea:f8:15:9b:98:94:19:20:10:1d:8e:df:23:
                    cd:bd:2a:68:47:d4:0d:6e:01:f8:63:33:2c:a7:ab:
                    0a:4b:52:f2:26:e4:ca:72:3b:b2:ec:e4:9b:ec:e4:
                    34:d4:10:c9:18:1f:a0:d5:65:90:b2:fa:06:bf:c3:
                    5e:fe:6a:92:9d:29:fb:21:71:c4:c0:21:f0:2d:d4:
                    5c:e8:11:ef:31:1a:37:0b:a3:6c:33:e1:c1:ff:a9:
                    03:27:48:66:11:43:61:1b:15:60:5b:40:12:4b:15:
                    b9:e9:f4:78:2b:b5:96:86:b1:0a:01:5d:67:d6:5d:
                    85:3d:64:87:5a:af:31:0d:09:0e:07:6a:e7:32:6b:
                    bb:d6:6d:6c:3d:6c:a0:d3:4f:82:89:fe:96:8c:b1:
                    3c:c9:1c:f1:9e:37:0a:5f:59:05:a3:82:ac:83:07:
                    11:85
                Exponent: 65537 (0x10001)
        X509v3 extensions:
            X509v3 Basic Constraints: 
                CA:FALSE
            X509v3 Subject Key Identifier: 
                D9:6D:E9:9A:DF:6A:66:C0:08:57:BD:17:4E:D4:56:21:07:2C:58:7B
            X509v3 Authority Key Identifier: 
                keyid:AB:94:8C:B0:B1:C5:06:7B:C6:04:BA:0A:CB:A4:9B:86:14:D3:A3:F4
                DirName:/CN=team35-net
                serial:13:5D:72:04:A6:C2:3C:EF:25:67:11:6B:BE:60:FF:C9:84:B7:76:8E
            X509v3 Extended Key Usage: 
                TLS Web Client Authentication
            X509v3 Key Usage: 
                Digital Signature
    Signature Algorithm: sha256WithRSAEncryption
    Signature Value:
        98:a9:9e:19:11:76:94:9a:e9:5e:f5:cd:ed:78:cb:82:2b:ae:
        e3:1e:d8:d3:94:2c:9b:cc:e2:8e:c7:7b:4f:8c:51:05:da:93:
        59:a8:64:46:7f:94:5e:43:af:96:5c:cb:07:ee:80:9f:20:d3:
        b7:74:29:9e:9e:7d:60:b5:c5:5f:0c:63:1c:70:f1:22:b1:21:
        16:c0:cf:33:5b:4c:43:57:2b:c1:30:ee:4d:3b:a3:96:6c:1f:
        72:2f:ae:0b:32:81:d3:b2:3d:45:56:25:49:92:cb:01:37:1b:
        d4:3f:5d:d7:e0:ce:2a:15:cd:cf:ff:b4:3b:75:f4:f9:ff:0d:
        74:e1:bf:36:d8:37:e9:a2:14:ef:e9:b5:69:4b:d3:fe:3a:11:
        c2:48:0a:e8:63:25:de:c3:1f:13:54:d7:83:08:38:72:d5:62:
        aa:a2:cb:5d:a1:e7:9f:0e:93:45:2b:27:f6:ee:00:29:d6:93:
        c3:a4:43:e2:95:ac:d8:eb:33:1a:c4:d6:dd:5b:47:5f:5d:f9:
        1b:00:bf:35:ff:a1:4b:9a:2e:02:60:e9:2a:8e:3b:b1:2f:12:
        b5:29:ea:f0:6b:03:b4:fa:f1:f0:ac:7a:22:4e:9a:8f:e0:bb:
        3f:b9:b7:b9:28:a0:62:ee:47:40:0b:38:47:d2:8e:69:5d:8e:
        bb:02:17:bb
-----BEGIN CERTIFICATE-----
MIIDWjCCAkKgAwIBAgIRAJQkp6kxxNvB7oMdnqquzPIwDQYJKoZIhvcNAQELBQAw
FTETMBEGA1UEAwwKdGVhbTM1LW5ldDAeFw0yMzA0MjAwMDEwNDdaFw0yNjA0MDQw
MDEwNDdaMBgxFjAUBgNVBAMMDXRlYW0zNS1jbGllbnQwggEiMA0GCSqGSIb3DQEB
AQUAA4IBDwAwggEKAoIBAQCmUMEmOSUwC++wPHkiAfzBI+aCPsjfhz7/jXWe8wKF
SIj04+XU5t/BwLexy8HTkIzcvok/6hkIcEnA/5YjZoln+Mp2byPsxkdwvAx+5e5T
U0QwH6esggaxKPFi6vgVm5iUGSAQHY7fI829KmhH1A1uAfhjMyynqwpLUvIm5Mpy
O7Ls5Jvs5DTUEMkYH6DVZZCy+ga/w17+apKdKfshccTAIfAt1FzoEe8xGjcLo2wz
4cH/qQMnSGYRQ2EbFWBbQBJLFbnp9HgrtZaGsQoBXWfWXYU9ZIdarzENCQ4Haucy
a7vWbWw9bKDTT4KJ/paMsTzJHPGeNwpfWQWjgqyDBxGFAgMBAAGjgaEwgZ4wCQYD
VR0TBAIwADAdBgNVHQ4EFgQU2W3pmt9qZsAIV70XTtRWIQcsWHswUAYDVR0jBEkw
R4AUq5SMsLHFBnvGBLoKy6SbhhTTo/ShGaQXMBUxEzARBgNVBAMMCnRlYW0zNS1u
ZXSCFBNdcgSmwjzvJWcRa75g/8mEt3aOMBMGA1UdJQQMMAoGCCsGAQUFBwMCMAsG
A1UdDwQEAwIHgDANBgkqhkiG9w0BAQsFAAOCAQEAmKmeGRF2lJrpXvXN7XjLgiuu
4x7Y05Qsm8zijsd7T4xRBdqTWahkRn+UXkOvllzLB+6AnyDTt3Qpnp59YLXFXwxj
HHDxIrEhFsDPM1tMQ1crwTDuTTujlmwfci+uCzKB07I9RVYlSZLLATcb1D9d1+DO
KhXNz/+0O3X0+f8NdOG/Ntg36aIU7+m1aUvT/joRwkgK6GMl3sMfE1TXgwg4ctVi
qqLLXaHnnw6TRSsn9u4AKdaTw6RD4pWs2OszGsTW3VtHX135GwC/Nf+hS5ouAmDp
Ko47sS8StSnq8GsDtPrx8Kx6Ik6aj+C7P7m3uSigYu5HQAs4R9KOaV2OuwIXuw==
-----END CERTIFICATE-----
