Certificate:
    Data:
        Version: 3 (0x2)
        Serial Number:
            c4:bb:f4:60:5c:f2:ca:54:ba:e8:ef:38:0d:28:14:6f
        Signature Algorithm: sha256WithRSAEncryption
        Issuer: CN=team35-net
        Validity
            Not Before: Apr 20 22:54:19 2023 GMT
            Not After : Apr  4 22:54:19 2026 GMT
        Subject: CN=team35-server
        Subject Public Key Info:
            Public Key Algorithm: rsaEncryption
                Public-Key: (2048 bit)
                Modulus:
                    00:9b:46:ac:5b:23:a7:0d:b8:ec:ba:31:aa:ed:30:
                    36:99:e2:b8:f0:66:de:18:de:16:52:a8:33:10:57:
                    ba:64:96:e9:69:ff:7d:1d:ae:42:f0:f9:e2:fd:fd:
                    e3:d5:97:52:fb:9d:f5:75:2e:b0:dd:eb:fc:d2:0a:
                    dd:81:76:0d:84:30:2a:f9:90:32:55:bb:c6:d9:64:
                    00:31:63:6b:be:8e:ce:fe:99:b7:46:c2:e0:1a:05:
                    d0:49:8f:6c:73:49:ec:ad:a4:e8:c2:a3:e0:db:10:
                    2c:62:12:a0:9a:0f:77:df:25:5d:b0:ab:f3:49:a5:
                    7d:3c:32:ef:c9:7a:90:19:85:6f:91:6e:7e:e8:74:
                    74:b0:0d:0b:d0:63:b5:ee:5c:bd:85:06:c3:17:85:
                    ed:54:14:27:bc:86:d3:00:de:dd:c6:d5:60:d6:f5:
                    ac:65:75:54:39:1b:4f:c0:3c:09:54:45:78:b5:f1:
                    50:55:ab:6b:c4:a0:18:51:a2:13:dc:91:b2:3b:08:
                    21:85:6c:cd:ad:32:25:90:22:59:cd:2b:22:2c:10:
                    a2:c8:4c:6f:f9:72:59:29:1d:f8:0e:d4:82:92:74:
                    5d:59:04:b9:3c:eb:02:49:c4:eb:a5:d0:c4:71:23:
                    fd:2a:c2:b3:09:80:16:71:73:df:65:75:7f:9e:d5:
                    70:13
                Exponent: 65537 (0x10001)
        X509v3 extensions:
            X509v3 Basic Constraints: 
                CA:FALSE
            X509v3 Subject Key Identifier: 
                5E:D7:D7:0E:B4:F9:44:05:42:B1:8C:B3:CB:86:4B:9E:D2:3D:C4:9B
            X509v3 Authority Key Identifier: 
                keyid:C2:67:8D:ED:3D:AA:D7:AF:F8:33:97:E7:2A:E4:45:DE:5C:0B:5E:3F
                DirName:/CN=team35-net
                serial:69:8B:E9:55:6C:35:55:3C:E3:E8:79:80:10:72:C3:60:89:E2:EC:E6
            X509v3 Extended Key Usage: 
                TLS Web Server Authentication
            X509v3 Key Usage: 
                Digital Signature, Key Encipherment
            X509v3 Subject Alternative Name: 
                DNS:team35-server
    Signature Algorithm: sha256WithRSAEncryption
    Signature Value:
        61:0e:8b:94:1b:0b:0b:ed:08:73:ac:70:96:26:b9:34:fb:af:
        d2:ae:f9:80:a3:1d:53:b3:5d:77:85:86:be:ae:79:44:cb:52:
        3d:c8:de:af:c1:20:d0:79:f5:74:fd:3c:5e:6a:79:f0:06:96:
        9e:52:52:de:4b:84:23:7b:72:6d:88:5f:4c:52:0a:b6:7a:f7:
        65:90:97:81:8f:65:b7:37:83:15:af:b0:53:84:5b:fb:c6:f5:
        29:5e:95:59:7b:99:63:11:ec:8e:34:1f:f1:6a:bc:ec:50:b4:
        92:16:09:c2:20:ef:bf:82:51:97:d1:b8:f4:34:c1:e6:e2:b3:
        b0:be:58:d4:90:26:05:9a:ab:f1:4b:2b:be:da:8d:15:99:01:
        92:89:21:f8:d3:ca:6a:71:5e:be:c5:11:07:2a:bc:2f:e3:b1:
        96:2b:06:bb:90:e0:e5:c5:52:29:9f:38:91:c2:31:1e:c1:53:
        a8:69:0f:8d:88:b4:1e:e5:66:3a:c5:5c:d4:b7:78:17:ee:b2:
        a0:9f:02:7d:2a:5f:0a:90:11:b7:60:1d:ff:24:51:dd:05:50:
        34:6c:4c:d0:f9:0c:6f:52:cd:75:c4:5d:ee:82:91:91:b9:11:
        36:8b:7f:13:38:cb:93:20:49:c3:c0:a2:40:4a:7c:91:d2:f0:
        b8:32:37:91
-----BEGIN CERTIFICATE-----
MIIDdDCCAlygAwIBAgIRAMS79GBc8spUuujvOA0oFG8wDQYJKoZIhvcNAQELBQAw
FTETMBEGA1UEAwwKdGVhbTM1LW5ldDAeFw0yMzA0MjAyMjU0MTlaFw0yNjA0MDQy
MjU0MTlaMBgxFjAUBgNVBAMMDXRlYW0zNS1zZXJ2ZXIwggEiMA0GCSqGSIb3DQEB
AQUAA4IBDwAwggEKAoIBAQCbRqxbI6cNuOy6MartMDaZ4rjwZt4Y3hZSqDMQV7pk
lulp/30drkLw+eL9/ePVl1L7nfV1LrDd6/zSCt2Bdg2EMCr5kDJVu8bZZAAxY2u+
js7+mbdGwuAaBdBJj2xzSeytpOjCo+DbECxiEqCaD3ffJV2wq/NJpX08Mu/JepAZ
hW+Rbn7odHSwDQvQY7XuXL2FBsMXhe1UFCe8htMA3t3G1WDW9axldVQ5G0/APAlU
RXi18VBVq2vEoBhRohPckbI7CCGFbM2tMiWQIlnNKyIsEKLITG/5clkpHfgO1IKS
dF1ZBLk86wJJxOul0MRxI/0qwrMJgBZxc99ldX+e1XATAgMBAAGjgbswgbgwCQYD
VR0TBAIwADAdBgNVHQ4EFgQUXtfXDrT5RAVCsYyzy4ZLntI9xJswUAYDVR0jBEkw
R4AUwmeN7T2q16/4M5fnKuRF3lwLXj+hGaQXMBUxEzARBgNVBAMMCnRlYW0zNS1u
ZXSCFGmL6VVsNVU84+h5gBByw2CJ4uzmMBMGA1UdJQQMMAoGCCsGAQUFBwMBMAsG
A1UdDwQEAwIFoDAYBgNVHREEETAPgg10ZWFtMzUtc2VydmVyMA0GCSqGSIb3DQEB
CwUAA4IBAQBhDouUGwsL7QhzrHCWJrk0+6/SrvmAox1Ts113hYa+rnlEy1I9yN6v
wSDQefV0/TxeannwBpaeUlLeS4Qje3JtiF9MUgq2evdlkJeBj2W3N4MVr7BThFv7
xvUpXpVZe5ljEeyONB/xarzsULSSFgnCIO+/glGX0bj0NMHm4rOwvljUkCYFmqvx
Syu+2o0VmQGSiSH408pqcV6+xREHKrwv47GWKwa7kODlxVIpnziRwjEewVOoaQ+N
iLQe5WY6xVzUt3gX7rKgnwJ9Kl8KkBG3YB3/JFHdBVA0bEzQ+QxvUs11xF3ugpGR
uRE2i38TOMuTIEnDwKJASnyR0vC4MjeR
-----END CERTIFICATE-----
