Certificate:
    Data:
        Version: 3 (0x2)
        Serial Number:
            d8:74:d9:28:3e:c0:9d:d6:56:d8:1d:d9:29:02:3c:87
        Signature Algorithm: sha256WithRSAEncryption
        Issuer: CN=team35-net
        Validity
            Not Before: Apr 20 22:54:18 2023 GMT
            Not After : Apr  4 22:54:18 2026 GMT
        Subject: CN=team35-client
        Subject Public Key Info:
            Public Key Algorithm: rsaEncryption
                Public-Key: (2048 bit)
                Modulus:
                    00:be:1f:4b:0b:3e:fe:4b:35:32:d4:96:38:7b:bc:
                    13:aa:c0:0f:d8:65:1a:01:57:b6:11:f2:03:9e:d9:
                    ec:a1:95:24:db:38:53:0a:0b:fa:26:19:91:03:bc:
                    10:c7:ff:4a:0f:e8:2a:22:48:2a:93:d0:35:a1:f8:
                    b1:63:a2:d7:26:70:f4:c2:fc:e6:b8:f5:83:76:90:
                    78:c1:b9:89:fd:e6:1e:a8:09:fd:e1:28:51:21:52:
                    4b:99:00:14:39:12:28:8b:f8:96:69:95:7a:ae:c3:
                    c4:6e:bb:33:20:b9:37:1a:e7:71:49:d3:f3:30:02:
                    c6:5b:62:11:8c:38:cf:67:1d:19:72:59:bc:05:5b:
                    f2:33:ff:8c:1d:9f:9e:99:12:e3:5b:15:d0:ef:d5:
                    3e:37:05:e9:56:b8:f8:7f:34:d3:74:38:56:6d:9f:
                    a3:d3:94:78:21:1c:00:17:6b:87:61:8a:bc:59:c4:
                    ce:d6:05:1c:b6:da:91:19:a5:38:b9:0f:4f:96:db:
                    8c:80:61:b2:5a:ee:bf:20:77:e8:cf:45:19:0d:67:
                    7e:cd:06:66:f4:da:26:9e:b2:f4:55:b1:5d:b1:eb:
                    fe:a0:e5:c2:7b:41:12:2e:f9:87:2f:90:01:14:51:
                    b7:1e:46:ab:4f:3b:04:ae:6b:34:f8:89:45:89:f4:
                    06:cd
                Exponent: 65537 (0x10001)
        X509v3 extensions:
            X509v3 Basic Constraints: 
                CA:FALSE
            X509v3 Subject Key Identifier: 
                77:D9:0B:2E:A3:82:ED:D5:4E:21:64:D1:71:63:D3:78:36:39:0D:AB
            X509v3 Authority Key Identifier: 
                keyid:C2:67:8D:ED:3D:AA:D7:AF:F8:33:97:E7:2A:E4:45:DE:5C:0B:5E:3F
                DirName:/CN=team35-net
                serial:69:8B:E9:55:6C:35:55:3C:E3:E8:79:80:10:72:C3:60:89:E2:EC:E6
            X509v3 Extended Key Usage: 
                TLS Web Client Authentication
            X509v3 Key Usage: 
                Digital Signature
    Signature Algorithm: sha256WithRSAEncryption
    Signature Value:
        29:a2:a3:e3:9d:6a:78:10:2a:77:7c:8b:a5:58:66:bb:4c:70:
        9f:d5:d3:cc:55:ce:b8:25:82:12:51:e6:23:b0:68:f6:ce:f0:
        1c:15:98:0b:7f:4c:88:3f:1b:a1:16:69:1c:45:84:1b:6f:02:
        aa:29:75:b0:51:18:05:89:29:20:38:64:97:b9:f1:b7:5b:7d:
        15:ac:9d:a9:60:1f:21:46:51:df:63:e3:22:0b:59:2b:35:6a:
        3a:c7:6e:1e:3b:9c:27:e9:0c:1a:47:7a:e7:68:8b:2e:f1:c3:
        b5:91:37:93:10:88:e8:c6:89:d8:db:b5:26:fd:2b:72:63:76:
        c0:74:25:06:3a:4b:e8:f1:82:28:32:92:9b:84:b6:69:1a:cd:
        d5:91:ba:f7:42:c4:9d:2c:19:d7:c7:d2:c7:06:90:af:67:61:
        b3:28:59:c3:65:8f:e9:0e:5b:2f:54:71:b6:36:5f:38:4f:34:
        43:d2:9d:73:cf:39:5c:01:f4:0e:10:51:a0:6d:7b:66:4b:94:
        7d:8d:0a:93:3e:98:b2:cf:fb:6f:a5:2a:67:45:0a:7a:67:1f:
        04:de:39:6c:25:8c:31:9e:d8:58:be:de:17:59:9d:c8:7b:40:
        cd:64:0a:a7:25:73:39:17:d9:05:07:d4:b3:b6:aa:97:56:45:
        b9:c1:d4:d0
-----BEGIN CERTIFICATE-----
MIIDWjCCAkKgAwIBAgIRANh02Sg+wJ3WVtgd2SkCPIcwDQYJKoZIhvcNAQELBQAw
FTETMBEGA1UEAwwKdGVhbTM1LW5ldDAeFw0yMzA0MjAyMjU0MThaFw0yNjA0MDQy
MjU0MThaMBgxFjAUBgNVBAMMDXRlYW0zNS1jbGllbnQwggEiMA0GCSqGSIb3DQEB
AQUAA4IBDwAwggEKAoIBAQC+H0sLPv5LNTLUljh7vBOqwA/YZRoBV7YR8gOe2eyh
lSTbOFMKC/omGZEDvBDH/0oP6CoiSCqT0DWh+LFjotcmcPTC/Oa49YN2kHjBuYn9
5h6oCf3hKFEhUkuZABQ5EiiL+JZplXquw8RuuzMguTca53FJ0/MwAsZbYhGMOM9n
HRlyWbwFW/Iz/4wdn56ZEuNbFdDv1T43BelWuPh/NNN0OFZtn6PTlHghHAAXa4dh
irxZxM7WBRy22pEZpTi5D0+W24yAYbJa7r8gd+jPRRkNZ37NBmb02iaesvRVsV2x
6/6g5cJ7QRIu+YcvkAEUUbceRqtPOwSuazT4iUWJ9AbNAgMBAAGjgaEwgZ4wCQYD
VR0TBAIwADAdBgNVHQ4EFgQUd9kLLqOC7dVOIWTRcWPTeDY5DaswUAYDVR0jBEkw
R4AUwmeN7T2q16/4M5fnKuRF3lwLXj+hGaQXMBUxEzARBgNVBAMMCnRlYW0zNS1u
ZXSCFGmL6VVsNVU84+h5gBByw2CJ4uzmMBMGA1UdJQQMMAoGCCsGAQUFBwMCMAsG
A1UdDwQEAwIHgDANBgkqhkiG9w0BAQsFAAOCAQEAKaKj451qeBAqd3yLpVhmu0xw
n9XTzFXOuCWCElHmI7Bo9s7wHBWYC39MiD8boRZpHEWEG28Cqil1sFEYBYkpIDhk
l7nxt1t9FaydqWAfIUZR32PjIgtZKzVqOsduHjucJ+kMGkd652iLLvHDtZE3kxCI
6MaJ2Nu1Jv0rcmN2wHQlBjpL6PGCKDKSm4S2aRrN1ZG690LEnSwZ18fSxwaQr2dh
syhZw2WP6Q5bL1RxtjZfOE80Q9Kdc885XAH0DhBRoG17ZkuUfY0Kkz6Yss/7b6Uq
Z0UKemcfBN45bCWMMZ7YWL7eF1mdyHtAzWQKpyVzORfZBQfUs7aql1ZFucHU0A==
-----END CERTIFICATE-----
