Certificate:
    Data:
        Version: 3 (0x2)
        Serial Number:
            5f:5c:42:51:8f:e5:58:88:f7:81:a1:a9:c4:de:7f:e2
        Signature Algorithm: sha256WithRSAEncryption
        Issuer: CN=team10-net
        Validity
            Not Before: Apr 20 22:53:36 2023 GMT
            Not After : Apr  4 22:53:36 2026 GMT
        Subject: CN=team10-client
        Subject Public Key Info:
            Public Key Algorithm: rsaEncryption
                Public-Key: (2048 bit)
                Modulus:
                    00:a9:82:14:9f:cc:cb:59:5f:98:1a:9f:64:3e:d6:
                    4d:e7:c7:37:ca:2c:c2:4f:5c:23:d4:33:e2:58:23:
                    d5:6c:64:97:35:0a:e7:56:c0:09:11:09:ae:3d:8d:
                    18:ab:8e:cb:a5:a8:22:4e:09:1e:3a:e5:1f:ba:5f:
                    36:44:94:f0:83:ca:08:92:97:0a:87:45:4b:37:a7:
                    b3:78:4f:0d:5b:ec:06:36:a7:74:97:c5:71:a7:83:
                    9e:27:5d:26:6e:f9:bf:d4:f6:11:84:fe:69:ec:eb:
                    0d:4f:3e:a6:49:0d:44:ab:4f:e0:61:25:fb:da:a2:
                    35:bc:94:57:d6:ac:1c:02:15:b3:c3:8c:aa:5b:5a:
                    14:d7:da:f1:c9:a2:65:c3:ea:83:e0:1e:0d:c3:84:
                    62:bb:ad:a2:dd:56:4b:8a:a8:40:5f:d8:66:da:0a:
                    da:cb:c2:b3:fa:05:0b:1e:fe:56:1e:86:85:7a:a7:
                    42:a4:cb:04:dd:03:dc:56:40:e9:c7:f4:a9:f1:e5:
                    cb:3a:ab:c4:15:0f:51:da:40:16:d6:d1:52:2f:da:
                    0a:e9:14:53:79:8f:a8:7f:16:2b:8d:22:5d:01:2a:
                    c7:43:02:d0:7e:24:c2:d0:ef:04:f1:c5:d5:eb:69:
                    3c:ff:24:62:23:f3:4b:e7:c8:58:d8:49:1c:9e:bc:
                    a6:15
                Exponent: 65537 (0x10001)
        X509v3 extensions:
            X509v3 Basic Constraints: 
                CA:FALSE
            X509v3 Subject Key Identifier: 
                9A:7D:3F:51:7E:DC:1C:22:CB:35:6A:25:92:16:F6:A2:03:D4:96:7C
            X509v3 Authority Key Identifier: 
                keyid:98:DD:59:E1:F8:58:84:75:46:14:53:78:38:6C:62:57:9B:AA:A1:5B
                DirName:/CN=team10-net
                serial:33:9C:39:8D:2D:A3:76:55:7B:5C:04:FA:D1:6B:74:4F:1E:3B:16:F2
            X509v3 Extended Key Usage: 
                TLS Web Client Authentication
            X509v3 Key Usage: 
                Digital Signature
    Signature Algorithm: sha256WithRSAEncryption
    Signature Value:
        3d:77:27:ef:1a:b5:7a:c9:1e:b9:cf:27:9d:c5:83:c6:e3:56:
        d9:41:2a:1c:27:c9:8a:0d:b5:d4:82:ab:43:96:c3:82:47:3c:
        9b:37:8b:6f:db:8a:51:47:01:cd:a1:53:69:bf:9b:81:56:7a:
        06:3a:5f:d6:9c:aa:70:2b:ed:9b:92:cf:77:77:ba:f1:d0:9a:
        71:28:b0:7e:f3:dc:3c:19:30:a4:f2:cd:50:10:50:66:dc:f8:
        c7:f8:f6:9e:e6:bf:aa:a4:97:a2:31:7f:96:b0:27:3a:ac:2d:
        03:0f:10:81:09:20:9f:86:79:2a:cb:8f:c9:2a:1b:6c:b6:16:
        20:84:86:93:f2:3c:94:db:70:e9:b7:92:c3:95:3a:0a:c6:de:
        9e:a0:fd:d3:ee:f1:e8:6b:70:c0:f8:db:90:57:e5:14:c6:96:
        8c:84:6f:c6:7a:f4:b1:94:9e:3b:5b:12:27:a0:fc:ce:a1:c0:
        3d:d3:8b:f2:0a:3a:a6:73:44:fa:9a:9a:3f:d7:4c:80:7e:4f:
        e3:de:f2:11:a4:1a:7f:91:ed:b2:fe:1c:63:fc:d8:67:84:2a:
        1b:fc:f4:ed:3f:c4:84:55:bc:2e:dc:98:9e:fc:40:b8:71:0f:
        f5:4d:38:20:9e:c8:80:41:bc:30:f8:ca:9c:91:24:af:d9:4b:
        10:3c:2f:2d
-----BEGIN CERTIFICATE-----
MIIDWTCCAkGgAwIBAgIQX1xCUY/lWIj3gaGpxN5/4jANBgkqhkiG9w0BAQsFADAV
MRMwEQYDVQQDDAp0ZWFtMTAtbmV0MB4XDTIzMDQyMDIyNTMzNloXDTI2MDQwNDIy
NTMzNlowGDEWMBQGA1UEAwwNdGVhbTEwLWNsaWVudDCCASIwDQYJKoZIhvcNAQEB
BQADggEPADCCAQoCggEBAKmCFJ/My1lfmBqfZD7WTefHN8oswk9cI9Qz4lgj1Wxk
lzUK51bACREJrj2NGKuOy6WoIk4JHjrlH7pfNkSU8IPKCJKXCodFSzens3hPDVvs
BjandJfFcaeDniddJm75v9T2EYT+aezrDU8+pkkNRKtP4GEl+9qiNbyUV9asHAIV
s8OMqltaFNfa8cmiZcPqg+AeDcOEYrutot1WS4qoQF/YZtoK2svCs/oFCx7+Vh6G
hXqnQqTLBN0D3FZA6cf0qfHlyzqrxBUPUdpAFtbRUi/aCukUU3mPqH8WK40iXQEq
x0MC0H4kwtDvBPHF1etpPP8kYiPzS+fIWNhJHJ68phUCAwEAAaOBoTCBnjAJBgNV
HRMEAjAAMB0GA1UdDgQWBBSafT9RftwcIss1aiWSFvaiA9SWfDBQBgNVHSMESTBH
gBSY3Vnh+FiEdUYUU3g4bGJXm6qhW6EZpBcwFTETMBEGA1UEAwwKdGVhbTEwLW5l
dIIUM5w5jS2jdlV7XAT60Wt0Tx47FvIwEwYDVR0lBAwwCgYIKwYBBQUHAwIwCwYD
VR0PBAQDAgeAMA0GCSqGSIb3DQEBCwUAA4IBAQA9dyfvGrV6yR65zyedxYPG41bZ
QSocJ8mKDbXUgqtDlsOCRzybN4tv24pRRwHNoVNpv5uBVnoGOl/WnKpwK+2bks93
d7rx0JpxKLB+89w8GTCk8s1QEFBm3PjH+Pae5r+qpJeiMX+WsCc6rC0DDxCBCSCf
hnkqy4/JKhtsthYghIaT8jyU23Dpt5LDlToKxt6eoP3T7vHoa3DA+NuQV+UUxpaM
hG/GevSxlJ47WxInoPzOocA904vyCjqmc0T6mpo/10yAfk/j3vIRpBp/ke2y/hxj
/NhnhCob/PTtP8SEVbwu3Jie/EC4cQ/1TTggnsiAQbww+MqckSSv2UsQPC8t
-----END CERTIFICATE-----
