Certificate:
    Data:
        Version: 3 (0x2)
        Serial Number:
            a8:f4:26:c6:3c:a3:79:03:47:e6:df:c6:88:26:71:31
        Signature Algorithm: sha256WithRSAEncryption
        Issuer: CN=team10-net
        Validity
            Not Before: Apr 20 22:53:37 2023 GMT
            Not After : Apr  4 22:53:37 2026 GMT
        Subject: CN=team10-server
        Subject Public Key Info:
            Public Key Algorithm: rsaEncryption
                Public-Key: (2048 bit)
                Modulus:
                    00:d4:68:c9:74:34:80:7b:b4:76:cc:d0:6d:e9:62:
                    b4:23:a9:2b:26:f1:75:ab:af:1d:f3:7f:25:92:7d:
                    42:27:2c:30:5e:d0:b3:9b:24:d3:04:6e:85:15:12:
                    a8:56:d9:62:a1:dc:81:cd:4b:44:39:85:4d:7a:12:
                    d0:b8:c7:26:24:56:39:16:ed:a8:09:c2:d5:83:6f:
                    61:d1:c1:90:ef:69:07:c1:df:7f:3b:df:92:d5:a9:
                    dd:97:a4:d6:db:b1:50:66:d5:b9:dc:01:50:cc:15:
                    8a:e6:8c:52:24:58:d0:1e:06:a2:aa:b9:89:c5:fe:
                    36:81:fb:b0:2f:dd:00:66:7f:5f:46:b7:0b:b8:71:
                    c7:78:f5:08:26:af:41:39:bc:1e:85:4c:4e:ce:c3:
                    b5:4e:a4:10:57:77:05:24:32:b1:21:61:29:da:f4:
                    50:a1:05:e0:9e:fe:0e:c6:3b:d6:d9:85:9b:6e:ff:
                    23:81:84:4d:a0:39:27:a3:20:64:bc:62:28:49:11:
                    85:6d:c9:78:38:6a:6c:e3:86:5b:ff:a7:42:bf:f7:
                    3f:d6:d4:6f:9b:ea:85:b2:68:85:08:61:58:4d:72:
                    f1:df:88:9f:0b:a9:30:97:37:91:53:eb:ca:67:14:
                    4e:ab:cf:f7:ce:a5:8e:5e:3e:87:bc:e3:de:9a:8f:
                    cc:fd
                Exponent: 65537 (0x10001)
        X509v3 extensions:
            X509v3 Basic Constraints: 
                CA:FALSE
            X509v3 Subject Key Identifier: 
                32:E5:40:A3:E2:69:53:11:A6:08:37:14:6F:C9:95:6E:C4:8D:11:1E
            X509v3 Authority Key Identifier: 
                keyid:98:DD:59:E1:F8:58:84:75:46:14:53:78:38:6C:62:57:9B:AA:A1:5B
                DirName:/CN=team10-net
                serial:33:9C:39:8D:2D:A3:76:55:7B:5C:04:FA:D1:6B:74:4F:1E:3B:16:F2
            X509v3 Extended Key Usage: 
                TLS Web Server Authentication
            X509v3 Key Usage: 
                Digital Signature, Key Encipherment
            X509v3 Subject Alternative Name: 
                DNS:team10-server
    Signature Algorithm: sha256WithRSAEncryption
    Signature Value:
        8e:e5:3d:a0:1f:ab:2e:04:f9:6e:07:be:39:87:c0:a3:52:bd:
        d7:fb:ff:8a:12:05:c2:1e:54:da:bd:cc:17:20:ad:56:8c:1f:
        07:26:9a:64:45:ba:b8:57:61:03:39:e3:6e:7c:03:a3:2e:d5:
        0e:c4:95:f3:02:26:2b:9f:d2:0f:83:3c:d4:a4:ad:ae:3f:75:
        7d:81:0b:dd:86:04:28:2f:97:09:03:26:e0:ec:9f:33:cf:a0:
        5d:95:73:57:7f:a2:bf:bf:17:9c:9f:1a:0f:77:2d:5a:0f:45:
        2d:19:06:5b:69:ef:ed:9f:99:ef:d9:8f:97:02:8e:d8:10:73:
        2e:51:eb:5b:e1:14:ca:ef:06:ad:18:95:f7:2a:55:39:28:c0:
        27:a6:52:ef:9f:2b:c2:a8:71:0b:6f:16:dd:ce:b3:3a:c6:3e:
        73:c6:37:1b:60:35:0b:48:47:10:e1:a8:9a:73:b6:9f:f8:4d:
        70:9a:02:09:64:5b:52:fb:48:6d:5a:61:e0:dd:9e:fa:be:90:
        51:ae:c9:03:be:0e:dd:30:bc:38:98:7d:32:91:af:7c:53:22:
        6e:f9:27:96:da:e4:1c:39:84:09:ca:3d:3b:51:ae:6a:55:0f:
        68:0b:b8:d0:7e:4b:ac:90:83:74:df:3a:20:0f:65:e1:cc:35:
        d9:a5:9b:5a
-----BEGIN CERTIFICATE-----
MIIDdDCCAlygAwIBAgIRAKj0JsY8o3kDR+bfxogmcTEwDQYJKoZIhvcNAQELBQAw
FTETMBEGA1UEAwwKdGVhbTEwLW5ldDAeFw0yMzA0MjAyMjUzMzdaFw0yNjA0MDQy
MjUzMzdaMBgxFjAUBgNVBAMMDXRlYW0xMC1zZXJ2ZXIwggEiMA0GCSqGSIb3DQEB
AQUAA4IBDwAwggEKAoIBAQDUaMl0NIB7tHbM0G3pYrQjqSsm8XWrrx3zfyWSfUIn
LDBe0LObJNMEboUVEqhW2WKh3IHNS0Q5hU16EtC4xyYkVjkW7agJwtWDb2HRwZDv
aQfB338735LVqd2XpNbbsVBm1bncAVDMFYrmjFIkWNAeBqKquYnF/jaB+7Av3QBm
f19Gtwu4ccd49Qgmr0E5vB6FTE7Ow7VOpBBXdwUkMrEhYSna9FChBeCe/g7GO9bZ
hZtu/yOBhE2gOSejIGS8YihJEYVtyXg4amzjhlv/p0K/9z/W1G+b6oWyaIUIYVhN
cvHfiJ8LqTCXN5FT68pnFE6rz/fOpY5ePoe8496aj8z9AgMBAAGjgbswgbgwCQYD
VR0TBAIwADAdBgNVHQ4EFgQUMuVAo+JpUxGmCDcUb8mVbsSNER4wUAYDVR0jBEkw
R4AUmN1Z4fhYhHVGFFN4OGxiV5uqoVuhGaQXMBUxEzARBgNVBAMMCnRlYW0xMC1u
ZXSCFDOcOY0to3ZVe1wE+tFrdE8eOxbyMBMGA1UdJQQMMAoGCCsGAQUFBwMBMAsG
A1UdDwQEAwIFoDAYBgNVHREEETAPgg10ZWFtMTAtc2VydmVyMA0GCSqGSIb3DQEB
CwUAA4IBAQCO5T2gH6suBPluB745h8CjUr3X+/+KEgXCHlTavcwXIK1WjB8HJppk
Rbq4V2EDOeNufAOjLtUOxJXzAiYrn9IPgzzUpK2uP3V9gQvdhgQoL5cJAybg7J8z
z6BdlXNXf6K/vxecnxoPdy1aD0UtGQZbae/tn5nv2Y+XAo7YEHMuUetb4RTK7wat
GJX3KlU5KMAnplLvnyvCqHELbxbdzrM6xj5zxjcbYDULSEcQ4aiac7af+E1wmgIJ
ZFtS+0htWmHg3Z76vpBRrskDvg7dMLw4mH0yka98UyJu+SeW2uQcOYQJyj07Ua5q
VQ9oC7jQfkuskIN03zogD2XhzDXZpZta
-----END CERTIFICATE-----
