Certificate:
    Data:
        Version: 3 (0x2)
        Serial Number:
            b5:6a:a2:6c:cd:b4:ab:f5:a1:e4:c9:01:07:32:5e:9e
        Signature Algorithm: sha256WithRSAEncryption
        Issuer: CN=team10-net
        Validity
            Not Before: Apr 20 00:10:06 2023 GMT
            Not After : Apr  4 00:10:06 2026 GMT
        Subject: CN=team10-client
        Subject Public Key Info:
            Public Key Algorithm: rsaEncryption
                Public-Key: (2048 bit)
                Modulus:
                    00:ea:ed:1f:7e:ff:df:b1:4d:31:d1:04:4e:2d:bb:
                    54:e9:01:ba:a0:44:4d:ca:5b:76:29:a8:fa:30:f5:
                    0f:0d:29:a1:81:51:6d:20:6a:cf:aa:50:54:df:93:
                    d7:b4:33:57:ac:94:fb:91:59:94:60:06:4b:f9:2b:
                    9b:71:f5:40:9b:59:ac:85:77:8a:4c:77:a0:9f:55:
                    68:85:4f:16:87:90:c4:f9:85:f6:a0:e6:18:2a:1a:
                    48:6d:74:ac:8e:42:82:29:8c:7b:76:8d:64:77:54:
                    a8:9a:cd:db:75:6a:17:09:fd:46:60:02:6b:ff:8c:
                    fb:64:59:2f:5f:80:f4:e9:8f:7e:b7:20:b1:c1:e2:
                    ca:29:f9:b9:3b:6e:f3:4e:bb:cc:b4:2c:6a:4d:be:
                    fc:27:b4:54:56:37:42:b9:b7:60:f7:6b:06:25:0e:
                    a7:03:78:8f:24:3f:3d:53:31:36:8d:c0:80:8e:8b:
                    dc:1b:2b:c7:c4:eb:32:a6:c1:0f:4b:b9:0f:97:35:
                    6b:92:c3:86:09:e9:88:8b:89:19:a3:b6:b1:1e:73:
                    50:b0:32:69:db:48:31:92:96:74:2a:a2:33:85:50:
                    bf:60:3b:d3:3f:cb:00:1d:03:ce:7b:29:f0:fd:7e:
                    3b:e1:5c:34:66:b5:ff:89:b0:1c:cc:aa:a2:42:37:
                    63:49
                Exponent: 65537 (0x10001)
        X509v3 extensions:
            X509v3 Basic Constraints: 
                CA:FALSE
            X509v3 Subject Key Identifier: 
                6C:D2:ED:2E:4F:C1:1A:1F:94:59:B9:E0:15:99:06:76:E1:0C:85:98
            X509v3 Authority Key Identifier: 
                keyid:C7:EC:FF:E1:3F:EF:D3:37:4B:71:F5:DE:1E:E2:2E:D8:47:F1:63:C2
                DirName:/CN=team10-net
                serial:36:03:2B:69:E5:F8:4D:28:A8:AD:B9:5E:DC:F6:47:67:A7:F4:FB:9B
            X509v3 Extended Key Usage: 
                TLS Web Client Authentication
            X509v3 Key Usage: 
                Digital Signature
    Signature Algorithm: sha256WithRSAEncryption
    Signature Value:
        2a:29:94:06:9d:9e:66:75:47:61:84:bb:16:08:f3:b1:47:1a:
        0a:a3:81:64:8d:ad:51:c0:f4:91:1e:45:3f:f0:51:2c:3b:07:
        8b:ad:ed:07:ba:d8:d7:e1:47:9f:49:09:8a:c5:13:50:47:27:
        17:40:5e:45:3c:32:89:fe:10:f9:59:d2:83:ab:ba:4b:d7:75:
        24:59:13:3b:84:6b:6e:48:d5:2f:72:bb:ed:a6:e2:dd:d0:80:
        2b:15:e7:27:b0:af:d9:25:35:53:ef:5b:fd:89:8c:03:46:d6:
        33:19:1a:2a:c3:7c:a1:38:60:25:fb:f2:69:9e:b2:2c:8b:70:
        72:e1:cb:e9:7a:e0:6b:f8:7b:63:62:1e:f6:ca:66:62:c9:1e:
        e6:ab:52:2c:35:c8:5e:15:6d:37:f1:1f:f8:31:39:db:65:12:
        e4:16:14:db:1d:08:1f:5c:c7:27:c8:ec:2b:03:ad:f1:91:61:
        12:ab:49:7c:a4:0e:10:98:8a:26:c8:d0:9f:d6:4e:d6:16:e3:
        a5:cf:41:53:14:04:aa:37:39:99:17:39:9a:d4:d3:35:ba:1a:
        dc:7f:74:58:82:83:9f:52:b3:21:5b:86:4c:ea:c8:80:f9:c7:
        a3:84:a1:ec:95:0e:ae:65:89:35:f2:8e:34:2d:b7:ee:4c:d4:
        f4:8c:69:19
-----BEGIN CERTIFICATE-----
MIIDWjCCAkKgAwIBAgIRALVqomzNtKv1oeTJAQcyXp4wDQYJKoZIhvcNAQELBQAw
FTETMBEGA1UEAwwKdGVhbTEwLW5ldDAeFw0yMzA0MjAwMDEwMDZaFw0yNjA0MDQw
MDEwMDZaMBgxFjAUBgNVBAMMDXRlYW0xMC1jbGllbnQwggEiMA0GCSqGSIb3DQEB
AQUAA4IBDwAwggEKAoIBAQDq7R9+/9+xTTHRBE4tu1TpAbqgRE3KW3YpqPow9Q8N
KaGBUW0gas+qUFTfk9e0M1eslPuRWZRgBkv5K5tx9UCbWayFd4pMd6CfVWiFTxaH
kMT5hfag5hgqGkhtdKyOQoIpjHt2jWR3VKiazdt1ahcJ/UZgAmv/jPtkWS9fgPTp
j363ILHB4sop+bk7bvNOu8y0LGpNvvwntFRWN0K5t2D3awYlDqcDeI8kPz1TMTaN
wICOi9wbK8fE6zKmwQ9LuQ+XNWuSw4YJ6YiLiRmjtrEec1CwMmnbSDGSlnQqojOF
UL9gO9M/ywAdA857KfD9fjvhXDRmtf+JsBzMqqJCN2NJAgMBAAGjgaEwgZ4wCQYD
VR0TBAIwADAdBgNVHQ4EFgQUbNLtLk/BGh+UWbngFZkGduEMhZgwUAYDVR0jBEkw
R4AUx+z/4T/v0zdLcfXeHuIu2EfxY8KhGaQXMBUxEzARBgNVBAMMCnRlYW0xMC1u
ZXSCFDYDK2nl+E0oqK25Xtz2R2en9PubMBMGA1UdJQQMMAoGCCsGAQUFBwMCMAsG
A1UdDwQEAwIHgDANBgkqhkiG9w0BAQsFAAOCAQEAKimUBp2eZnVHYYS7FgjzsUca
CqOBZI2tUcD0kR5FP/BRLDsHi63tB7rY1+FHn0kJisUTUEcnF0BeRTwyif4Q+VnS
g6u6S9d1JFkTO4RrbkjVL3K77abi3dCAKxXnJ7Cv2SU1U+9b/YmMA0bWMxkaKsN8
oThgJfvyaZ6yLItwcuHL6Xrga/h7Y2Ie9spmYske5qtSLDXIXhVtN/Ef+DE522US
5BYU2x0IH1zHJ8jsKwOt8ZFhEqtJfKQOEJiKJsjQn9ZO1hbjpc9BUxQEqjc5mRc5
mtTTNboa3H90WIKDn1KzIVuGTOrIgPnHo4Sh7JUOrmWJNfKONC237kzU9IxpGQ==
-----END CERTIFICATE-----
