Certificate:
    Data:
        Version: 3 (0x2)
        Serial Number:
            f5:e5:58:6b:d6:d4:2e:3d:01:46:4b:86:ff:82:14:e5
        Signature Algorithm: sha256WithRSAEncryption
        Issuer: CN=team13-net
        Validity
            Not Before: Apr 20 22:53:43 2023 GMT
            Not After : Apr  4 22:53:43 2026 GMT
        Subject: CN=team13-server
        Subject Public Key Info:
            Public Key Algorithm: rsaEncryption
                Public-Key: (2048 bit)
                Modulus:
                    00:be:0d:3f:de:e9:5f:bf:da:df:ae:1f:0a:de:e5:
                    68:e6:68:17:89:c4:10:ae:be:de:18:6c:ce:08:09:
                    d6:91:11:5e:80:a7:2d:49:c5:0f:bf:4e:09:6e:57:
                    a2:de:78:8d:87:42:e7:96:d2:42:af:f2:60:cf:57:
                    68:98:6b:65:cd:28:d3:b9:b0:3a:d1:99:1b:87:cc:
                    56:7a:3c:32:64:c8:56:10:dd:dc:65:f6:8f:14:b0:
                    8f:70:26:09:1f:f9:70:91:0f:ff:c9:ee:0f:ad:e7:
                    0b:28:38:6d:13:6c:dc:b4:f1:24:b8:c7:b5:ba:68:
                    13:02:8d:fb:94:2b:dc:f8:f0:3c:ae:c8:fa:96:d5:
                    60:e8:89:42:5c:2c:cf:e5:25:41:e0:f4:4a:77:be:
                    15:30:06:76:e1:20:1f:4b:9b:5b:8a:53:07:af:88:
                    88:2b:60:06:23:6f:08:ea:2d:46:43:5e:1e:04:93:
                    30:83:69:25:06:b2:16:24:b9:50:d2:f5:68:41:bd:
                    0a:d0:d2:d9:37:08:79:fc:c1:74:e7:d7:40:4b:81:
                    1e:41:ed:31:d0:9e:19:5e:05:90:4c:3a:0c:33:2e:
                    9d:d0:34:18:11:bd:b1:86:40:82:67:af:10:5b:56:
                    15:5f:92:dc:e8:f8:54:32:7c:b5:74:b3:ad:13:bc:
                    54:6f
                Exponent: 65537 (0x10001)
        X509v3 extensions:
            X509v3 Basic Constraints: 
                CA:FALSE
            X509v3 Subject Key Identifier: 
                33:B8:A2:3E:57:44:9A:09:D8:3E:7D:1D:E5:C4:DF:2F:22:58:DF:62
            X509v3 Authority Key Identifier: 
                keyid:E5:76:59:08:7D:AF:A6:66:85:32:49:AE:5D:3E:E1:56:EC:57:9F:E7
                DirName:/CN=team13-net
                serial:16:89:1C:22:FD:CD:CF:0B:01:D5:C6:91:C8:FA:9F:D7:F5:8C:4F:1B
            X509v3 Extended Key Usage: 
                TLS Web Server Authentication
            X509v3 Key Usage: 
                Digital Signature, Key Encipherment
            X509v3 Subject Alternative Name: 
                DNS:team13-server
    Signature Algorithm: sha256WithRSAEncryption
    Signature Value:
        4e:8d:ed:75:de:71:be:ef:5c:09:f8:c5:99:e4:2f:a5:4c:7d:
        8c:36:e8:c8:08:9b:50:d8:68:6f:77:3d:09:5a:a8:b6:f5:60:
        5e:a0:11:16:73:1d:36:ea:4e:94:f5:75:df:44:b6:75:8e:21:
        2e:de:3e:15:59:3e:6a:47:29:61:ca:94:ff:17:7f:61:75:ca:
        4b:7d:b7:ab:be:7b:1d:c8:85:ea:aa:e2:f6:cd:e0:e4:4e:71:
        73:e7:a4:ee:c9:86:52:dc:77:55:6e:1c:4d:7c:00:52:64:21:
        42:4e:a3:52:38:06:cc:79:63:3e:dc:60:f9:5b:05:f1:bf:a8:
        a5:54:6e:b6:a2:8f:0e:4b:8c:64:ec:2f:d2:64:7b:a5:dd:7a:
        66:a6:e7:c0:ed:df:ee:d5:4d:32:33:20:ee:cc:69:b4:db:2f:
        b5:1b:0e:88:01:46:5e:25:ae:e5:7a:39:94:6f:ff:c5:9c:eb:
        ee:9d:f4:91:cb:01:1c:9d:5f:11:ad:0b:f0:11:c4:64:f3:9b:
        c8:8c:be:d5:a0:52:b1:59:c3:a3:1f:3b:f6:d0:52:5c:7f:81:
        3d:90:4c:75:70:b7:f2:18:f5:b5:fc:4e:08:07:2c:98:f5:a3:
        20:d1:a0:79:43:f0:4d:83:8a:4e:7d:3d:53:75:40:cd:ff:06:
        c7:68:f2:da
-----BEGIN CERTIFICATE-----
MIIDdDCCAlygAwIBAgIRAPXlWGvW1C49AUZLhv+CFOUwDQYJKoZIhvcNAQELBQAw
FTETMBEGA1UEAwwKdGVhbTEzLW5ldDAeFw0yMzA0MjAyMjUzNDNaFw0yNjA0MDQy
MjUzNDNaMBgxFjAUBgNVBAMMDXRlYW0xMy1zZXJ2ZXIwggEiMA0GCSqGSIb3DQEB
AQUAA4IBDwAwggEKAoIBAQC+DT/e6V+/2t+uHwre5WjmaBeJxBCuvt4YbM4ICdaR
EV6Apy1JxQ+/TgluV6LeeI2HQueW0kKv8mDPV2iYa2XNKNO5sDrRmRuHzFZ6PDJk
yFYQ3dxl9o8UsI9wJgkf+XCRD//J7g+t5wsoOG0TbNy08SS4x7W6aBMCjfuUK9z4
8DyuyPqW1WDoiUJcLM/lJUHg9Ep3vhUwBnbhIB9Lm1uKUweviIgrYAYjbwjqLUZD
Xh4EkzCDaSUGshYkuVDS9WhBvQrQ0tk3CHn8wXTn10BLgR5B7THQnhleBZBMOgwz
Lp3QNBgRvbGGQIJnrxBbVhVfktzo+FQyfLV0s60TvFRvAgMBAAGjgbswgbgwCQYD
VR0TBAIwADAdBgNVHQ4EFgQUM7iiPldEmgnYPn0d5cTfLyJY32IwUAYDVR0jBEkw
R4AU5XZZCH2vpmaFMkmuXT7hVuxXn+ehGaQXMBUxEzARBgNVBAMMCnRlYW0xMy1u
ZXSCFBaJHCL9zc8LAdXGkcj6n9f1jE8bMBMGA1UdJQQMMAoGCCsGAQUFBwMBMAsG
A1UdDwQEAwIFoDAYBgNVHREEETAPgg10ZWFtMTMtc2VydmVyMA0GCSqGSIb3DQEB
CwUAA4IBAQBOje113nG+71wJ+MWZ5C+lTH2MNujICJtQ2Ghvdz0JWqi29WBeoBEW
cx026k6U9XXfRLZ1jiEu3j4VWT5qRylhypT/F39hdcpLfbervnsdyIXqquL2zeDk
TnFz56TuyYZS3HdVbhxNfABSZCFCTqNSOAbMeWM+3GD5WwXxv6ilVG62oo8OS4xk
7C/SZHul3XpmpufA7d/u1U0yMyDuzGm02y+1Gw6IAUZeJa7lejmUb//FnOvunfSR
ywEcnV8RrQvwEcRk85vIjL7VoFKxWcOjHzv20FJcf4E9kEx1cLfyGPW1/E4IByyY
9aMg0aB5Q/BNg4pOfT1TdUDN/wbHaPLa
-----END CERTIFICATE-----
