Certificate:
    Data:
        Version: 3 (0x2)
        Serial Number:
            f9:40:19:9e:75:a4:8a:86:0c:43:3b:3e:62:86:15:0e
        Signature Algorithm: sha256WithRSAEncryption
        Issuer: CN=team13-net
        Validity
            Not Before: Apr 20 22:53:42 2023 GMT
            Not After : Apr  4 22:53:42 2026 GMT
        Subject: CN=team13-client
        Subject Public Key Info:
            Public Key Algorithm: rsaEncryption
                Public-Key: (2048 bit)
                Modulus:
                    00:fd:11:a9:92:20:a1:08:24:ad:b7:85:10:32:06:
                    5a:63:8a:d2:d0:1c:4b:f8:82:13:98:36:0a:24:4f:
                    d3:64:1c:5e:0d:80:fe:29:52:69:91:02:14:d0:1b:
                    88:4d:98:d4:a6:8c:0e:18:ab:e8:be:03:5f:cc:f1:
                    6e:e2:6f:13:40:4b:48:bb:76:96:d3:84:2b:da:15:
                    eb:bb:b0:69:6e:00:63:f4:fa:27:09:00:bf:1f:cd:
                    1b:29:36:74:42:96:c8:20:be:6b:59:b2:4a:3e:63:
                    72:60:75:5d:0e:d2:e6:e9:44:90:c1:08:f8:e4:a8:
                    29:de:e6:3c:e7:26:39:c4:1e:2e:2f:88:19:9e:36:
                    e1:99:61:b2:15:39:88:93:52:c3:93:e6:b9:95:a3:
                    38:13:6e:20:cc:80:a9:53:0b:e7:9d:ed:f1:1c:05:
                    d7:25:ba:86:59:e6:be:b6:a0:8b:ff:51:59:8a:61:
                    fe:d4:db:ba:fc:17:b6:41:15:1a:91:ba:22:1e:4e:
                    00:ae:91:a6:ed:5a:92:ff:a0:96:b7:6f:4b:87:65:
                    12:b5:a4:26:4c:75:eb:57:2b:45:14:00:9a:b3:ac:
                    58:f7:2c:9e:37:48:fa:32:41:93:0d:f3:c3:e7:d4:
                    d6:14:0a:34:af:1e:c1:36:36:e5:f8:1a:38:49:5a:
                    ea:95
                Exponent: 65537 (0x10001)
        X509v3 extensions:
            X509v3 Basic Constraints: 
                CA:FALSE
            X509v3 Subject Key Identifier: 
                F3:C7:B9:E6:A9:18:54:0C:CA:A9:ED:5E:83:98:2D:4D:6F:1A:C4:FB
            X509v3 Authority Key Identifier: 
                keyid:E5:76:59:08:7D:AF:A6:66:85:32:49:AE:5D:3E:E1:56:EC:57:9F:E7
                DirName:/CN=team13-net
                serial:16:89:1C:22:FD:CD:CF:0B:01:D5:C6:91:C8:FA:9F:D7:F5:8C:4F:1B
            X509v3 Extended Key Usage: 
                TLS Web Client Authentication
            X509v3 Key Usage: 
                Digital Signature
    Signature Algorithm: sha256WithRSAEncryption
    Signature Value:
        24:1e:66:bb:b8:13:f7:ab:db:45:e9:a8:14:a9:37:28:56:03:
        3b:0e:bd:04:41:38:54:c1:1f:49:62:3b:f9:78:d5:7d:d6:5a:
        06:35:db:9f:94:79:9f:01:d5:52:43:da:70:b3:01:4f:2f:c4:
        98:7d:6e:ee:45:98:b4:0d:cc:2d:9a:72:40:26:6e:86:16:a7:
        8e:7e:ef:81:68:65:34:b3:93:a6:bd:83:30:90:00:70:07:47:
        97:90:6d:43:38:b6:ad:da:98:91:3d:f0:bf:7f:c5:8e:c2:2b:
        68:80:0c:11:bd:d4:ab:e5:f1:b1:e4:64:41:7a:d2:87:12:f5:
        db:d7:72:bb:86:0e:53:5f:ea:01:a3:dc:ed:54:ce:3c:3a:f4:
        41:fa:a3:27:00:bd:be:c2:32:0d:88:7c:be:bc:32:ca:91:c5:
        91:6a:9f:b8:4d:80:37:07:40:d0:6b:b1:1e:53:83:fb:80:fe:
        0e:97:6a:04:9b:d9:f5:65:04:64:a4:98:e2:fe:f4:d8:dc:ad:
        4f:89:ce:9f:e4:fa:df:79:61:79:4b:30:9f:ce:f2:ec:b6:8f:
        19:ce:73:9f:4b:51:16:74:ba:64:d3:fb:f1:36:a6:f9:6c:64:
        4e:1a:d1:4f:e7:b1:76:2e:98:71:d8:70:e6:10:7b:b2:f1:91:
        5d:ca:be:98
-----BEGIN CERTIFICATE-----
MIIDWjCCAkKgAwIBAgIRAPlAGZ51pIqGDEM7PmKGFQ4wDQYJKoZIhvcNAQELBQAw
FTETMBEGA1UEAwwKdGVhbTEzLW5ldDAeFw0yMzA0MjAyMjUzNDJaFw0yNjA0MDQy
MjUzNDJaMBgxFjAUBgNVBAMMDXRlYW0xMy1jbGllbnQwggEiMA0GCSqGSIb3DQEB
AQUAA4IBDwAwggEKAoIBAQD9EamSIKEIJK23hRAyBlpjitLQHEv4ghOYNgokT9Nk
HF4NgP4pUmmRAhTQG4hNmNSmjA4Yq+i+A1/M8W7ibxNAS0i7dpbThCvaFeu7sGlu
AGP0+icJAL8fzRspNnRClsggvmtZsko+Y3JgdV0O0ubpRJDBCPjkqCne5jznJjnE
Hi4viBmeNuGZYbIVOYiTUsOT5rmVozgTbiDMgKlTC+ed7fEcBdcluoZZ5r62oIv/
UVmKYf7U27r8F7ZBFRqRuiIeTgCukabtWpL/oJa3b0uHZRK1pCZMdetXK0UUAJqz
rFj3LJ43SPoyQZMN88Pn1NYUCjSvHsE2NuX4GjhJWuqVAgMBAAGjgaEwgZ4wCQYD
VR0TBAIwADAdBgNVHQ4EFgQU88e55qkYVAzKqe1eg5gtTW8axPswUAYDVR0jBEkw
R4AU5XZZCH2vpmaFMkmuXT7hVuxXn+ehGaQXMBUxEzARBgNVBAMMCnRlYW0xMy1u
ZXSCFBaJHCL9zc8LAdXGkcj6n9f1jE8bMBMGA1UdJQQMMAoGCCsGAQUFBwMCMAsG
A1UdDwQEAwIHgDANBgkqhkiG9w0BAQsFAAOCAQEAJB5mu7gT96vbRemoFKk3KFYD
Ow69BEE4VMEfSWI7+XjVfdZaBjXbn5R5nwHVUkPacLMBTy/EmH1u7kWYtA3MLZpy
QCZuhhanjn7vgWhlNLOTpr2DMJAAcAdHl5BtQzi2rdqYkT3wv3/FjsIraIAMEb3U
q+XxseRkQXrShxL129dyu4YOU1/qAaPc7VTOPDr0QfqjJwC9vsIyDYh8vrwyypHF
kWqfuE2ANwdA0GuxHlOD+4D+DpdqBJvZ9WUEZKSY4v702NytT4nOn+T633lheUsw
n87y7LaPGc5zn0tRFnS6ZNP78Tam+WxkThrRT+exdi6Ycdhw5hB7svGRXcq+mA==
-----END CERTIFICATE-----
