Certificate:
    Data:
        Version: 3 (0x2)
        Serial Number:
            01:9b:6a:cd:5d:8f:da:3f:56:b7:a4:a0:6e:c1:9d:a3
        Signature Algorithm: sha256WithRSAEncryption
        Issuer: CN=team31-net
        Validity
            Not Before: Apr 20 00:10:41 2023 GMT
            Not After : Apr  4 00:10:41 2026 GMT
        Subject: CN=team31-client
        Subject Public Key Info:
            Public Key Algorithm: rsaEncryption
                Public-Key: (2048 bit)
                Modulus:
                    00:c0:16:05:d6:b4:07:67:e4:25:cb:a7:ac:34:2e:
                    f3:4e:1c:11:93:b9:03:d0:27:f4:fe:5b:88:10:4d:
                    82:5d:77:36:3b:79:1d:1d:96:8a:e3:fb:a9:f4:41:
                    3c:16:1f:ff:a4:f4:69:45:97:52:43:87:bc:b0:b7:
                    5f:7f:3c:4a:ed:80:de:7b:49:43:33:12:cd:5c:54:
                    38:56:e9:a7:bc:34:3f:76:3c:36:cf:e6:31:80:4a:
                    15:90:14:6e:56:4b:3b:2f:5f:f9:f2:91:58:83:dc:
                    34:c5:68:4d:c3:77:5c:0e:de:a8:62:2b:4e:d4:8d:
                    12:f0:59:0a:c9:05:77:64:0d:88:9e:28:43:c7:b6:
                    5c:1c:b4:ca:3d:24:4a:3c:a2:a9:70:c4:38:f9:1d:
                    9c:62:4c:19:d1:67:75:d1:b5:7f:8b:0f:4c:95:93:
                    18:7f:1c:b8:0a:a2:af:67:4d:76:5e:1e:d3:ab:af:
                    58:cc:bb:46:e9:38:b2:1b:4d:5c:5c:00:88:4e:cf:
                    15:e0:43:f7:4c:e6:23:2d:28:b1:e5:cb:d5:95:fd:
                    8a:b8:7a:e3:d7:e4:e6:8d:c4:8a:1e:57:ce:f6:8d:
                    2a:ae:ea:43:d2:8b:78:11:c0:d2:2e:43:c9:84:ba:
                    05:2f:3c:f6:1a:3e:bc:1d:06:3b:07:4c:c8:01:f8:
                    39:bf
                Exponent: 65537 (0x10001)
        X509v3 extensions:
            X509v3 Basic Constraints: 
                CA:FALSE
            X509v3 Subject Key Identifier: 
                46:33:6F:D4:DE:49:AB:A2:AF:46:7C:C0:07:3E:A1:17:DE:AC:FA:F6
            X509v3 Authority Key Identifier: 
                keyid:BD:69:6D:52:6E:8D:40:36:87:5B:D4:54:7B:35:1A:50:78:BF:74:91
                DirName:/CN=team31-net
                serial:60:06:76:9B:04:27:E1:4C:C4:89:C3:43:9B:A7:41:A3:7D:DE:EE:F9
            X509v3 Extended Key Usage: 
                TLS Web Client Authentication
            X509v3 Key Usage: 
                Digital Signature
    Signature Algorithm: sha256WithRSAEncryption
    Signature Value:
        2e:7c:ee:24:59:cc:9c:4a:ab:c5:5f:aa:d1:4f:6d:18:f7:ae:
        81:88:f0:63:ea:5e:77:ce:f9:4d:15:fd:5f:b8:25:d8:26:65:
        86:8f:f9:a7:bc:28:2b:4a:ea:a0:4c:20:83:65:49:cf:85:e1:
        06:44:e5:52:c6:d9:df:93:f0:ff:70:4d:b8:43:0e:72:b8:1e:
        50:b4:35:f7:41:58:e8:57:3f:7d:38:0a:54:99:28:ec:98:40:
        cb:5a:66:64:3c:10:3c:61:a8:6b:b6:81:62:fc:31:e0:33:ac:
        0f:2b:02:f8:89:48:94:d0:f8:44:bb:ae:5e:af:72:08:e3:e4:
        70:5a:84:f2:d5:27:96:b8:e0:d9:3c:22:51:01:bd:14:ad:67:
        c5:46:ba:d0:5f:08:cd:6d:3a:04:9c:8d:e1:dc:35:39:bf:32:
        c7:ea:2a:e3:07:0a:e6:89:45:db:7e:46:1b:65:4e:57:74:c0:
        6f:97:c8:78:5c:6c:94:33:d2:0d:a1:2a:9b:4d:87:a4:00:01:
        43:16:5d:34:d1:91:b2:e2:8a:2f:65:b5:81:d4:ab:20:91:c0:
        39:1c:fd:d5:b7:48:60:67:67:33:86:d6:a3:92:71:ec:2b:78:
        f3:a2:48:13:8f:fc:6c:ef:d1:f4:1f:b1:3f:2f:aa:d6:13:a7:
        79:73:96:54
-----BEGIN CERTIFICATE-----
MIIDWTCCAkGgAwIBAgIQAZtqzV2P2j9Wt6SgbsGdozANBgkqhkiG9w0BAQsFADAV
MRMwEQYDVQQDDAp0ZWFtMzEtbmV0MB4XDTIzMDQyMDAwMTA0MVoXDTI2MDQwNDAw
MTA0MVowGDEWMBQGA1UEAwwNdGVhbTMxLWNsaWVudDCCASIwDQYJKoZIhvcNAQEB
BQADggEPADCCAQoCggEBAMAWBda0B2fkJcunrDQu804cEZO5A9An9P5biBBNgl13
Njt5HR2WiuP7qfRBPBYf/6T0aUWXUkOHvLC3X388Su2A3ntJQzMSzVxUOFbpp7w0
P3Y8Ns/mMYBKFZAUblZLOy9f+fKRWIPcNMVoTcN3XA7eqGIrTtSNEvBZCskFd2QN
iJ4oQ8e2XBy0yj0kSjyiqXDEOPkdnGJMGdFnddG1f4sPTJWTGH8cuAqir2dNdl4e
06uvWMy7Ruk4shtNXFwAiE7PFeBD90zmIy0oseXL1ZX9irh649fk5o3Eih5XzvaN
Kq7qQ9KLeBHA0i5DyYS6BS889ho+vB0GOwdMyAH4Ob8CAwEAAaOBoTCBnjAJBgNV
HRMEAjAAMB0GA1UdDgQWBBRGM2/U3kmroq9GfMAHPqEX3qz69jBQBgNVHSMESTBH
gBS9aW1Sbo1ANodb1FR7NRpQeL90kaEZpBcwFTETMBEGA1UEAwwKdGVhbTMxLW5l
dIIUYAZ2mwQn4UzEicNDm6dBo33e7vkwEwYDVR0lBAwwCgYIKwYBBQUHAwIwCwYD
VR0PBAQDAgeAMA0GCSqGSIb3DQEBCwUAA4IBAQAufO4kWcycSqvFX6rRT20Y966B
iPBj6l53zvlNFf1fuCXYJmWGj/mnvCgrSuqgTCCDZUnPheEGROVSxtnfk/D/cE24
Qw5yuB5QtDX3QVjoVz99OApUmSjsmEDLWmZkPBA8YahrtoFi/DHgM6wPKwL4iUiU
0PhEu65er3II4+RwWoTy1SeWuODZPCJRAb0UrWfFRrrQXwjNbToEnI3h3DU5vzLH
6irjBwrmiUXbfkYbZU5XdMBvl8h4XGyUM9INoSqbTYekAAFDFl000ZGy4oovZbWB
1KsgkcA5HP3Vt0hgZ2czhtajknHsK3jzokgTj/xs79H0H7E/L6rWE6d5c5ZU
-----END CERTIFICATE-----
