Certificate:
    Data:
        Version: 3 (0x2)
        Serial Number:
            7a:3c:12:9c:aa:ce:f0:3c:d0:3f:ea:c6:22:af:67:da
        Signature Algorithm: sha256WithRSAEncryption
        Issuer: CN=team31-net
        Validity
            Not Before: Apr 20 22:54:12 2023 GMT
            Not After : Apr  4 22:54:12 2026 GMT
        Subject: CN=team31-server
        Subject Public Key Info:
            Public Key Algorithm: rsaEncryption
                Public-Key: (2048 bit)
                Modulus:
                    00:c5:7c:fb:43:77:b8:2d:ea:48:eb:b8:1a:c7:4f:
                    8a:be:49:13:83:80:26:35:1c:5f:2e:b5:e5:42:86:
                    4d:ec:62:f9:0d:3f:6a:17:4f:e9:0f:92:ff:9a:ce:
                    5e:6f:a0:1e:f8:7c:a3:10:3e:13:cd:22:18:fc:56:
                    0c:f8:e6:bc:88:e4:c4:60:00:f5:b1:d2:43:99:46:
                    a5:7d:7a:55:96:6c:ea:27:74:f6:cf:87:0f:c6:a6:
                    f5:2f:2a:9a:49:11:09:39:6a:6c:37:24:fe:1a:36:
                    78:1a:d7:45:8c:9d:3f:ae:aa:cf:51:42:12:26:62:
                    ab:3a:00:b6:c1:08:43:9b:64:46:76:86:48:a6:ec:
                    57:74:2a:44:3c:26:6f:5b:19:89:14:ce:64:87:85:
                    d2:86:64:f8:30:6d:4d:90:e0:2a:b2:82:3a:55:d3:
                    d2:2d:9a:f9:2f:0b:e8:5d:9d:7a:2c:ab:93:57:8d:
                    29:6e:0f:7d:6a:48:1c:1a:e3:47:ab:46:93:df:67:
                    df:ee:08:c0:3b:eb:ae:ff:81:07:51:ca:14:4b:2f:
                    47:e4:74:85:1f:86:e2:31:c3:84:71:50:ce:f0:3f:
                    37:97:2b:27:3e:84:f7:8c:96:25:77:c8:7d:ff:88:
                    1d:90:3d:ee:5b:bf:92:d0:be:ea:95:63:be:94:3b:
                    d5:59
                Exponent: 65537 (0x10001)
        X509v3 extensions:
            X509v3 Basic Constraints: 
                CA:FALSE
            X509v3 Subject Key Identifier: 
                54:19:35:81:27:7F:02:EB:AD:C7:6E:7E:95:8B:96:60:2C:5D:9A:BD
            X509v3 Authority Key Identifier: 
                keyid:4E:30:D9:8E:A8:C7:12:07:5A:53:2D:87:38:D7:C4:34:F2:D2:72:E7
                DirName:/CN=team31-net
                serial:31:0E:2D:31:B6:0F:4D:6B:76:82:EC:25:F3:70:15:49:C8:4D:E9:BB
            X509v3 Extended Key Usage: 
                TLS Web Server Authentication
            X509v3 Key Usage: 
                Digital Signature, Key Encipherment
            X509v3 Subject Alternative Name: 
                DNS:team31-server
    Signature Algorithm: sha256WithRSAEncryption
    Signature Value:
        81:21:78:b0:bc:39:74:bc:30:6d:b2:20:e3:df:2c:c0:aa:ae:
        71:cc:ce:f2:8d:0c:dc:8e:13:e4:fe:46:14:b3:2b:1f:f5:af:
        a2:7b:4f:79:50:20:e0:fb:c2:1a:49:8a:74:ec:ca:17:df:fd:
        44:f0:12:42:9a:ea:48:64:2b:bc:e1:61:8f:78:ea:9b:f0:27:
        8b:cb:0b:74:e0:48:db:3c:8a:3d:23:1f:5c:93:4a:34:0b:3d:
        9d:63:af:3a:20:8c:94:11:bf:9a:87:3a:ed:04:fc:20:ab:78:
        8e:19:f5:08:36:c9:97:9d:62:d2:b5:a5:da:fc:11:c9:6e:46:
        38:00:21:ef:25:e6:bb:c6:93:69:50:d7:41:70:07:70:9a:20:
        b8:09:18:42:66:a4:a4:22:54:05:28:e7:16:e1:89:41:ea:a6:
        8a:62:a3:b5:93:04:e1:92:41:11:c1:11:08:31:50:45:d4:4d:
        8a:47:ca:f2:af:0c:10:89:ba:88:fa:45:22:be:33:ed:fa:28:
        18:08:8e:e1:28:ec:a0:b6:8f:d9:7f:ef:ef:fe:6f:ca:a9:e7:
        3b:42:1f:68:67:cd:17:92:1e:32:7d:2d:2d:4f:9f:5e:61:51:
        70:f1:bb:30:62:74:6e:3e:f9:bb:15:82:12:5a:bd:8c:8c:8c:
        96:79:00:2f
-----BEGIN CERTIFICATE-----
MIIDczCCAlugAwIBAgIQejwSnKrO8DzQP+rGIq9n2jANBgkqhkiG9w0BAQsFADAV
MRMwEQYDVQQDDAp0ZWFtMzEtbmV0MB4XDTIzMDQyMDIyNTQxMloXDTI2MDQwNDIy
NTQxMlowGDEWMBQGA1UEAwwNdGVhbTMxLXNlcnZlcjCCASIwDQYJKoZIhvcNAQEB
BQADggEPADCCAQoCggEBAMV8+0N3uC3qSOu4GsdPir5JE4OAJjUcXy615UKGTexi
+Q0/ahdP6Q+S/5rOXm+gHvh8oxA+E80iGPxWDPjmvIjkxGAA9bHSQ5lGpX16VZZs
6id09s+HD8am9S8qmkkRCTlqbDck/ho2eBrXRYydP66qz1FCEiZiqzoAtsEIQ5tk
RnaGSKbsV3QqRDwmb1sZiRTOZIeF0oZk+DBtTZDgKrKCOlXT0i2a+S8L6F2deiyr
k1eNKW4PfWpIHBrjR6tGk99n3+4IwDvrrv+BB1HKFEsvR+R0hR+G4jHDhHFQzvA/
N5crJz6E94yWJXfIff+IHZA97lu/ktC+6pVjvpQ71VkCAwEAAaOBuzCBuDAJBgNV
HRMEAjAAMB0GA1UdDgQWBBRUGTWBJ38C663Hbn6Vi5ZgLF2avTBQBgNVHSMESTBH
gBROMNmOqMcSB1pTLYc418Q08tJy56EZpBcwFTETMBEGA1UEAwwKdGVhbTMxLW5l
dIIUMQ4tMbYPTWt2guwl83AVSchN6bswEwYDVR0lBAwwCgYIKwYBBQUHAwEwCwYD
VR0PBAQDAgWgMBgGA1UdEQQRMA+CDXRlYW0zMS1zZXJ2ZXIwDQYJKoZIhvcNAQEL
BQADggEBAIEheLC8OXS8MG2yIOPfLMCqrnHMzvKNDNyOE+T+RhSzKx/1r6J7T3lQ
IOD7whpJinTsyhff/UTwEkKa6khkK7zhYY946pvwJ4vLC3TgSNs8ij0jH1yTSjQL
PZ1jrzogjJQRv5qHOu0E/CCreI4Z9Qg2yZedYtK1pdr8EcluRjgAIe8l5rvGk2lQ
10FwB3CaILgJGEJmpKQiVAUo5xbhiUHqpopio7WTBOGSQRHBEQgxUEXUTYpHyvKv
DBCJuoj6RSK+M+36KBgIjuEo7KC2j9l/7+/+b8qp5ztCH2hnzReSHjJ9LS1Pn15h
UXDxuzBidG4++bsVghJavYyMjJZ5AC8=
-----END CERTIFICATE-----
