Certificate:
    Data:
        Version: 3 (0x2)
        Serial Number:
            d5:52:ce:de:80:4e:b5:19:85:f7:98:68:1e:aa:e4:20
        Signature Algorithm: sha256WithRSAEncryption
        Issuer: CN=team31-net
        Validity
            Not Before: Apr 20 22:54:11 2023 GMT
            Not After : Apr  4 22:54:11 2026 GMT
        Subject: CN=team31-client
        Subject Public Key Info:
            Public Key Algorithm: rsaEncryption
                Public-Key: (2048 bit)
                Modulus:
                    00:9c:76:63:2f:8f:37:ac:b3:b7:c0:bd:76:0e:29:
                    b4:9b:b5:db:f3:cf:b3:29:87:87:7d:3a:86:64:41:
                    e1:5b:c6:56:d8:2c:00:e8:15:f4:f7:2a:17:21:ca:
                    fa:00:2e:9d:a8:c6:f3:25:5a:db:aa:2a:59:4e:4e:
                    44:56:a3:7c:c9:f1:bf:da:b8:21:42:01:01:12:c6:
                    e8:b2:47:bb:53:9c:cb:e1:79:60:5e:56:eb:15:e8:
                    e7:5f:0b:a4:15:e4:af:2c:2a:da:e1:39:a9:91:a3:
                    c8:f1:47:d5:a8:31:0a:92:12:4d:51:8e:af:4d:f9:
                    4f:80:90:9c:dd:ea:32:44:30:32:f8:43:37:e6:5b:
                    1a:62:d8:6e:f4:78:f6:01:35:73:ae:09:e1:c3:20:
                    5a:65:5e:e2:99:a7:1a:ba:51:2a:e2:79:67:b1:b7:
                    e2:db:77:50:3d:d9:cb:53:dd:7c:c8:ab:a1:67:6c:
                    71:01:91:2b:56:d8:ce:1f:10:81:45:75:de:1a:f5:
                    35:69:ff:40:a4:7c:d6:c1:72:5b:a2:07:64:75:e0:
                    ea:92:2a:0a:bd:11:0e:14:ee:84:9f:ea:8e:c4:38:
                    78:3e:9c:0c:c7:d8:93:d2:17:ee:31:e0:3b:9e:9c:
                    2d:6f:dc:74:42:68:82:cd:83:a8:3c:99:18:e4:96:
                    e0:99
                Exponent: 65537 (0x10001)
        X509v3 extensions:
            X509v3 Basic Constraints: 
                CA:FALSE
            X509v3 Subject Key Identifier: 
                60:3F:C8:29:D4:D7:A0:0C:B3:59:25:AA:52:00:5F:00:38:67:2A:47
            X509v3 Authority Key Identifier: 
                keyid:4E:30:D9:8E:A8:C7:12:07:5A:53:2D:87:38:D7:C4:34:F2:D2:72:E7
                DirName:/CN=team31-net
                serial:31:0E:2D:31:B6:0F:4D:6B:76:82:EC:25:F3:70:15:49:C8:4D:E9:BB
            X509v3 Extended Key Usage: 
                TLS Web Client Authentication
            X509v3 Key Usage: 
                Digital Signature
    Signature Algorithm: sha256WithRSAEncryption
    Signature Value:
        3e:4e:ac:f7:53:52:9f:d6:3b:aa:22:0a:0a:a5:f3:30:f3:cb:
        aa:69:f8:e1:72:d7:78:1b:8c:23:f7:26:3b:91:83:61:9c:d4:
        bc:51:be:98:09:ea:ce:c9:f5:a4:a2:65:d4:de:98:30:fa:82:
        08:28:4a:26:e1:31:5f:50:14:eb:4d:34:9c:b4:74:3a:54:88:
        60:e7:06:93:d5:eb:df:e3:13:d8:49:05:e7:b5:2b:d3:df:d4:
        95:03:ac:e1:3b:c0:a4:46:fa:f6:53:43:3b:ba:a9:49:cd:0a:
        f8:bf:8f:d2:f2:86:f8:58:70:e6:2d:d0:45:d7:85:c3:2e:7d:
        de:58:63:bc:b4:ec:99:6d:f6:c3:5b:53:a1:12:9a:de:8f:eb:
        4c:b4:55:b1:bb:27:46:42:69:cd:52:28:3b:fe:9e:0c:83:fb:
        77:05:28:24:f2:59:6a:4a:91:15:11:62:1b:73:a1:e4:bf:62:
        c2:ef:6e:cc:71:5c:38:8a:83:76:ea:c1:36:69:f6:c3:a0:6d:
        e6:20:f6:40:bf:26:b5:1d:32:cc:a9:af:e2:82:9e:a5:f6:5b:
        fa:c4:27:6a:73:0f:d7:fe:04:3b:ae:55:2e:e6:f8:3b:8d:09:
        ef:ab:64:8b:82:45:ec:ef:f8:dc:1b:41:d3:2d:2c:25:88:49:
        ce:b1:56:94
-----BEGIN CERTIFICATE-----
MIIDWjCCAkKgAwIBAgIRANVSzt6ATrUZhfeYaB6q5CAwDQYJKoZIhvcNAQELBQAw
FTETMBEGA1UEAwwKdGVhbTMxLW5ldDAeFw0yMzA0MjAyMjU0MTFaFw0yNjA0MDQy
MjU0MTFaMBgxFjAUBgNVBAMMDXRlYW0zMS1jbGllbnQwggEiMA0GCSqGSIb3DQEB
AQUAA4IBDwAwggEKAoIBAQCcdmMvjzess7fAvXYOKbSbtdvzz7Mph4d9OoZkQeFb
xlbYLADoFfT3KhchyvoALp2oxvMlWtuqKllOTkRWo3zJ8b/auCFCAQESxuiyR7tT
nMvheWBeVusV6OdfC6QV5K8sKtrhOamRo8jxR9WoMQqSEk1Rjq9N+U+AkJzd6jJE
MDL4QzfmWxpi2G70ePYBNXOuCeHDIFplXuKZpxq6USrieWext+Lbd1A92ctT3XzI
q6FnbHEBkStW2M4fEIFFdd4a9TVp/0CkfNbBcluiB2R14OqSKgq9EQ4U7oSf6o7E
OHg+nAzH2JPSF+4x4DuenC1v3HRCaILNg6g8mRjkluCZAgMBAAGjgaEwgZ4wCQYD
VR0TBAIwADAdBgNVHQ4EFgQUYD/IKdTXoAyzWSWqUgBfADhnKkcwUAYDVR0jBEkw
R4AUTjDZjqjHEgdaUy2HONfENPLScuehGaQXMBUxEzARBgNVBAMMCnRlYW0zMS1u
ZXSCFDEOLTG2D01rdoLsJfNwFUnITem7MBMGA1UdJQQMMAoGCCsGAQUFBwMCMAsG
A1UdDwQEAwIHgDANBgkqhkiG9w0BAQsFAAOCAQEAPk6s91NSn9Y7qiIKCqXzMPPL
qmn44XLXeBuMI/cmO5GDYZzUvFG+mAnqzsn1pKJl1N6YMPqCCChKJuExX1AU6000
nLR0OlSIYOcGk9Xr3+MT2EkF57Ur09/UlQOs4TvApEb69lNDO7qpSc0K+L+P0vKG
+Fhw5i3QRdeFwy593lhjvLTsmW32w1tToRKa3o/rTLRVsbsnRkJpzVIoO/6eDIP7
dwUoJPJZakqRFRFiG3Oh5L9iwu9uzHFcOIqDdurBNmn2w6Bt5iD2QL8mtR0yzKmv
4oKepfZb+sQnanMP1/4EO65VLub4O40J76tki4JF7O/43BtB0y0sJYhJzrFWlA==
-----END CERTIFICATE-----
