Certificate:
    Data:
        Version: 3 (0x2)
        Serial Number:
            63:34:95:92:a0:44:15:f5:04:0a:8b:a2:44:93:e8:ad
        Signature Algorithm: sha256WithRSAEncryption
        Issuer: CN=team22-net
        Validity
            Not Before: Apr 20 22:53:57 2023 GMT
            Not After : Apr  4 22:53:57 2026 GMT
        Subject: CN=team22-server
        Subject Public Key Info:
            Public Key Algorithm: rsaEncryption
                Public-Key: (2048 bit)
                Modulus:
                    00:c0:29:b3:8d:eb:4c:fb:4b:5c:57:f2:44:e6:c5:
                    51:84:c2:a1:a1:50:6e:f7:03:ba:32:e0:4a:da:f0:
                    6b:6a:ff:6d:e1:ca:76:9e:34:0c:73:ac:92:5c:64:
                    0d:01:93:83:41:78:ef:a3:52:69:9d:bc:27:f6:4c:
                    d0:a1:c0:de:89:40:ec:71:53:66:06:07:25:7a:3f:
                    06:7e:90:ec:8b:dc:5d:f2:bf:c8:34:9b:da:a4:63:
                    38:ca:eb:c2:a6:90:e7:51:64:32:75:0a:b9:e8:20:
                    e3:14:85:85:89:db:a3:f1:31:14:9e:88:b8:74:55:
                    35:89:56:8b:dc:94:85:b1:fc:8b:64:6e:a2:74:f3:
                    b6:bd:2e:24:a8:b7:c0:7f:32:9c:96:b3:5f:68:2b:
                    c9:28:76:22:d2:0f:f5:1f:e2:8e:97:88:26:c5:0b:
                    39:48:9a:9d:83:05:f6:f8:0a:0e:0b:6e:2f:08:91:
                    48:6b:25:13:91:2d:40:5d:4c:61:05:23:14:57:88:
                    d0:2c:03:c3:7c:bc:fd:3e:96:9d:32:3e:b8:30:59:
                    48:9a:ff:ff:c0:2f:c5:73:94:86:85:5a:2e:cb:d2:
                    4a:74:7b:99:79:6a:dc:b3:33:a6:c6:11:e6:59:73:
                    8c:8e:72:2c:03:9c:9a:2c:9a:98:24:b7:9e:57:22:
                    ef:01
                Exponent: 65537 (0x10001)
        X509v3 extensions:
            X509v3 Basic Constraints: 
                CA:FALSE
            X509v3 Subject Key Identifier: 
                C7:BB:2D:45:52:EB:95:37:17:5F:64:FB:7D:4B:2F:5B:4F:8F:6F:44
            X509v3 Authority Key Identifier: 
                keyid:DA:17:4A:AB:AE:B7:BD:44:6A:BF:E7:D6:74:06:83:0E:71:F1:FC:5B
                DirName:/CN=team22-net
                serial:79:5F:A1:0D:CC:F7:27:DF:F5:97:AB:31:CE:D7:1C:39:61:4C:66:F6
            X509v3 Extended Key Usage: 
                TLS Web Server Authentication
            X509v3 Key Usage: 
                Digital Signature, Key Encipherment
            X509v3 Subject Alternative Name: 
                DNS:team22-server
    Signature Algorithm: sha256WithRSAEncryption
    Signature Value:
        02:ab:69:fe:a3:5b:1d:84:48:5b:18:5a:56:a9:08:01:4b:2f:
        5d:0a:69:90:72:40:97:99:3e:b5:57:6a:b3:de:9e:e8:b2:68:
        69:02:58:47:4f:29:93:a7:ed:dd:3b:f2:b2:04:f8:9b:a9:97:
        97:42:9b:3c:73:a3:a0:21:c3:59:96:61:20:e2:f2:9d:82:44:
        c9:8c:99:67:9d:ee:b7:47:6d:78:9c:87:c0:f6:13:73:0d:f8:
        55:7c:c3:db:b0:87:f9:a1:9e:58:6a:07:c0:07:15:e6:4f:1f:
        1e:1b:53:dd:76:2f:c1:de:68:d5:d4:60:12:17:c5:1f:5f:a5:
        37:3f:e8:53:3c:df:48:76:ff:89:47:e4:b7:ca:b0:b7:a8:b1:
        78:4b:0a:ec:5d:0e:48:93:94:76:f9:db:26:46:67:e8:8e:8f:
        8a:28:55:c8:c1:f8:1f:ef:a4:00:e8:0d:b8:25:1b:36:d1:ba:
        d2:eb:b1:9a:40:4e:d4:35:77:33:da:3a:71:12:bb:fa:00:79:
        d7:b1:46:70:59:f7:34:c0:c2:74:a1:a9:fa:a9:21:af:76:0b:
        48:cd:1f:37:f2:14:42:ce:d3:63:0d:7d:0b:98:75:d0:37:83:
        55:d9:30:02:02:8a:da:c5:4b:f2:69:c5:99:3b:a1:6e:73:74:
        ac:ac:ec:02
-----BEGIN CERTIFICATE-----
MIIDczCCAlugAwIBAgIQYzSVkqBEFfUECouiRJPorTANBgkqhkiG9w0BAQsFADAV
MRMwEQYDVQQDDAp0ZWFtMjItbmV0MB4XDTIzMDQyMDIyNTM1N1oXDTI2MDQwNDIy
NTM1N1owGDEWMBQGA1UEAwwNdGVhbTIyLXNlcnZlcjCCASIwDQYJKoZIhvcNAQEB
BQADggEPADCCAQoCggEBAMAps43rTPtLXFfyRObFUYTCoaFQbvcDujLgStrwa2r/
beHKdp40DHOsklxkDQGTg0F476NSaZ28J/ZM0KHA3olA7HFTZgYHJXo/Bn6Q7Ivc
XfK/yDSb2qRjOMrrwqaQ51FkMnUKuegg4xSFhYnbo/ExFJ6IuHRVNYlWi9yUhbH8
i2RuonTztr0uJKi3wH8ynJazX2grySh2ItIP9R/ijpeIJsULOUianYMF9vgKDgtu
LwiRSGslE5EtQF1MYQUjFFeI0CwDw3y8/T6WnTI+uDBZSJr//8AvxXOUhoVaLsvS
SnR7mXlq3LMzpsYR5llzjI5yLAOcmiyamCS3nlci7wECAwEAAaOBuzCBuDAJBgNV
HRMEAjAAMB0GA1UdDgQWBBTHuy1FUuuVNxdfZPt9Sy9bT49vRDBQBgNVHSMESTBH
gBTaF0qrrre9RGq/59Z0BoMOcfH8W6EZpBcwFTETMBEGA1UEAwwKdGVhbTIyLW5l
dIIUeV+hDcz3J9/1l6sxztccOWFMZvYwEwYDVR0lBAwwCgYIKwYBBQUHAwEwCwYD
VR0PBAQDAgWgMBgGA1UdEQQRMA+CDXRlYW0yMi1zZXJ2ZXIwDQYJKoZIhvcNAQEL
BQADggEBAAKraf6jWx2ESFsYWlapCAFLL10KaZByQJeZPrVXarPenuiyaGkCWEdP
KZOn7d078rIE+Jupl5dCmzxzo6Ahw1mWYSDi8p2CRMmMmWed7rdHbXich8D2E3MN
+FV8w9uwh/mhnlhqB8AHFeZPHx4bU912L8HeaNXUYBIXxR9fpTc/6FM830h2/4lH
5LfKsLeosXhLCuxdDkiTlHb52yZGZ+iOj4ooVcjB+B/vpADoDbglGzbRutLrsZpA
TtQ1dzPaOnESu/oAedexRnBZ9zTAwnShqfqpIa92C0jNHzfyFELO02MNfQuYddA3
g1XZMAICitrFS/JpxZk7oW5zdKys7AI=
-----END CERTIFICATE-----
