Certificate:
    Data:
        Version: 3 (0x2)
        Serial Number:
            ba:da:28:55:13:b5:e6:38:7a:84:0d:51:bb:5b:a8:ee
        Signature Algorithm: sha256WithRSAEncryption
        Issuer: CN=team22-net
        Validity
            Not Before: Apr 20 22:53:57 2023 GMT
            Not After : Apr  4 22:53:57 2026 GMT
        Subject: CN=team22-client
        Subject Public Key Info:
            Public Key Algorithm: rsaEncryption
                Public-Key: (2048 bit)
                Modulus:
                    00:b4:89:44:e6:b1:48:c7:51:9d:d6:ff:f5:75:9f:
                    64:83:3b:52:c9:97:c4:13:49:76:67:1c:49:87:cd:
                    52:71:19:fe:35:df:42:a7:06:0b:4b:95:c2:df:00:
                    96:d8:f3:59:ef:c5:87:7d:1b:a3:18:75:c4:3d:20:
                    39:35:6a:db:39:c6:b3:e6:1a:93:57:3f:6e:78:73:
                    7a:ac:c0:3d:81:0e:35:04:e1:29:8a:dc:3b:77:bb:
                    fc:38:ea:4b:f5:df:4d:ab:0b:3e:e6:23:fe:29:ba:
                    0d:db:e6:95:6b:08:36:1f:73:1f:2d:12:7e:e1:de:
                    52:df:bd:57:c3:71:c9:20:65:48:58:4f:60:69:a6:
                    79:6a:27:0a:f1:70:55:b2:eb:69:7c:1b:41:ef:c4:
                    ad:e7:e2:16:9e:fc:b9:ad:6c:b2:78:1e:33:1b:f4:
                    15:4f:0d:29:27:16:76:94:dd:e9:71:27:bf:72:48:
                    78:10:c8:be:fe:25:11:9a:ad:9d:c5:a6:c8:8c:36:
                    f7:a8:23:cb:2b:e3:77:d1:99:49:18:0c:66:a2:43:
                    90:5e:3b:29:b2:92:30:ab:0a:dc:5f:5e:e1:6e:98:
                    bd:91:56:9f:1d:6d:17:1b:f1:58:8f:3b:0a:78:60:
                    2f:ae:c3:bd:fb:13:6e:ff:6d:12:9d:b0:b0:93:12:
                    19:37
                Exponent: 65537 (0x10001)
        X509v3 extensions:
            X509v3 Basic Constraints: 
                CA:FALSE
            X509v3 Subject Key Identifier: 
                30:3A:78:53:E8:88:5D:35:E5:A7:3C:73:89:47:01:57:A0:B1:83:00
            X509v3 Authority Key Identifier: 
                keyid:DA:17:4A:AB:AE:B7:BD:44:6A:BF:E7:D6:74:06:83:0E:71:F1:FC:5B
                DirName:/CN=team22-net
                serial:79:5F:A1:0D:CC:F7:27:DF:F5:97:AB:31:CE:D7:1C:39:61:4C:66:F6
            X509v3 Extended Key Usage: 
                TLS Web Client Authentication
            X509v3 Key Usage: 
                Digital Signature
    Signature Algorithm: sha256WithRSAEncryption
    Signature Value:
        8f:67:50:6e:c7:33:d8:60:5c:02:1f:2f:ea:9c:88:e0:38:47:
        62:2d:6d:ab:0f:39:7b:80:15:19:71:82:f2:ee:8a:31:37:a4:
        01:e0:fd:05:93:cf:b4:61:3c:43:30:08:49:23:07:30:23:c9:
        de:da:66:c4:05:bb:05:0f:01:4a:e4:4e:66:b0:21:e5:f2:3b:
        e0:81:e1:0b:2a:96:4a:11:79:97:da:02:82:98:66:42:b1:16:
        10:34:fa:52:3c:9a:bd:78:36:d0:49:bb:82:3c:10:82:c1:28:
        68:f9:98:0f:40:de:e2:bb:80:2a:04:ca:99:27:81:63:10:e3:
        66:3c:33:70:0f:94:e9:22:0d:a6:05:e1:95:58:84:19:c4:c6:
        8c:d3:cc:e6:a0:6f:12:bb:e0:e4:18:f3:22:e3:91:f0:7d:d7:
        12:4b:b4:2e:42:c2:1e:cb:1c:b7:9f:22:ec:1d:bf:6e:7b:55:
        2a:2e:3e:1d:8c:c8:0a:5c:22:b4:98:2c:4f:d2:2f:70:ee:38:
        d0:47:14:16:69:8f:13:f5:10:72:63:ec:c6:2a:90:1b:c6:82:
        99:04:1a:b1:7e:94:c2:bd:d0:4b:73:7c:1a:bf:63:f7:74:14:
        fa:d5:e7:05:c7:bb:b7:55:79:7b:85:9c:4f:98:30:fa:0c:97:
        42:9a:9b:34
-----BEGIN CERTIFICATE-----
MIIDWjCCAkKgAwIBAgIRALraKFUTteY4eoQNUbtbqO4wDQYJKoZIhvcNAQELBQAw
FTETMBEGA1UEAwwKdGVhbTIyLW5ldDAeFw0yMzA0MjAyMjUzNTdaFw0yNjA0MDQy
MjUzNTdaMBgxFjAUBgNVBAMMDXRlYW0yMi1jbGllbnQwggEiMA0GCSqGSIb3DQEB
AQUAA4IBDwAwggEKAoIBAQC0iUTmsUjHUZ3W//V1n2SDO1LJl8QTSXZnHEmHzVJx
Gf4130KnBgtLlcLfAJbY81nvxYd9G6MYdcQ9IDk1ats5xrPmGpNXP254c3qswD2B
DjUE4SmK3Dt3u/w46kv1302rCz7mI/4pug3b5pVrCDYfcx8tEn7h3lLfvVfDcckg
ZUhYT2BppnlqJwrxcFWy62l8G0HvxK3n4hae/LmtbLJ4HjMb9BVPDSknFnaU3elx
J79ySHgQyL7+JRGarZ3FpsiMNveoI8sr43fRmUkYDGaiQ5BeOymykjCrCtxfXuFu
mL2RVp8dbRcb8ViPOwp4YC+uw737E27/bRKdsLCTEhk3AgMBAAGjgaEwgZ4wCQYD
VR0TBAIwADAdBgNVHQ4EFgQUMDp4U+iIXTXlpzxziUcBV6CxgwAwUAYDVR0jBEkw
R4AU2hdKq663vURqv+fWdAaDDnHx/FuhGaQXMBUxEzARBgNVBAMMCnRlYW0yMi1u
ZXSCFHlfoQ3M9yff9ZerMc7XHDlhTGb2MBMGA1UdJQQMMAoGCCsGAQUFBwMCMAsG
A1UdDwQEAwIHgDANBgkqhkiG9w0BAQsFAAOCAQEAj2dQbscz2GBcAh8v6pyI4DhH
Yi1tqw85e4AVGXGC8u6KMTekAeD9BZPPtGE8QzAISSMHMCPJ3tpmxAW7BQ8BSuRO
ZrAh5fI74IHhCyqWShF5l9oCgphmQrEWEDT6UjyavXg20Em7gjwQgsEoaPmYD0De
4ruAKgTKmSeBYxDjZjwzcA+U6SINpgXhlViEGcTGjNPM5qBvErvg5BjzIuOR8H3X
Eku0LkLCHssct58i7B2/bntVKi4+HYzIClwitJgsT9IvcO440EcUFmmPE/UQcmPs
xiqQG8aCmQQasX6Uwr3QS3N8Gr9j93QU+tXnBce7t1V5e4WcT5gw+gyXQpqbNA==
-----END CERTIFICATE-----
