Certificate:
    Data:
        Version: 3 (0x2)
        Serial Number:
            1f:a5:19:33:1a:0c:04:95:39:f4:f2:a2:2a:64:d9:65
        Signature Algorithm: sha256WithRSAEncryption
        Issuer: CN=team30-net
        Validity
            Not Before: Apr 20 00:10:40 2023 GMT
            Not After : Apr  4 00:10:40 2026 GMT
        Subject: CN=team30-server
        Subject Public Key Info:
            Public Key Algorithm: rsaEncryption
                Public-Key: (2048 bit)
                Modulus:
                    00:ca:74:6f:e3:a5:df:d9:0c:c7:5f:95:78:ae:83:
                    2b:a6:69:a3:ae:16:b0:8a:68:2d:e5:89:47:3b:b7:
                    d0:d3:4d:d4:a4:aa:9f:97:98:1a:a9:05:4c:21:7d:
                    61:de:e4:8e:dd:a7:c8:7d:15:41:bd:d6:62:07:cd:
                    5d:3e:a4:33:21:ab:c2:8c:ed:82:cb:70:d0:af:68:
                    fb:3e:f0:1b:f0:a0:97:96:48:8c:2b:01:45:c7:78:
                    27:ab:d9:06:ba:4a:43:00:87:b7:68:8a:a7:db:85:
                    b3:38:d1:75:f1:40:43:58:66:b7:2a:86:82:72:08:
                    cc:e3:c6:55:a7:b2:99:43:8b:dd:03:4b:12:a8:87:
                    28:49:a1:17:1a:7e:cb:5d:95:5b:5c:a3:1a:a4:d2:
                    51:a1:8b:52:97:40:43:ad:ff:00:10:c3:34:bb:63:
                    82:30:fa:ea:42:16:a3:ea:cc:97:12:c3:ce:d1:ae:
                    8c:20:27:25:f1:00:92:ce:20:ab:1a:cc:83:fe:ea:
                    75:41:7e:5b:cb:64:fb:4c:1c:9d:6a:23:39:51:ad:
                    35:41:74:25:4a:bb:ff:da:44:79:72:24:8e:55:a2:
                    b4:83:27:6f:45:d5:8e:94:ec:c3:80:1f:fe:0f:fd:
                    b7:a1:58:54:6b:e2:c9:9d:52:52:f3:7f:ba:27:ff:
                    1f:4f
                Exponent: 65537 (0x10001)
        X509v3 extensions:
            X509v3 Basic Constraints: 
                CA:FALSE
            X509v3 Subject Key Identifier: 
                09:1A:C7:C9:D9:AC:9F:65:3D:5A:3D:51:31:50:32:A4:55:CC:1C:38
            X509v3 Authority Key Identifier: 
                keyid:D6:34:C1:AC:0A:97:AA:94:AA:69:96:D6:4F:22:AD:1D:71:18:54:36
                DirName:/CN=team30-net
                serial:44:AC:62:E8:87:E1:BD:CE:00:BE:FD:26:EF:89:7D:02:EB:BA:E4:6F
            X509v3 Extended Key Usage: 
                TLS Web Server Authentication
            X509v3 Key Usage: 
                Digital Signature, Key Encipherment
            X509v3 Subject Alternative Name: 
                DNS:team30-server
    Signature Algorithm: sha256WithRSAEncryption
    Signature Value:
        2c:96:33:f7:c9:99:fa:a3:60:5b:09:64:ad:26:ea:ba:ad:57:
        78:c5:cc:7d:b9:e4:6f:11:0e:d0:e2:ff:13:35:86:27:6c:cf:
        51:60:04:05:5f:fe:71:88:9c:17:3b:52:1e:d5:df:a0:ed:fb:
        9e:3e:8e:79:37:35:7f:df:6f:a1:33:ca:d3:6b:17:6e:f4:db:
        39:4a:72:ff:14:d1:38:da:2b:53:0b:b1:b9:cd:de:c2:9a:3b:
        a5:ef:79:e1:50:a8:17:8a:46:6a:b4:02:da:3c:a0:4a:cf:51:
        4e:c7:1b:68:f7:ac:d0:7f:29:ff:e7:26:90:e8:99:80:1f:49:
        a1:de:21:86:51:47:f7:5f:10:d3:62:6a:b4:3a:c6:35:a2:b3:
        5a:01:48:08:17:b7:a8:88:52:e9:e1:01:fc:e9:f8:2c:31:f7:
        77:4e:73:42:a9:d1:27:21:ac:96:e8:66:c1:3e:a1:69:6b:a9:
        bc:28:cf:5f:9d:11:4d:88:57:74:fd:69:1f:dd:66:d1:53:6a:
        46:24:2d:83:58:cc:a7:74:d9:73:0c:90:ef:c3:74:d4:a1:a3:
        fd:8d:ae:59:0b:60:19:bb:42:11:c8:53:eb:1f:c9:a1:86:bf:
        7c:34:93:94:b8:73:93:de:a3:d0:aa:23:d5:2d:bb:6a:64:15:
        d2:38:92:7e
-----BEGIN CERTIFICATE-----
MIIDczCCAlugAwIBAgIQH6UZMxoMBJU59PKiKmTZZTANBgkqhkiG9w0BAQsFADAV
MRMwEQYDVQQDDAp0ZWFtMzAtbmV0MB4XDTIzMDQyMDAwMTA0MFoXDTI2MDQwNDAw
MTA0MFowGDEWMBQGA1UEAwwNdGVhbTMwLXNlcnZlcjCCASIwDQYJKoZIhvcNAQEB
BQADggEPADCCAQoCggEBAMp0b+Ol39kMx1+VeK6DK6Zpo64WsIpoLeWJRzu30NNN
1KSqn5eYGqkFTCF9Yd7kjt2nyH0VQb3WYgfNXT6kMyGrwoztgstw0K9o+z7wG/Cg
l5ZIjCsBRcd4J6vZBrpKQwCHt2iKp9uFszjRdfFAQ1hmtyqGgnIIzOPGVaeymUOL
3QNLEqiHKEmhFxp+y12VW1yjGqTSUaGLUpdAQ63/ABDDNLtjgjD66kIWo+rMlxLD
ztGujCAnJfEAks4gqxrMg/7qdUF+W8tk+0wcnWojOVGtNUF0JUq7/9pEeXIkjlWi
tIMnb0XVjpTsw4Af/g/9t6FYVGviyZ1SUvN/uif/H08CAwEAAaOBuzCBuDAJBgNV
HRMEAjAAMB0GA1UdDgQWBBQJGsfJ2ayfZT1aPVExUDKkVcwcODBQBgNVHSMESTBH
gBTWNMGsCpeqlKppltZPIq0dcRhUNqEZpBcwFTETMBEGA1UEAwwKdGVhbTMwLW5l
dIIURKxi6Ifhvc4Avv0m74l9Auu65G8wEwYDVR0lBAwwCgYIKwYBBQUHAwEwCwYD
VR0PBAQDAgWgMBgGA1UdEQQRMA+CDXRlYW0zMC1zZXJ2ZXIwDQYJKoZIhvcNAQEL
BQADggEBACyWM/fJmfqjYFsJZK0m6rqtV3jFzH255G8RDtDi/xM1hidsz1FgBAVf
/nGInBc7Uh7V36Dt+54+jnk3NX/fb6EzytNrF2702zlKcv8U0TjaK1MLsbnN3sKa
O6XveeFQqBeKRmq0Ato8oErPUU7HG2j3rNB/Kf/nJpDomYAfSaHeIYZRR/dfENNi
arQ6xjWis1oBSAgXt6iIUunhAfzp+Cwx93dOc0Kp0SchrJboZsE+oWlrqbwoz1+d
EU2IV3T9aR/dZtFTakYkLYNYzKd02XMMkO/DdNSho/2NrlkLYBm7QhHIU+sfyaGG
v3w0k5S4c5Peo9CqI9Utu2pkFdI4kn4=
-----END CERTIFICATE-----
