Certificate:
    Data:
        Version: 3 (0x2)
        Serial Number:
            26:d4:35:b9:a2:74:7c:a4:86:14:6a:b2:d7:bc:3e:d0
        Signature Algorithm: sha256WithRSAEncryption
        Issuer: CN=team30-net
        Validity
            Not Before: Apr 20 00:10:40 2023 GMT
            Not After : Apr  4 00:10:40 2026 GMT
        Subject: CN=team30-client
        Subject Public Key Info:
            Public Key Algorithm: rsaEncryption
                Public-Key: (2048 bit)
                Modulus:
                    00:b3:3a:a4:cb:77:43:56:f8:86:98:52:d0:1c:2c:
                    b5:57:91:cc:b5:07:36:5b:4d:b7:96:a0:05:e8:95:
                    da:8a:1e:8f:5d:c4:e4:9d:b8:02:a9:86:ac:ab:11:
                    db:02:0f:20:8a:7e:7c:7d:72:bc:83:fe:0b:5b:6e:
                    2f:51:59:8f:3b:71:e5:e2:00:52:6d:1d:d8:bd:6c:
                    2a:29:d0:c6:3c:a8:aa:4f:0a:96:f5:dc:7c:72:fc:
                    b4:a3:85:59:f3:10:ea:65:47:88:4f:d9:93:4e:f3:
                    3b:fb:88:46:63:5d:28:2d:4f:84:42:82:43:2f:64:
                    b7:4d:9a:ac:20:00:b1:40:d5:0d:9e:46:a4:2d:99:
                    5a:f2:a8:9b:57:b5:ac:50:08:4e:b1:3f:bc:a2:6c:
                    b0:0d:75:3a:d0:66:9d:26:ae:00:44:07:f0:8d:de:
                    6e:89:c2:af:e4:44:40:9d:3d:ab:cf:9b:64:4f:a7:
                    72:ff:ec:e9:fb:29:bd:48:ab:0d:88:d6:a7:68:e5:
                    8b:d3:fc:e5:4c:69:20:97:78:ae:cb:9b:e8:99:41:
                    87:c7:04:67:6b:c3:e6:20:4d:99:45:8f:90:be:c9:
                    0b:a1:41:15:4f:58:05:d2:16:ba:35:a5:c9:94:ec:
                    cb:67:2c:df:60:8a:15:f9:64:cc:25:c0:ce:4b:f7:
                    4b:55
                Exponent: 65537 (0x10001)
        X509v3 extensions:
            X509v3 Basic Constraints: 
                CA:FALSE
            X509v3 Subject Key Identifier: 
                22:D4:9F:7A:16:5B:C2:79:C6:D1:1A:A7:07:41:E2:22:57:67:4C:50
            X509v3 Authority Key Identifier: 
                keyid:D6:34:C1:AC:0A:97:AA:94:AA:69:96:D6:4F:22:AD:1D:71:18:54:36
                DirName:/CN=team30-net
                serial:44:AC:62:E8:87:E1:BD:CE:00:BE:FD:26:EF:89:7D:02:EB:BA:E4:6F
            X509v3 Extended Key Usage: 
                TLS Web Client Authentication
            X509v3 Key Usage: 
                Digital Signature
    Signature Algorithm: sha256WithRSAEncryption
    Signature Value:
        4e:6a:e7:e5:d4:12:45:d5:33:cc:30:c4:9e:0c:3b:49:ce:04:
        7f:93:3d:03:ae:e2:93:b8:5f:da:8d:20:90:0e:24:3c:9b:32:
        70:a7:41:ac:d8:e4:3c:9c:fc:41:30:58:4f:bb:76:94:5f:0c:
        71:1a:15:fb:f6:da:ca:23:76:ed:f8:ca:ff:c3:59:3f:5b:b7:
        f5:ff:af:4a:55:11:19:2b:02:f5:f7:a1:e1:76:2e:01:fb:cb:
        01:da:6e:20:79:93:36:40:49:87:81:24:4a:29:f8:92:ad:a5:
        32:17:57:09:94:7e:be:b8:a3:2e:91:0c:9d:02:c8:fd:41:b3:
        2f:17:89:6f:d2:de:35:2b:cb:ec:ee:d6:d3:8e:cd:12:4f:bb:
        b7:be:44:81:4d:3b:50:dc:66:18:1b:79:e3:88:d5:28:e5:3e:
        f3:6d:7f:c0:5e:24:19:78:3b:12:8f:08:e2:b3:50:78:26:a8:
        0c:35:b3:e6:2b:fa:95:0c:34:8c:73:db:a3:32:62:d6:1d:bf:
        7c:2d:9d:38:ea:87:9a:58:a4:e7:e2:04:89:0f:1c:0e:db:02:
        d0:0f:26:fa:ce:d6:6f:cd:e4:ee:e4:bb:c5:7a:78:94:9f:ea:
        f2:a0:94:22:18:1e:fe:92:24:f3:de:91:09:62:09:a6:6f:40:
        ad:93:dc:c9
-----BEGIN CERTIFICATE-----
MIIDWTCCAkGgAwIBAgIQJtQ1uaJ0fKSGFGqy17w+0DANBgkqhkiG9w0BAQsFADAV
MRMwEQYDVQQDDAp0ZWFtMzAtbmV0MB4XDTIzMDQyMDAwMTA0MFoXDTI2MDQwNDAw
MTA0MFowGDEWMBQGA1UEAwwNdGVhbTMwLWNsaWVudDCCASIwDQYJKoZIhvcNAQEB
BQADggEPADCCAQoCggEBALM6pMt3Q1b4hphS0BwstVeRzLUHNltNt5agBeiV2ooe
j13E5J24AqmGrKsR2wIPIIp+fH1yvIP+C1tuL1FZjztx5eIAUm0d2L1sKinQxjyo
qk8KlvXcfHL8tKOFWfMQ6mVHiE/Zk07zO/uIRmNdKC1PhEKCQy9kt02arCAAsUDV
DZ5GpC2ZWvKom1e1rFAITrE/vKJssA11OtBmnSauAEQH8I3ebonCr+REQJ09q8+b
ZE+ncv/s6fspvUirDYjWp2jli9P85UxpIJd4rsub6JlBh8cEZ2vD5iBNmUWPkL7J
C6FBFU9YBdIWujWlyZTsy2cs32CKFflkzCXAzkv3S1UCAwEAAaOBoTCBnjAJBgNV
HRMEAjAAMB0GA1UdDgQWBBQi1J96FlvCecbRGqcHQeIiV2dMUDBQBgNVHSMESTBH
gBTWNMGsCpeqlKppltZPIq0dcRhUNqEZpBcwFTETMBEGA1UEAwwKdGVhbTMwLW5l
dIIURKxi6Ifhvc4Avv0m74l9Auu65G8wEwYDVR0lBAwwCgYIKwYBBQUHAwIwCwYD
VR0PBAQDAgeAMA0GCSqGSIb3DQEBCwUAA4IBAQBOaufl1BJF1TPMMMSeDDtJzgR/
kz0DruKTuF/ajSCQDiQ8mzJwp0Gs2OQ8nPxBMFhPu3aUXwxxGhX79trKI3bt+Mr/
w1k/W7f1/69KVREZKwL196Hhdi4B+8sB2m4geZM2QEmHgSRKKfiSraUyF1cJlH6+
uKMukQydAsj9QbMvF4lv0t41K8vs7tbTjs0ST7u3vkSBTTtQ3GYYG3njiNUo5T7z
bX/AXiQZeDsSjwjis1B4JqgMNbPmK/qVDDSMc9ujMmLWHb98LZ046oeaWKTn4gSJ
DxwO2wLQDyb6ztZvzeTu5LvFeniUn+ryoJQiGB7+kiTz3pEJYgmmb0Ctk9zJ
-----END CERTIFICATE-----
