Certificate:
    Data:
        Version: 3 (0x2)
        Serial Number:
            95:40:6d:1f:12:a3:82:52:88:84:5c:0d:9d:9c:1d:00
        Signature Algorithm: sha256WithRSAEncryption
        Issuer: CN=team30-net
        Validity
            Not Before: Apr 20 22:54:10 2023 GMT
            Not After : Apr  4 22:54:10 2026 GMT
        Subject: CN=team30-client
        Subject Public Key Info:
            Public Key Algorithm: rsaEncryption
                Public-Key: (2048 bit)
                Modulus:
                    00:89:7e:93:bb:7f:51:e8:dc:8a:11:90:b7:1c:1b:
                    b5:18:9c:b8:7d:11:f7:61:b2:27:26:87:e7:f9:58:
                    ee:71:8f:68:dc:11:e6:bc:f0:ce:b4:66:f3:a7:d5:
                    3e:7b:4a:f2:da:b6:6c:b3:bb:fa:60:e2:41:75:9b:
                    33:d0:07:06:ff:36:ab:fa:d1:d0:5c:95:d0:5c:59:
                    6c:8a:99:a3:41:02:38:55:30:65:86:de:71:76:c1:
                    ac:7c:43:a8:45:27:cd:0c:f9:a8:87:bf:69:25:07:
                    7b:7c:6f:bf:12:84:bc:6d:e3:45:b0:c9:ac:21:04:
                    54:6b:a4:39:a0:1f:b2:22:b3:0f:b7:b8:3b:10:95:
                    4b:5c:ee:ad:29:87:12:f9:d4:5f:9d:53:c1:b0:35:
                    b1:ea:22:7d:36:4b:ef:51:b0:28:02:11:71:20:0a:
                    92:dc:31:29:3a:dc:6e:e3:76:da:43:9a:dc:af:05:
                    52:4b:b8:df:26:ef:dc:54:50:16:9e:12:88:e8:d7:
                    80:c0:9d:66:86:02:90:0a:35:7d:52:e2:51:43:db:
                    8a:49:37:fb:84:f3:01:79:9e:31:3b:c6:a5:64:56:
                    04:bd:c5:34:90:7f:1d:a5:18:f9:90:ad:cb:08:0d:
                    85:14:14:13:40:e1:af:91:3b:8c:f9:ff:71:a0:e3:
                    59:d5
                Exponent: 65537 (0x10001)
        X509v3 extensions:
            X509v3 Basic Constraints: 
                CA:FALSE
            X509v3 Subject Key Identifier: 
                A0:B0:F9:E3:80:D5:AC:90:36:7A:03:E3:83:B1:26:34:1C:D5:E9:71
            X509v3 Authority Key Identifier: 
                keyid:BB:D2:AD:A5:9C:68:EF:03:FE:8D:42:F5:1D:6A:2F:B7:67:C7:39:FD
                DirName:/CN=team30-net
                serial:09:CE:A4:97:9F:93:33:EE:33:B9:F8:70:95:E7:6C:C4:F9:78:68:CA
            X509v3 Extended Key Usage: 
                TLS Web Client Authentication
            X509v3 Key Usage: 
                Digital Signature
    Signature Algorithm: sha256WithRSAEncryption
    Signature Value:
        57:53:73:f9:bd:eb:59:07:c4:59:ea:50:76:d9:7e:c3:ce:21:
        d0:84:c8:23:df:cd:b9:0a:f9:30:d1:01:a0:35:14:7a:2b:bd:
        89:cc:f5:0a:c4:dd:06:50:86:00:9a:49:25:58:a5:fd:e4:c6:
        e1:8f:6d:a9:8e:6e:ce:05:fd:a5:2e:40:53:5c:2b:83:41:72:
        62:fb:13:c8:3b:e2:de:87:56:53:36:9c:41:39:7e:13:13:ec:
        73:01:30:b9:2a:8d:b1:84:2d:35:81:03:15:70:9f:61:b1:a7:
        3a:ce:f0:15:ef:27:33:85:db:f0:48:02:f8:cd:0e:6e:97:16:
        8c:c3:46:54:a9:29:ec:67:7e:2a:42:5f:bd:0f:88:d9:83:b5:
        d8:2a:42:10:e5:0e:47:91:1c:a8:a3:85:85:6f:88:cf:9a:64:
        6b:90:e6:c3:ab:1b:90:a5:1c:d6:16:6a:97:ee:f5:92:81:b9:
        c5:c1:e7:19:0e:9e:11:2c:a0:d3:67:92:3e:01:e3:61:94:82:
        1e:c2:7c:29:00:af:c6:85:20:69:d4:06:b8:4c:c5:e5:fe:cb:
        3b:2d:cf:01:2e:ca:9f:8e:df:02:e8:47:0b:f8:36:a6:58:05:
        9e:e9:75:b3:f0:5f:7a:d5:79:8e:b0:67:37:f8:2b:84:5b:9a:
        2f:b2:1d:8b
-----BEGIN CERTIFICATE-----
MIIDWjCCAkKgAwIBAgIRAJVAbR8So4JSiIRcDZ2cHQAwDQYJKoZIhvcNAQELBQAw
FTETMBEGA1UEAwwKdGVhbTMwLW5ldDAeFw0yMzA0MjAyMjU0MTBaFw0yNjA0MDQy
MjU0MTBaMBgxFjAUBgNVBAMMDXRlYW0zMC1jbGllbnQwggEiMA0GCSqGSIb3DQEB
AQUAA4IBDwAwggEKAoIBAQCJfpO7f1Ho3IoRkLccG7UYnLh9Efdhsicmh+f5WO5x
j2jcEea88M60ZvOn1T57SvLatmyzu/pg4kF1mzPQBwb/Nqv60dBcldBcWWyKmaNB
AjhVMGWG3nF2wax8Q6hFJ80M+aiHv2klB3t8b78ShLxt40WwyawhBFRrpDmgH7Ii
sw+3uDsQlUtc7q0phxL51F+dU8GwNbHqIn02S+9RsCgCEXEgCpLcMSk63G7jdtpD
mtyvBVJLuN8m79xUUBaeEojo14DAnWaGApAKNX1S4lFD24pJN/uE8wF5njE7xqVk
VgS9xTSQfx2lGPmQrcsIDYUUFBNA4a+RO4z5/3Gg41nVAgMBAAGjgaEwgZ4wCQYD
VR0TBAIwADAdBgNVHQ4EFgQUoLD544DVrJA2egPjg7EmNBzV6XEwUAYDVR0jBEkw
R4AUu9KtpZxo7wP+jUL1HWovt2fHOf2hGaQXMBUxEzARBgNVBAMMCnRlYW0zMC1u
ZXSCFAnOpJefkzPuM7n4cJXnbMT5eGjKMBMGA1UdJQQMMAoGCCsGAQUFBwMCMAsG
A1UdDwQEAwIHgDANBgkqhkiG9w0BAQsFAAOCAQEAV1Nz+b3rWQfEWepQdtl+w84h
0ITII9/NuQr5MNEBoDUUeiu9icz1CsTdBlCGAJpJJVil/eTG4Y9tqY5uzgX9pS5A
U1wrg0FyYvsTyDvi3odWUzacQTl+ExPscwEwuSqNsYQtNYEDFXCfYbGnOs7wFe8n
M4Xb8EgC+M0ObpcWjMNGVKkp7Gd+KkJfvQ+I2YO12CpCEOUOR5EcqKOFhW+Iz5pk
a5Dmw6sbkKUc1hZql+71koG5xcHnGQ6eESyg02eSPgHjYZSCHsJ8KQCvxoUgadQG
uEzF5f7LOy3PAS7Kn47fAuhHC/g2plgFnul1s/BfetV5jrBnN/grhFuaL7Idiw==
-----END CERTIFICATE-----
