Certificate:
    Data:
        Version: 3 (0x2)
        Serial Number:
            e2:98:3c:45:1c:a5:b3:52:98:d1:2b:52:ae:49:99:45
        Signature Algorithm: sha256WithRSAEncryption
        Issuer: CN=team30-net
        Validity
            Not Before: Apr 20 22:54:10 2023 GMT
            Not After : Apr  4 22:54:10 2026 GMT
        Subject: CN=team30-server
        Subject Public Key Info:
            Public Key Algorithm: rsaEncryption
                Public-Key: (2048 bit)
                Modulus:
                    00:b8:12:5e:34:dd:c7:08:50:d8:16:39:c2:d5:7a:
                    0a:73:9d:da:e3:bd:db:2d:e3:7a:12:92:e3:0c:b2:
                    0b:cb:af:df:59:47:af:0f:1f:ad:3f:a0:80:71:37:
                    18:9d:a4:10:31:70:38:73:4c:97:3a:df:80:38:47:
                    73:1a:83:e2:8b:14:d4:d4:f6:b5:b4:e6:8f:be:f7:
                    28:0b:5d:8b:5f:62:b4:3f:9b:d4:16:dd:b5:18:df:
                    b6:14:cf:33:6a:fc:6e:c4:31:1b:7f:ec:bd:53:58:
                    ef:0c:cc:dc:ec:71:77:8f:d3:78:c5:9d:79:34:c7:
                    73:b7:a3:a4:cf:98:ff:71:91:70:36:bb:94:03:2a:
                    9b:e1:c6:cc:f4:2f:79:88:22:f2:b4:49:95:0e:ad:
                    0d:8d:04:e1:62:00:6b:40:4c:87:5a:fc:c1:62:d3:
                    c0:32:10:b6:4d:ae:92:8f:96:4c:58:87:eb:73:92:
                    eb:64:db:a8:8a:a3:5f:94:49:c5:95:29:e2:c8:aa:
                    34:5f:87:07:a0:c0:88:b6:e1:b6:f4:d0:7b:75:2c:
                    40:c4:d3:56:fd:fc:d1:52:dc:ac:a8:69:58:64:49:
                    f6:fa:38:93:1e:a0:e6:38:36:a3:bb:70:05:c6:41:
                    12:41:f6:10:71:ce:a5:c4:78:50:fe:b2:d3:77:19:
                    95:fb
                Exponent: 65537 (0x10001)
        X509v3 extensions:
            X509v3 Basic Constraints: 
                CA:FALSE
            X509v3 Subject Key Identifier: 
                CE:61:5A:11:16:32:32:DA:DD:D4:F1:46:48:56:8C:39:FA:63:E4:01
            X509v3 Authority Key Identifier: 
                keyid:BB:D2:AD:A5:9C:68:EF:03:FE:8D:42:F5:1D:6A:2F:B7:67:C7:39:FD
                DirName:/CN=team30-net
                serial:09:CE:A4:97:9F:93:33:EE:33:B9:F8:70:95:E7:6C:C4:F9:78:68:CA
            X509v3 Extended Key Usage: 
                TLS Web Server Authentication
            X509v3 Key Usage: 
                Digital Signature, Key Encipherment
            X509v3 Subject Alternative Name: 
                DNS:team30-server
    Signature Algorithm: sha256WithRSAEncryption
    Signature Value:
        af:85:a6:b6:79:5e:dc:1a:49:04:37:17:8b:f5:98:d2:b8:3b:
        15:c7:fa:39:1c:be:fe:a9:a1:00:22:19:42:76:02:8e:d0:20:
        c9:62:d0:15:48:9c:99:c8:13:57:61:13:05:4b:4b:b9:e1:7e:
        79:6a:75:c1:47:40:be:9a:20:ab:76:84:f0:43:8c:db:20:f8:
        20:ba:a4:02:c7:c7:fb:c9:98:1f:8f:33:12:e7:63:8b:34:98:
        ae:f8:f7:be:2b:12:11:ba:e4:c0:23:9c:82:c0:4b:d1:19:02:
        ad:ff:c0:cc:6d:e4:c3:37:59:c8:6d:b3:47:9f:be:52:30:c6:
        8b:cb:7a:8e:58:a4:fc:4a:cf:ff:84:72:b2:1c:b7:0d:ec:c6:
        66:bf:c8:69:2a:42:80:f2:88:a3:f7:4f:28:30:c0:b0:8c:56:
        a9:f5:15:ca:ae:21:0b:e4:88:53:87:f7:a9:dd:a0:e1:d4:9a:
        9b:f8:96:88:4e:c0:8f:e1:22:90:b6:e3:65:78:de:7d:15:3e:
        40:7c:07:35:b4:a0:ef:73:3e:6e:24:3a:b2:6e:84:97:d1:ba:
        13:54:0f:3a:5f:03:17:3d:91:a9:ab:51:67:da:84:fa:9e:53:
        7f:99:3f:d5:7e:ed:2e:a5:35:42:7e:31:1a:0a:93:e9:03:01:
        b8:fa:43:8f
-----BEGIN CERTIFICATE-----
MIIDdDCCAlygAwIBAgIRAOKYPEUcpbNSmNErUq5JmUUwDQYJKoZIhvcNAQELBQAw
FTETMBEGA1UEAwwKdGVhbTMwLW5ldDAeFw0yMzA0MjAyMjU0MTBaFw0yNjA0MDQy
MjU0MTBaMBgxFjAUBgNVBAMMDXRlYW0zMC1zZXJ2ZXIwggEiMA0GCSqGSIb3DQEB
AQUAA4IBDwAwggEKAoIBAQC4El403ccIUNgWOcLVegpzndrjvdst43oSkuMMsgvL
r99ZR68PH60/oIBxNxidpBAxcDhzTJc634A4R3Mag+KLFNTU9rW05o++9ygLXYtf
YrQ/m9QW3bUY37YUzzNq/G7EMRt/7L1TWO8MzNzscXeP03jFnXk0x3O3o6TPmP9x
kXA2u5QDKpvhxsz0L3mIIvK0SZUOrQ2NBOFiAGtATIda/MFi08AyELZNrpKPlkxY
h+tzkutk26iKo1+UScWVKeLIqjRfhwegwIi24bb00Ht1LEDE01b9/NFS3KyoaVhk
Sfb6OJMeoOY4NqO7cAXGQRJB9hBxzqXEeFD+stN3GZX7AgMBAAGjgbswgbgwCQYD
VR0TBAIwADAdBgNVHQ4EFgQUzmFaERYyMtrd1PFGSFaMOfpj5AEwUAYDVR0jBEkw
R4AUu9KtpZxo7wP+jUL1HWovt2fHOf2hGaQXMBUxEzARBgNVBAMMCnRlYW0zMC1u
ZXSCFAnOpJefkzPuM7n4cJXnbMT5eGjKMBMGA1UdJQQMMAoGCCsGAQUFBwMBMAsG
A1UdDwQEAwIFoDAYBgNVHREEETAPgg10ZWFtMzAtc2VydmVyMA0GCSqGSIb3DQEB
CwUAA4IBAQCvhaa2eV7cGkkENxeL9ZjSuDsVx/o5HL7+qaEAIhlCdgKO0CDJYtAV
SJyZyBNXYRMFS0u54X55anXBR0C+miCrdoTwQ4zbIPgguqQCx8f7yZgfjzMS52OL
NJiu+Pe+KxIRuuTAI5yCwEvRGQKt/8DMbeTDN1nIbbNHn75SMMaLy3qOWKT8Ss//
hHKyHLcN7MZmv8hpKkKA8oij908oMMCwjFap9RXKriEL5IhTh/ep3aDh1Jqb+JaI
TsCP4SKQtuNleN59FT5AfAc1tKDvcz5uJDqyboSX0boTVA86XwMXPZGpq1Fn2oT6
nlN/mT/Vfu0upTVCfjEaCpPpAwG4+kOP
-----END CERTIFICATE-----
