Certificate:
    Data:
        Version: 3 (0x2)
        Serial Number:
            c4:62:c2:5e:4a:28:e6:9c:fc:56:42:86:6f:03:04:c2
        Signature Algorithm: sha256WithRSAEncryption
        Issuer: CN=team23-net
        Validity
            Not Before: Apr 20 00:10:29 2023 GMT
            Not After : Apr  4 00:10:29 2026 GMT
        Subject: CN=team23-server
        Subject Public Key Info:
            Public Key Algorithm: rsaEncryption
                Public-Key: (2048 bit)
                Modulus:
                    00:bf:8b:f2:af:9a:e2:6f:9d:ec:d0:46:73:95:39:
                    b9:1e:1d:c0:b8:c9:9e:61:f6:88:2e:5b:e3:4d:65:
                    cd:93:e1:ca:eb:33:6b:4f:12:d3:a4:c5:7b:4e:1e:
                    d0:d2:ef:43:1d:8a:6f:78:b2:e1:75:0d:73:57:60:
                    f1:86:4d:85:20:1d:60:de:39:8d:e5:73:1f:85:95:
                    5e:dd:32:72:a5:8b:ce:9a:70:ab:9e:a0:79:43:82:
                    27:b6:70:4f:42:5c:a8:49:df:f1:bb:4f:d2:e7:64:
                    a6:c5:0b:16:46:95:c0:1d:89:38:03:d5:15:61:0e:
                    7d:f5:16:1d:5f:4f:99:28:3a:db:69:17:f1:e9:38:
                    34:73:d4:ab:6b:82:db:94:86:dd:f9:be:83:5e:54:
                    3e:3f:54:68:f6:1b:a3:1a:9c:a2:c4:1f:a0:ff:79:
                    fa:10:ce:88:3d:96:cd:0f:51:34:8f:20:34:48:35:
                    7f:9c:d1:c2:a3:39:c1:48:41:66:97:c3:93:9a:16:
                    c0:63:30:fa:c8:8d:58:c2:4a:72:a6:f7:60:fa:87:
                    02:7a:4e:80:b9:83:3b:df:c9:30:45:bc:5b:a6:f7:
                    e0:b6:e6:69:b4:32:ac:e7:a3:db:17:ee:6a:fb:f1:
                    f5:e0:c7:98:8c:cd:79:2b:72:a4:0b:4b:1b:97:11:
                    18:2b
                Exponent: 65537 (0x10001)
        X509v3 extensions:
            X509v3 Basic Constraints: 
                CA:FALSE
            X509v3 Subject Key Identifier: 
                29:D9:6B:4E:B9:F3:6A:55:95:E8:C5:8E:CA:0C:7D:F8:FC:B2:B0:17
            X509v3 Authority Key Identifier: 
                keyid:26:B8:2D:BE:45:0F:CF:14:44:4D:06:7A:6D:51:77:64:59:07:7F:86
                DirName:/CN=team23-net
                serial:36:06:0B:DB:1A:37:39:AB:2E:23:E3:AD:88:87:3E:22:E0:66:F1:60
            X509v3 Extended Key Usage: 
                TLS Web Server Authentication
            X509v3 Key Usage: 
                Digital Signature, Key Encipherment
            X509v3 Subject Alternative Name: 
                DNS:team23-server
    Signature Algorithm: sha256WithRSAEncryption
    Signature Value:
        35:f2:f4:c0:28:10:82:81:90:4a:ac:70:ea:7d:b0:53:81:12:
        76:81:ca:2a:ed:0d:da:ac:5b:f9:bf:d5:3c:b7:0f:c5:79:f9:
        b7:93:82:87:a7:04:51:d1:c1:84:fa:95:46:3d:6b:a7:bc:2f:
        99:45:1b:6d:51:8e:da:e5:66:c5:bb:96:c9:2f:cd:16:dd:be:
        da:1e:cb:1b:d0:46:6c:22:39:c0:fb:a7:a2:f0:fc:8f:ff:b8:
        d6:b4:70:9a:ef:df:25:52:11:f3:d0:22:d3:96:d7:2b:46:e1:
        de:64:8e:94:c1:77:3e:2a:0f:fc:95:b9:a9:e1:24:e5:f7:a6:
        a1:3c:28:02:4b:ba:c6:a6:c1:e8:a0:94:52:eb:e6:85:cf:39:
        ed:6a:e5:56:a9:b0:d0:e4:e3:2c:81:16:7c:d2:f0:b6:c3:5a:
        97:71:e1:4b:48:1d:ce:8e:d5:ed:45:89:a2:6d:ae:e3:f4:dc:
        db:c4:c7:d4:0b:c3:ed:3b:25:17:e6:e3:1b:73:25:f6:25:be:
        71:12:62:e9:e1:b4:13:2d:1a:3d:e5:b2:69:9d:37:78:fb:42:
        a3:a3:87:b3:b2:e8:06:e8:75:7e:b4:29:be:64:ee:68:9a:2a:
        ff:84:02:fd:a2:7e:34:6d:15:4f:87:55:a5:02:05:9e:cf:1e:
        47:1b:9d:c4
-----BEGIN CERTIFICATE-----
MIIDdDCCAlygAwIBAgIRAMRiwl5KKOac/FZChm8DBMIwDQYJKoZIhvcNAQELBQAw
FTETMBEGA1UEAwwKdGVhbTIzLW5ldDAeFw0yMzA0MjAwMDEwMjlaFw0yNjA0MDQw
MDEwMjlaMBgxFjAUBgNVBAMMDXRlYW0yMy1zZXJ2ZXIwggEiMA0GCSqGSIb3DQEB
AQUAA4IBDwAwggEKAoIBAQC/i/KvmuJvnezQRnOVObkeHcC4yZ5h9oguW+NNZc2T
4crrM2tPEtOkxXtOHtDS70Mdim94suF1DXNXYPGGTYUgHWDeOY3lcx+FlV7dMnKl
i86acKueoHlDgie2cE9CXKhJ3/G7T9LnZKbFCxZGlcAdiTgD1RVhDn31Fh1fT5ko
OttpF/HpODRz1KtrgtuUht35voNeVD4/VGj2G6ManKLEH6D/efoQzog9ls0PUTSP
IDRINX+c0cKjOcFIQWaXw5OaFsBjMPrIjVjCSnKm92D6hwJ6ToC5gzvfyTBFvFum
9+C25mm0Mqzno9sX7mr78fXgx5iMzXkrcqQLSxuXERgrAgMBAAGjgbswgbgwCQYD
VR0TBAIwADAdBgNVHQ4EFgQUKdlrTrnzalWV6MWOygx9+PyysBcwUAYDVR0jBEkw
R4AUJrgtvkUPzxRETQZ6bVF3ZFkHf4ahGaQXMBUxEzARBgNVBAMMCnRlYW0yMy1u
ZXSCFDYGC9saNzmrLiPjrYiHPiLgZvFgMBMGA1UdJQQMMAoGCCsGAQUFBwMBMAsG
A1UdDwQEAwIFoDAYBgNVHREEETAPgg10ZWFtMjMtc2VydmVyMA0GCSqGSIb3DQEB
CwUAA4IBAQA18vTAKBCCgZBKrHDqfbBTgRJ2gcoq7Q3arFv5v9U8tw/Fefm3k4KH
pwRR0cGE+pVGPWunvC+ZRRttUY7a5WbFu5bJL80W3b7aHssb0EZsIjnA+6ei8PyP
/7jWtHCa798lUhHz0CLTltcrRuHeZI6UwXc+Kg/8lbmp4STl96ahPCgCS7rGpsHo
oJRS6+aFzzntauVWqbDQ5OMsgRZ80vC2w1qXceFLSB3OjtXtRYmiba7j9NzbxMfU
C8PtOyUX5uMbcyX2Jb5xEmLp4bQTLRo95bJpnTd4+0Kjo4ezsugG6HV+tCm+ZO5o
mir/hAL9on40bRVPh1WlAgWezx5HG53E
-----END CERTIFICATE-----
