Certificate:
    Data:
        Version: 3 (0x2)
        Serial Number:
            04:49:d6:8b:65:de:fe:a0:0c:76:a6:c9:04:90:74:7e
        Signature Algorithm: sha256WithRSAEncryption
        Issuer: CN=team16-net
        Validity
            Not Before: Apr 20 22:53:47 2023 GMT
            Not After : Apr  4 22:53:47 2026 GMT
        Subject: CN=team16-server
        Subject Public Key Info:
            Public Key Algorithm: rsaEncryption
                Public-Key: (2048 bit)
                Modulus:
                    00:b2:4d:45:04:e6:61:43:88:9a:f0:d1:a2:2f:97:
                    30:b5:7d:e7:0f:16:73:dd:6a:b0:cc:b9:e1:a2:3f:
                    55:04:74:3e:4b:8a:40:bc:b3:bc:17:0e:25:7b:e2:
                    6e:dd:bc:8a:4e:bd:a9:07:04:ac:6c:72:f3:95:98:
                    24:bf:2b:4d:15:c8:21:da:39:84:29:40:80:83:2e:
                    bb:25:72:db:f5:94:7b:86:ef:88:0d:97:64:c8:31:
                    77:c5:53:e8:e3:85:be:5c:fd:28:7c:f5:f5:7c:b2:
                    8d:8f:c4:a8:7c:5e:e4:7d:c2:b8:df:ef:91:2f:f9:
                    28:62:e9:e8:8c:2b:41:8a:60:39:1f:d8:8d:c6:54:
                    52:09:ca:1a:f1:f3:d8:cc:b5:2a:54:9e:85:9a:98:
                    b0:39:a3:b5:0d:15:45:89:01:4f:13:55:c5:36:30:
                    a8:fd:5a:fe:d0:46:ad:c4:b6:79:31:0d:19:d6:ee:
                    d4:fc:0c:c1:1e:6b:30:c3:ca:57:77:10:aa:06:1b:
                    b6:58:f4:1a:1c:96:bf:31:2a:04:4a:8d:3a:0b:20:
                    97:a9:b6:e0:e0:a0:2f:56:8c:b6:06:b7:0c:39:8a:
                    92:41:8c:a1:fa:6d:e5:f4:2b:28:3e:be:d5:48:e3:
                    3d:63:88:53:f5:36:40:2a:dc:6a:a3:76:82:d6:25:
                    c6:03
                Exponent: 65537 (0x10001)
        X509v3 extensions:
            X509v3 Basic Constraints: 
                CA:FALSE
            X509v3 Subject Key Identifier: 
                B2:4B:10:AF:6C:E6:CC:0C:EF:69:32:AE:29:AA:38:84:81:52:9C:A6
            X509v3 Authority Key Identifier: 
                keyid:C0:C3:03:49:AE:F6:A9:85:BD:F2:86:F7:48:D3:F2:C2:1C:08:9C:79
                DirName:/CN=team16-net
                serial:4B:50:DE:C0:E6:70:1D:72:26:43:0F:60:42:7E:FE:59:82:9F:3D:3B
            X509v3 Extended Key Usage: 
                TLS Web Server Authentication
            X509v3 Key Usage: 
                Digital Signature, Key Encipherment
            X509v3 Subject Alternative Name: 
                DNS:team16-server
    Signature Algorithm: sha256WithRSAEncryption
    Signature Value:
        0e:d4:17:00:ea:43:6a:3c:cc:88:27:43:12:2b:74:a3:03:cf:
        3c:50:3e:e3:14:aa:7e:5b:62:c6:00:c9:c0:da:5c:cb:60:42:
        63:85:12:33:4f:b3:ac:7f:ad:77:f3:95:c5:1d:ea:32:2f:fd:
        d2:68:e4:ec:94:8f:bd:c5:6b:3c:b7:d5:cc:41:d5:eb:8e:47:
        ab:a1:de:23:a9:73:20:14:64:57:e1:87:71:ed:8c:d6:5a:4c:
        56:4b:29:b0:f1:17:4b:2b:af:79:fd:4d:6f:02:d5:ff:fa:d8:
        c4:f6:bd:39:e0:f8:77:81:ec:68:cb:48:bb:56:fc:c9:8c:fc:
        00:bf:b9:2d:20:6d:3d:8e:e9:d7:03:59:f3:20:cb:21:7e:30:
        ee:23:8f:bc:0b:fe:da:9e:20:32:86:09:4d:1e:4a:6c:c9:97:
        46:6e:32:3a:49:72:66:c9:6e:0b:ff:ae:fa:87:b0:df:7e:67:
        81:f5:5e:2c:41:25:ef:c4:00:01:17:86:79:ce:ee:26:e9:7e:
        1d:37:dd:84:21:f0:01:67:4b:ff:6c:65:f0:f0:aa:e0:4d:d2:
        25:33:01:7c:1b:10:7c:7f:27:f1:30:bd:67:25:b2:16:ad:94:
        41:06:62:4d:61:dc:c1:42:12:a1:9d:af:02:31:ab:34:22:89:
        2e:f3:80:f5
-----BEGIN CERTIFICATE-----
MIIDczCCAlugAwIBAgIQBEnWi2Xe/qAMdqbJBJB0fjANBgkqhkiG9w0BAQsFADAV
MRMwEQYDVQQDDAp0ZWFtMTYtbmV0MB4XDTIzMDQyMDIyNTM0N1oXDTI2MDQwNDIy
NTM0N1owGDEWMBQGA1UEAwwNdGVhbTE2LXNlcnZlcjCCASIwDQYJKoZIhvcNAQEB
BQADggEPADCCAQoCggEBALJNRQTmYUOImvDRoi+XMLV95w8Wc91qsMy54aI/VQR0
PkuKQLyzvBcOJXvibt28ik69qQcErGxy85WYJL8rTRXIIdo5hClAgIMuuyVy2/WU
e4bviA2XZMgxd8VT6OOFvlz9KHz19XyyjY/EqHxe5H3CuN/vkS/5KGLp6IwrQYpg
OR/YjcZUUgnKGvHz2My1KlSehZqYsDmjtQ0VRYkBTxNVxTYwqP1a/tBGrcS2eTEN
Gdbu1PwMwR5rMMPKV3cQqgYbtlj0GhyWvzEqBEqNOgsgl6m24OCgL1aMtga3DDmK
kkGMofpt5fQrKD6+1UjjPWOIU/U2QCrcaqN2gtYlxgMCAwEAAaOBuzCBuDAJBgNV
HRMEAjAAMB0GA1UdDgQWBBSySxCvbObMDO9pMq4pqjiEgVKcpjBQBgNVHSMESTBH
gBTAwwNJrvaphb3yhvdI0/LCHAiceaEZpBcwFTETMBEGA1UEAwwKdGVhbTE2LW5l
dIIUS1DewOZwHXImQw9gQn7+WYKfPTswEwYDVR0lBAwwCgYIKwYBBQUHAwEwCwYD
VR0PBAQDAgWgMBgGA1UdEQQRMA+CDXRlYW0xNi1zZXJ2ZXIwDQYJKoZIhvcNAQEL
BQADggEBAA7UFwDqQ2o8zIgnQxIrdKMDzzxQPuMUqn5bYsYAycDaXMtgQmOFEjNP
s6x/rXfzlcUd6jIv/dJo5OyUj73Fazy31cxB1euOR6uh3iOpcyAUZFfhh3HtjNZa
TFZLKbDxF0srr3n9TW8C1f/62MT2vTng+HeB7GjLSLtW/MmM/AC/uS0gbT2O6dcD
WfMgyyF+MO4jj7wL/tqeIDKGCU0eSmzJl0ZuMjpJcmbJbgv/rvqHsN9+Z4H1XixB
Je/EAAEXhnnO7ibpfh033YQh8AFnS/9sZfDwquBN0iUzAXwbEHx/J/EwvWclshat
lEEGYk1h3MFCEqGdrwIxqzQiiS7zgPU=
-----END CERTIFICATE-----
