Certificate:
    Data:
        Version: 3 (0x2)
        Serial Number:
            43:6e:b2:5d:4a:dc:ce:8d:5e:a1:fb:3a:2a:86:63:8b
        Signature Algorithm: sha256WithRSAEncryption
        Issuer: CN=team16-net
        Validity
            Not Before: Apr 20 00:10:17 2023 GMT
            Not After : Apr  4 00:10:17 2026 GMT
        Subject: CN=team16-client
        Subject Public Key Info:
            Public Key Algorithm: rsaEncryption
                Public-Key: (2048 bit)
                Modulus:
                    00:c2:dd:5e:58:75:7c:fb:fd:11:24:f0:01:3f:07:
                    c6:d4:65:7f:38:4d:a1:a7:b6:b5:c2:08:fb:82:34:
                    26:b7:44:4a:67:cc:0f:73:24:b0:e1:6b:fd:44:b2:
                    31:be:5a:31:ec:5b:c3:96:c5:f9:9b:f1:81:40:60:
                    aa:88:18:61:7e:d3:af:44:22:b1:1f:76:9a:4a:fc:
                    4c:3b:45:64:e0:95:89:c0:69:f1:a6:85:5a:21:65:
                    86:44:0e:3d:8b:d0:5e:9a:da:0f:83:da:55:9f:f7:
                    08:d1:ba:3a:a5:9b:2c:65:70:2f:d4:0b:26:c5:36:
                    ca:57:62:24:30:cb:87:d8:39:0e:e7:0c:df:92:77:
                    4d:a9:da:8e:af:f8:07:32:b4:20:ec:1f:49:a2:3b:
                    f3:43:67:34:ff:30:f3:fc:2b:a1:bb:e0:6d:3b:85:
                    2d:30:ae:bb:6e:ea:24:7f:ec:1d:42:d3:77:20:47:
                    20:4b:ed:6f:86:b8:f6:07:c7:1e:db:24:d2:d7:62:
                    a1:f5:f6:16:8a:9e:1e:74:de:f7:e0:cd:cc:69:16:
                    8a:73:13:2b:8e:6d:b3:2e:8e:48:a8:5f:ac:7a:7a:
                    d0:db:df:d6:25:90:a1:d1:40:0e:bd:4e:6c:52:b5:
                    00:b4:c5:45:77:c0:69:14:5a:1d:ea:4e:77:15:ba:
                    ac:df
                Exponent: 65537 (0x10001)
        X509v3 extensions:
            X509v3 Basic Constraints: 
                CA:FALSE
            X509v3 Subject Key Identifier: 
                05:25:8F:85:C3:2B:19:01:C1:17:AA:71:3B:DD:07:08:AC:2E:61:85
            X509v3 Authority Key Identifier: 
                keyid:5A:B1:A9:F8:7F:D2:50:6E:37:B7:85:DB:1F:FF:84:38:19:DD:4F:BD
                DirName:/CN=team16-net
                serial:2F:EC:B9:B0:78:99:72:98:1B:A3:E8:7B:5A:08:92:45:CF:05:15:F4
            X509v3 Extended Key Usage: 
                TLS Web Client Authentication
            X509v3 Key Usage: 
                Digital Signature
    Signature Algorithm: sha256WithRSAEncryption
    Signature Value:
        48:0a:e3:c5:05:6d:f8:a9:ae:ff:45:0c:d4:42:3f:02:03:39:
        89:a0:99:45:e9:2e:c9:f3:bd:8d:93:e5:94:ca:23:cb:ae:09:
        a6:41:38:35:ff:36:e2:0b:bb:52:4f:cd:ee:9c:60:36:3a:81:
        e0:cf:24:40:89:50:2e:15:ce:6c:b9:77:71:57:f8:97:41:a0:
        30:e7:b5:6f:b2:12:2d:1a:59:8d:6e:30:3c:59:23:a3:68:12:
        6e:36:65:b3:a5:65:c7:55:fe:53:46:6c:ba:82:eb:b1:e2:7e:
        f8:65:87:05:37:11:cf:83:c7:e6:17:10:48:84:6a:7c:e3:44:
        27:76:f7:2f:9e:eb:c5:34:af:6e:7c:d6:b8:62:cb:6d:a7:b5:
        9d:c7:fd:a9:52:34:f6:89:a5:0d:47:0a:7f:c1:64:e3:e3:ad:
        d1:10:56:93:7d:b0:c4:91:19:93:ad:af:2f:e6:bd:78:22:34:
        31:f9:56:b2:77:12:c7:85:fa:36:9f:46:18:82:35:08:4e:86:
        30:33:2c:e7:fb:08:82:50:a9:49:a6:93:ea:e8:c5:d7:b5:48:
        29:92:28:8f:c1:31:aa:8e:dc:0c:8c:17:e7:d1:d6:20:69:a2:
        6b:6a:72:e9:e0:57:c8:e6:cf:fb:4e:f3:63:a2:3e:2c:61:a7:
        e3:a1:41:3c
-----BEGIN CERTIFICATE-----
MIIDWTCCAkGgAwIBAgIQQ26yXUrczo1eofs6KoZjizANBgkqhkiG9w0BAQsFADAV
MRMwEQYDVQQDDAp0ZWFtMTYtbmV0MB4XDTIzMDQyMDAwMTAxN1oXDTI2MDQwNDAw
MTAxN1owGDEWMBQGA1UEAwwNdGVhbTE2LWNsaWVudDCCASIwDQYJKoZIhvcNAQEB
BQADggEPADCCAQoCggEBAMLdXlh1fPv9ESTwAT8HxtRlfzhNoae2tcII+4I0JrdE
SmfMD3MksOFr/USyMb5aMexbw5bF+ZvxgUBgqogYYX7Tr0QisR92mkr8TDtFZOCV
icBp8aaFWiFlhkQOPYvQXpraD4PaVZ/3CNG6OqWbLGVwL9QLJsU2yldiJDDLh9g5
DucM35J3Tanajq/4BzK0IOwfSaI780NnNP8w8/wrobvgbTuFLTCuu27qJH/sHULT
dyBHIEvtb4a49gfHHtsk0tdiofX2FoqeHnTe9+DNzGkWinMTK45tsy6OSKhfrHp6
0Nvf1iWQodFADr1ObFK1ALTFRXfAaRRaHepOdxW6rN8CAwEAAaOBoTCBnjAJBgNV
HRMEAjAAMB0GA1UdDgQWBBQFJY+FwysZAcEXqnE73QcIrC5hhTBQBgNVHSMESTBH
gBRasan4f9JQbje3hdsf/4Q4Gd1PvaEZpBcwFTETMBEGA1UEAwwKdGVhbTE2LW5l
dIIUL+y5sHiZcpgbo+h7WgiSRc8FFfQwEwYDVR0lBAwwCgYIKwYBBQUHAwIwCwYD
VR0PBAQDAgeAMA0GCSqGSIb3DQEBCwUAA4IBAQBICuPFBW34qa7/RQzUQj8CAzmJ
oJlF6S7J872Nk+WUyiPLrgmmQTg1/zbiC7tST83unGA2OoHgzyRAiVAuFc5suXdx
V/iXQaAw57VvshItGlmNbjA8WSOjaBJuNmWzpWXHVf5TRmy6guux4n74ZYcFNxHP
g8fmFxBIhGp840QndvcvnuvFNK9ufNa4Ysttp7Wdx/2pUjT2iaUNRwp/wWTj463R
EFaTfbDEkRmTra8v5r14IjQx+VaydxLHhfo2n0YYgjUIToYwMyzn+wiCUKlJppPq
6MXXtUgpkiiPwTGqjtwMjBfn0dYgaaJranLp4FfI5s/7TvNjoj4sYafjoUE8
-----END CERTIFICATE-----
