Certificate:
    Data:
        Version: 3 (0x2)
        Serial Number:
            73:3b:99:ce:63:d8:07:73:c1:9f:45:96:ec:63:ae:5d
        Signature Algorithm: sha256WithRSAEncryption
        Issuer: CN=team16-net
        Validity
            Not Before: Apr 20 22:53:46 2023 GMT
            Not After : Apr  4 22:53:46 2026 GMT
        Subject: CN=team16-client
        Subject Public Key Info:
            Public Key Algorithm: rsaEncryption
                Public-Key: (2048 bit)
                Modulus:
                    00:d2:57:f7:6a:25:0b:00:49:44:a8:c1:79:0b:ca:
                    b8:ea:e0:eb:7d:b4:64:60:f3:34:dd:ee:73:e6:45:
                    1f:f3:e1:fa:95:86:ce:2d:08:3c:5e:2c:b1:30:d0:
                    d1:18:ed:5e:20:92:25:a1:54:af:11:88:38:f0:44:
                    46:74:96:4c:99:28:3f:9f:e9:7a:a4:1b:f5:e9:e9:
                    91:60:5c:63:b9:be:29:fc:6f:68:69:41:d8:59:20:
                    be:0b:a7:04:7d:e4:10:6a:80:72:22:9c:1a:a4:20:
                    25:c9:9e:03:9a:7a:33:ca:25:b6:98:c8:a2:4d:13:
                    1a:f8:66:9a:2c:1a:d8:74:92:e2:72:b0:8f:cf:c4:
                    09:bc:03:f0:63:28:3b:63:94:05:16:af:9d:9d:09:
                    c3:01:c8:bd:94:16:be:72:d4:62:b3:97:2f:c4:fc:
                    d7:f7:37:24:bd:1a:39:bb:db:fb:70:e0:04:ce:d7:
                    1e:8f:e5:5e:f7:44:6a:52:97:21:24:5f:93:28:b7:
                    98:86:23:0c:1b:87:91:34:bf:7d:62:c9:4d:a2:39:
                    2b:96:48:82:df:7f:23:56:c6:e8:02:e2:07:18:3c:
                    12:fa:aa:4c:77:7b:a2:ed:ca:f4:da:d9:42:37:00:
                    57:c1:9d:ed:a5:da:c6:56:60:01:af:e4:96:8d:36:
                    44:07
                Exponent: 65537 (0x10001)
        X509v3 extensions:
            X509v3 Basic Constraints: 
                CA:FALSE
            X509v3 Subject Key Identifier: 
                57:8B:16:29:CF:66:9C:0B:A8:C2:1B:EB:33:16:76:1B:E6:A3:91:05
            X509v3 Authority Key Identifier: 
                keyid:C0:C3:03:49:AE:F6:A9:85:BD:F2:86:F7:48:D3:F2:C2:1C:08:9C:79
                DirName:/CN=team16-net
                serial:4B:50:DE:C0:E6:70:1D:72:26:43:0F:60:42:7E:FE:59:82:9F:3D:3B
            X509v3 Extended Key Usage: 
                TLS Web Client Authentication
            X509v3 Key Usage: 
                Digital Signature
    Signature Algorithm: sha256WithRSAEncryption
    Signature Value:
        ba:2e:48:8e:4b:83:5d:8b:14:31:48:26:28:75:bd:98:75:ba:
        cf:3b:28:ed:1e:25:fb:b5:c8:31:23:b5:59:1c:30:84:a4:39:
        2d:0c:84:12:ae:a1:ac:35:5e:6b:21:e9:c5:dd:6f:a3:6d:b0:
        ee:5a:36:4c:77:cd:98:91:b8:21:8e:15:7f:ec:d3:3d:99:f8:
        c1:33:39:0e:e9:80:89:2a:bb:01:da:28:d6:f3:fb:3a:7e:5f:
        20:84:1e:7d:25:98:49:8c:46:bb:72:f8:3c:db:88:c3:5f:2b:
        8b:5b:18:a1:17:25:48:61:42:8d:17:c0:d0:f0:98:60:5d:ae:
        52:b7:f1:c1:82:58:3c:17:93:68:62:7a:a4:a6:00:c1:c5:21:
        b3:cb:8b:2f:47:9b:fc:95:ff:f4:75:2b:ce:d3:af:50:de:d3:
        3e:98:40:8e:78:7d:7e:79:70:cc:01:7d:83:a2:25:02:a4:00:
        68:6b:c6:4c:bc:10:0f:d3:a9:1b:d6:5d:a6:4f:67:62:a0:a4:
        54:df:1c:31:b7:17:b0:2a:02:71:66:71:de:00:0f:69:a3:10:
        c6:8c:fd:f3:e0:ff:96:fa:99:11:b1:51:81:7c:a9:81:3d:a8:
        c1:58:97:46:fa:17:7f:76:6c:74:7d:0b:e0:5b:9f:f2:f2:5e:
        73:64:4a:56
-----BEGIN CERTIFICATE-----
MIIDWTCCAkGgAwIBAgIQczuZzmPYB3PBn0WW7GOuXTANBgkqhkiG9w0BAQsFADAV
MRMwEQYDVQQDDAp0ZWFtMTYtbmV0MB4XDTIzMDQyMDIyNTM0NloXDTI2MDQwNDIy
NTM0NlowGDEWMBQGA1UEAwwNdGVhbTE2LWNsaWVudDCCASIwDQYJKoZIhvcNAQEB
BQADggEPADCCAQoCggEBANJX92olCwBJRKjBeQvKuOrg6320ZGDzNN3uc+ZFH/Ph
+pWGzi0IPF4ssTDQ0RjtXiCSJaFUrxGIOPBERnSWTJkoP5/peqQb9enpkWBcY7m+
KfxvaGlB2FkgvgunBH3kEGqAciKcGqQgJcmeA5p6M8oltpjIok0TGvhmmiwa2HSS
4nKwj8/ECbwD8GMoO2OUBRavnZ0JwwHIvZQWvnLUYrOXL8T81/c3JL0aObvb+3Dg
BM7XHo/lXvdEalKXISRfkyi3mIYjDBuHkTS/fWLJTaI5K5ZIgt9/I1bG6ALiBxg8
EvqqTHd7ou3K9NrZQjcAV8Gd7aXaxlZgAa/klo02RAcCAwEAAaOBoTCBnjAJBgNV
HRMEAjAAMB0GA1UdDgQWBBRXixYpz2acC6jCG+szFnYb5qORBTBQBgNVHSMESTBH
gBTAwwNJrvaphb3yhvdI0/LCHAiceaEZpBcwFTETMBEGA1UEAwwKdGVhbTE2LW5l
dIIUS1DewOZwHXImQw9gQn7+WYKfPTswEwYDVR0lBAwwCgYIKwYBBQUHAwIwCwYD
VR0PBAQDAgeAMA0GCSqGSIb3DQEBCwUAA4IBAQC6LkiOS4NdixQxSCYodb2YdbrP
OyjtHiX7tcgxI7VZHDCEpDktDIQSrqGsNV5rIenF3W+jbbDuWjZMd82YkbghjhV/
7NM9mfjBMzkO6YCJKrsB2ijW8/s6fl8ghB59JZhJjEa7cvg824jDXyuLWxihFyVI
YUKNF8DQ8JhgXa5St/HBglg8F5NoYnqkpgDBxSGzy4svR5v8lf/0dSvO069Q3tM+
mECOeH1+eXDMAX2DoiUCpABoa8ZMvBAP06kb1l2mT2dioKRU3xwxtxewKgJxZnHe
AA9poxDGjP3z4P+W+pkRsVGBfKmBPajBWJdG+hd/dmx0fQvgW5/y8l5zZEpW
-----END CERTIFICATE-----
