Certificate:
    Data:
        Version: 3 (0x2)
        Serial Number:
            f5:b3:2c:5e:87:72:69:03:27:02:0b:55:9e:9b:f9:96
        Signature Algorithm: sha256WithRSAEncryption
        Issuer: CN=team52-net
        Validity
            Not Before: Apr 20 00:11:09 2023 GMT
            Not After : Apr  4 00:11:09 2026 GMT
        Subject: CN=team52-client
        Subject Public Key Info:
            Public Key Algorithm: rsaEncryption
                Public-Key: (2048 bit)
                Modulus:
                    00:e3:bb:43:12:7c:be:46:db:80:81:d2:90:19:8f:
                    a4:ba:f5:de:92:67:cf:57:76:43:da:20:0e:05:a7:
                    e1:8d:ef:62:12:e5:ff:19:9e:5d:b2:14:c3:a1:c7:
                    cf:aa:3d:e4:5c:0b:d0:f6:f6:11:54:4a:db:d3:1e:
                    a6:24:a0:de:2e:ed:cf:bc:ca:78:7a:61:be:de:0c:
                    bd:2c:b4:bf:54:18:b6:9e:4a:59:7a:bf:b2:07:95:
                    fc:e3:09:a5:98:c3:61:6a:4a:1d:d4:76:6b:de:11:
                    e4:60:d8:61:b0:8a:78:0d:35:b9:56:8d:38:2f:70:
                    60:f0:bc:46:39:ec:e1:75:0e:e6:68:5d:a4:31:58:
                    85:39:57:14:90:33:3d:4a:c2:67:7e:0d:50:e3:81:
                    47:92:f7:bf:35:93:e7:9b:9d:09:51:a8:97:3d:88:
                    d2:97:04:3f:32:46:2c:6d:f5:0a:52:8e:8e:48:df:
                    f1:9c:50:93:7a:6c:90:3d:90:c9:16:46:39:5c:e1:
                    d3:19:3f:97:6e:aa:df:7c:61:1a:3f:da:98:3a:38:
                    09:3c:4a:b9:65:94:59:8c:33:34:3c:43:1b:70:43:
                    64:e7:da:7b:cf:ca:dc:1d:16:ca:06:73:13:99:b3:
                    b7:ce:3f:f4:5e:74:22:61:7c:df:66:cb:a0:72:be:
                    02:71
                Exponent: 65537 (0x10001)
        X509v3 extensions:
            X509v3 Basic Constraints: 
                CA:FALSE
            X509v3 Subject Key Identifier: 
                90:89:33:29:3E:03:E2:E3:E4:82:5E:48:21:88:0B:D0:AC:A5:10:E4
            X509v3 Authority Key Identifier: 
                keyid:BC:76:3C:99:69:0A:31:EE:BE:7D:E6:61:12:80:B9:57:95:FC:F5:8B
                DirName:/CN=team52-net
                serial:31:4E:64:31:E7:D1:A2:AA:44:45:CB:D7:16:8C:2C:BA:ED:2B:87:86
            X509v3 Extended Key Usage: 
                TLS Web Client Authentication
            X509v3 Key Usage: 
                Digital Signature
    Signature Algorithm: sha256WithRSAEncryption
    Signature Value:
        c1:36:c5:73:f3:cc:6d:2c:de:6a:44:e9:ed:ad:c3:3c:2b:c8:
        44:07:2e:81:c9:9f:b2:d5:19:26:69:2a:47:4d:be:e4:cc:8d:
        e2:f1:05:5e:18:50:d6:2a:8f:4e:d6:aa:34:ea:df:e3:97:42:
        a5:91:9d:11:fa:b4:c3:d2:f8:65:19:e2:2a:35:fc:2c:58:48:
        47:ea:c2:6e:1f:d6:9f:aa:ea:2c:e7:da:54:08:86:67:7f:82:
        05:12:d8:ee:7b:9b:b8:3a:3d:8e:0e:c3:6b:54:7b:b8:55:70:
        06:bd:55:54:3a:4d:15:a7:de:fb:97:8c:7a:8b:3b:3b:c5:b2:
        ca:e5:73:a0:2b:0c:54:36:9c:03:9d:ce:8e:f2:94:bf:fd:5d:
        75:12:f7:fc:a1:d5:e5:15:5e:e3:ca:80:21:99:80:fd:9a:59:
        c4:7c:d6:b4:ef:ed:4d:09:26:78:c9:a3:02:0d:f2:64:e2:9f:
        a1:4f:90:ee:3a:ed:59:5e:0e:b8:1e:28:27:76:19:f1:f4:c9:
        1f:5b:15:80:69:2b:1b:bf:60:3d:1e:1c:75:53:39:e7:9f:ca:
        d0:2b:7c:a2:e4:3a:b7:fe:08:58:e0:11:74:bc:53:75:fd:a8:
        53:de:3f:5d:85:4e:a8:60:84:0a:3d:28:8e:fa:47:56:96:b5:
        1b:81:1a:1d
-----BEGIN CERTIFICATE-----
MIIDWjCCAkKgAwIBAgIRAPWzLF6HcmkDJwILVZ6b+ZYwDQYJKoZIhvcNAQELBQAw
FTETMBEGA1UEAwwKdGVhbTUyLW5ldDAeFw0yMzA0MjAwMDExMDlaFw0yNjA0MDQw
MDExMDlaMBgxFjAUBgNVBAMMDXRlYW01Mi1jbGllbnQwggEiMA0GCSqGSIb3DQEB
AQUAA4IBDwAwggEKAoIBAQDju0MSfL5G24CB0pAZj6S69d6SZ89XdkPaIA4Fp+GN
72IS5f8Znl2yFMOhx8+qPeRcC9D29hFUStvTHqYkoN4u7c+8ynh6Yb7eDL0stL9U
GLaeSll6v7IHlfzjCaWYw2FqSh3UdmveEeRg2GGwingNNblWjTgvcGDwvEY57OF1
DuZoXaQxWIU5VxSQMz1Kwmd+DVDjgUeS9781k+ebnQlRqJc9iNKXBD8yRixt9QpS
jo5I3/GcUJN6bJA9kMkWRjlc4dMZP5duqt98YRo/2pg6OAk8SrlllFmMMzQ8Qxtw
Q2Tn2nvPytwdFsoGcxOZs7fOP/RedCJhfN9my6ByvgJxAgMBAAGjgaEwgZ4wCQYD
VR0TBAIwADAdBgNVHQ4EFgQUkIkzKT4D4uPkgl5IIYgL0KylEOQwUAYDVR0jBEkw
R4AUvHY8mWkKMe6+feZhEoC5V5X89YuhGaQXMBUxEzARBgNVBAMMCnRlYW01Mi1u
ZXSCFDFOZDHn0aKqREXL1xaMLLrtK4eGMBMGA1UdJQQMMAoGCCsGAQUFBwMCMAsG
A1UdDwQEAwIHgDANBgkqhkiG9w0BAQsFAAOCAQEAwTbFc/PMbSzeakTp7a3DPCvI
RAcugcmfstUZJmkqR02+5MyN4vEFXhhQ1iqPTtaqNOrf45dCpZGdEfq0w9L4ZRni
KjX8LFhIR+rCbh/Wn6rqLOfaVAiGZ3+CBRLY7nubuDo9jg7Da1R7uFVwBr1VVDpN
Fafe+5eMeos7O8WyyuVzoCsMVDacA53OjvKUv/1ddRL3/KHV5RVe48qAIZmA/ZpZ
xHzWtO/tTQkmeMmjAg3yZOKfoU+Q7jrtWV4OuB4oJ3YZ8fTJH1sVgGkrG79gPR4c
dVM555/K0Ct8ouQ6t/4IWOARdLxTdf2oU94/XYVOqGCECj0ojvpHVpa1G4EaHQ==
-----END CERTIFICATE-----
