Certificate:
    Data:
        Version: 3 (0x2)
        Serial Number:
            c1:6e:06:11:35:a8:ef:f2:31:6f:85:50:f8:a3:11:31
        Signature Algorithm: sha256WithRSAEncryption
        Issuer: CN=team54-net
        Validity
            Not Before: Apr 20 00:11:12 2023 GMT
            Not After : Apr  4 00:11:12 2026 GMT
        Subject: CN=team54-server
        Subject Public Key Info:
            Public Key Algorithm: rsaEncryption
                Public-Key: (2048 bit)
                Modulus:
                    00:dc:c0:bb:0a:15:11:44:d9:07:fa:7d:56:14:3b:
                    41:b0:03:70:9d:61:0a:16:49:04:b9:14:1f:28:c5:
                    6c:c2:70:e4:0a:14:a7:89:c4:e5:95:d5:3b:e8:8f:
                    74:06:8f:81:72:ec:a6:51:1c:9f:ea:d6:07:be:db:
                    7c:00:32:4b:60:bf:85:24:5a:e7:9a:8e:a4:df:9b:
                    ea:24:f1:a2:95:a4:6a:c6:7c:7a:3b:66:21:2e:91:
                    57:20:39:fa:12:77:c6:16:8d:a0:7c:87:15:50:dc:
                    3d:37:ee:d4:88:c1:b1:96:d6:9a:83:7f:88:aa:58:
                    8b:18:9f:a1:0b:1e:6b:65:14:30:71:d2:f1:df:3c:
                    fd:74:1d:38:1d:db:44:a0:4a:50:7b:77:95:e6:2a:
                    17:30:7c:e9:4c:8a:97:25:d9:0b:39:0a:23:4c:9a:
                    b3:b0:01:db:78:03:23:68:b9:92:df:1f:60:7d:cc:
                    6e:cd:fa:9d:ef:38:59:3d:61:8a:6a:f1:ea:5d:79:
                    de:db:a5:c6:98:1f:d0:d8:fe:14:bb:dd:5c:e3:73:
                    08:93:81:64:31:1c:6a:bd:af:b0:b6:85:d5:69:84:
                    32:8e:c7:d7:17:09:f5:ec:e1:54:fd:b5:1a:39:e9:
                    75:37:ce:34:a7:52:1e:ae:05:02:17:5c:82:1a:cd:
                    fb:83
                Exponent: 65537 (0x10001)
        X509v3 extensions:
            X509v3 Basic Constraints: 
                CA:FALSE
            X509v3 Subject Key Identifier: 
                93:6B:30:A7:2A:8F:29:58:99:D9:C8:30:7B:3F:FC:E5:05:64:15:92
            X509v3 Authority Key Identifier: 
                keyid:5D:CF:5D:06:74:58:C7:A8:6D:66:9E:11:E7:5C:8F:D0:1C:03:06:B5
                DirName:/CN=team54-net
                serial:38:9C:22:75:07:E7:A0:60:AD:B8:6B:66:DE:3D:1C:E3:86:AF:D6:99
            X509v3 Extended Key Usage: 
                TLS Web Server Authentication
            X509v3 Key Usage: 
                Digital Signature, Key Encipherment
            X509v3 Subject Alternative Name: 
                DNS:team54-server
    Signature Algorithm: sha256WithRSAEncryption
    Signature Value:
        bb:62:cd:82:1f:58:62:3b:0d:8e:48:c5:b5:9d:05:ee:22:60:
        70:b1:49:37:7e:21:1b:72:8f:05:34:fd:f1:3b:c1:0d:80:30:
        b5:10:bc:f1:68:8f:f9:e3:27:e3:dd:c7:a2:67:ca:c8:d8:a3:
        57:66:0b:17:d4:d2:6a:06:05:f3:73:2e:0d:e8:44:bb:af:1c:
        4b:e5:a5:16:0f:81:03:1e:36:e0:5e:fe:24:e9:f7:0d:24:f1:
        4b:d9:31:67:8d:51:2c:d9:00:86:c7:93:78:f0:9e:fa:20:29:
        b9:d5:bc:bc:6c:e2:09:88:83:d1:5a:e3:e7:7f:04:1e:16:58:
        c2:cf:c0:1a:b3:ab:84:15:2a:ca:f7:e3:64:2c:d0:07:cd:c4:
        d6:92:3e:03:58:b1:9d:53:6e:02:14:cd:8b:7a:92:c3:0c:af:
        4e:e3:d0:0c:b6:9b:d9:bb:82:02:ed:7a:d9:f4:12:70:c2:87:
        43:92:99:7b:71:ac:b6:b0:4f:f3:be:24:76:bc:21:51:d0:27:
        17:ee:0a:74:27:eb:89:bc:43:14:b0:d5:c6:7a:73:6c:b8:ab:
        8b:c9:a9:6c:35:e1:6d:dd:25:ed:4e:bc:0b:16:39:3d:8f:68:
        37:bb:e7:d0:32:2c:cf:70:19:89:7a:30:05:a0:1a:a4:9e:16:
        63:18:97:5b
-----BEGIN CERTIFICATE-----
MIIDdDCCAlygAwIBAgIRAMFuBhE1qO/yMW+FUPijETEwDQYJKoZIhvcNAQELBQAw
FTETMBEGA1UEAwwKdGVhbTU0LW5ldDAeFw0yMzA0MjAwMDExMTJaFw0yNjA0MDQw
MDExMTJaMBgxFjAUBgNVBAMMDXRlYW01NC1zZXJ2ZXIwggEiMA0GCSqGSIb3DQEB
AQUAA4IBDwAwggEKAoIBAQDcwLsKFRFE2Qf6fVYUO0GwA3CdYQoWSQS5FB8oxWzC
cOQKFKeJxOWV1Tvoj3QGj4Fy7KZRHJ/q1ge+23wAMktgv4UkWueajqTfm+ok8aKV
pGrGfHo7ZiEukVcgOfoSd8YWjaB8hxVQ3D037tSIwbGW1pqDf4iqWIsYn6ELHmtl
FDBx0vHfPP10HTgd20SgSlB7d5XmKhcwfOlMipcl2Qs5CiNMmrOwAdt4AyNouZLf
H2B9zG7N+p3vOFk9YYpq8epded7bpcaYH9DY/hS73VzjcwiTgWQxHGq9r7C2hdVp
hDKOx9cXCfXs4VT9tRo56XU3zjSnUh6uBQIXXIIazfuDAgMBAAGjgbswgbgwCQYD
VR0TBAIwADAdBgNVHQ4EFgQUk2swpyqPKViZ2cgwez/85QVkFZIwUAYDVR0jBEkw
R4AUXc9dBnRYx6htZp4R51yP0BwDBrWhGaQXMBUxEzARBgNVBAMMCnRlYW01NC1u
ZXSCFDicInUH56BgrbhrZt49HOOGr9aZMBMGA1UdJQQMMAoGCCsGAQUFBwMBMAsG
A1UdDwQEAwIFoDAYBgNVHREEETAPgg10ZWFtNTQtc2VydmVyMA0GCSqGSIb3DQEB
CwUAA4IBAQC7Ys2CH1hiOw2OSMW1nQXuImBwsUk3fiEbco8FNP3xO8ENgDC1ELzx
aI/54yfj3ceiZ8rI2KNXZgsX1NJqBgXzcy4N6ES7rxxL5aUWD4EDHjbgXv4k6fcN
JPFL2TFnjVEs2QCGx5N48J76ICm51by8bOIJiIPRWuPnfwQeFljCz8Aas6uEFSrK
9+NkLNAHzcTWkj4DWLGdU24CFM2LepLDDK9O49AMtpvZu4IC7XrZ9BJwwodDkpl7
cay2sE/zviR2vCFR0CcX7gp0J+uJvEMUsNXGenNsuKuLyalsNeFt3SXtTrwLFjk9
j2g3u+fQMizPcBmJejAFoBqknhZjGJdb
-----END CERTIFICATE-----
