Certificate:
    Data:
        Version: 3 (0x2)
        Serial Number:
            2c:df:e5:d4:b8:6b:cd:2f:cc:35:9a:d1:cf:75:3c:2b
        Signature Algorithm: sha256WithRSAEncryption
        Issuer: CN=team44-net
        Validity
            Not Before: Apr 20 00:10:58 2023 GMT
            Not After : Apr  4 00:10:58 2026 GMT
        Subject: CN=team44-client
        Subject Public Key Info:
            Public Key Algorithm: rsaEncryption
                Public-Key: (2048 bit)
                Modulus:
                    00:dd:00:51:c4:e2:7c:a6:bf:19:bd:14:29:fe:49:
                    ca:ac:90:a2:c5:0c:c9:a4:fb:33:95:b6:1d:da:cc:
                    27:e9:df:d6:ac:41:97:77:67:f5:0e:4a:6e:bd:cf:
                    d5:1e:b4:04:8e:1d:24:f3:86:4d:9e:5d:f4:70:ae:
                    8e:19:85:27:b1:6c:b1:b0:d1:c3:d6:46:ee:54:ad:
                    eb:1a:d1:d9:31:6d:56:0a:c7:e5:a4:e0:79:2a:f0:
                    7a:61:01:86:f0:5a:8a:12:1d:7c:16:c3:2d:53:22:
                    bc:9d:88:2e:ab:83:a4:2e:1e:c7:c5:bf:c6:95:b5:
                    05:59:fc:ed:a9:b4:43:91:84:fb:93:fb:39:89:ac:
                    f6:df:80:db:6b:44:a9:4b:00:98:d7:3c:82:b7:a6:
                    d9:11:e1:90:0b:c0:15:24:5a:3b:94:1a:9c:ff:fb:
                    01:27:1a:1e:07:3e:57:fe:3e:df:ff:44:f4:82:ff:
                    fd:e9:7b:95:d1:da:fa:91:24:01:45:b7:31:e1:d5:
                    e4:f5:ab:84:36:6c:71:fb:b8:62:8b:83:43:ec:09:
                    1e:54:f0:e8:dd:9e:5c:37:7d:6d:ea:fc:ee:b4:1b:
                    d2:46:49:2e:b2:dc:e8:c9:57:14:97:91:cb:f0:63:
                    43:32:92:20:96:95:39:24:a6:01:d4:1a:c5:f3:2f:
                    45:c1
                Exponent: 65537 (0x10001)
        X509v3 extensions:
            X509v3 Basic Constraints: 
                CA:FALSE
            X509v3 Subject Key Identifier: 
                5B:84:89:D5:91:58:C1:98:11:19:4C:93:74:F7:84:FE:05:6A:08:45
            X509v3 Authority Key Identifier: 
                keyid:15:E3:FA:51:F6:40:D8:E9:10:D5:00:70:75:17:60:CA:26:ED:FC:DC
                DirName:/CN=team44-net
                serial:55:59:D2:B7:43:52:CD:19:76:24:9F:EF:04:25:B6:50:76:70:05:05
            X509v3 Extended Key Usage: 
                TLS Web Client Authentication
            X509v3 Key Usage: 
                Digital Signature
    Signature Algorithm: sha256WithRSAEncryption
    Signature Value:
        32:5a:e5:4a:61:e7:e6:49:59:7d:3f:8f:5c:a0:f8:47:54:9f:
        e9:88:1f:db:13:e5:75:82:50:46:cf:be:43:6a:3f:00:05:10:
        4d:41:d8:77:e6:99:fb:1f:a5:a2:32:de:5e:f2:06:86:7d:46:
        5f:24:29:ff:26:7d:67:fc:af:c4:6d:3d:dd:68:90:7f:bb:84:
        5e:7d:d6:79:7c:0f:58:fb:ef:6e:27:7f:4e:ef:01:17:e9:cd:
        72:18:c4:f1:74:0c:fa:a6:74:cc:20:80:85:8f:0b:1b:b8:33:
        53:8f:79:0c:c0:d6:ad:c0:cb:80:06:02:32:b5:cf:23:96:22:
        13:46:a2:ce:c3:0b:c1:8e:1c:34:39:01:45:85:97:eb:c7:c9:
        ac:fc:2c:dd:e0:42:f5:84:f9:db:70:41:cf:37:ea:43:37:0a:
        40:05:ee:8f:d4:61:d2:b3:a4:8f:a5:20:a5:80:6c:d0:64:bd:
        15:f7:41:6a:91:ad:5b:f3:b3:9d:2d:d4:84:52:40:d8:f0:cf:
        12:9e:f9:a1:82:95:05:03:fb:e8:f3:cb:e1:43:d0:0f:60:ea:
        97:0b:b6:aa:65:52:6e:06:04:e2:ee:6f:61:fc:fa:8e:72:6c:
        cf:1d:4b:05:1e:2e:7a:cf:d3:2d:c0:08:e8:9f:ac:95:32:eb:
        60:6d:c5:1e
-----BEGIN CERTIFICATE-----
MIIDWTCCAkGgAwIBAgIQLN/l1LhrzS/MNZrRz3U8KzANBgkqhkiG9w0BAQsFADAV
MRMwEQYDVQQDDAp0ZWFtNDQtbmV0MB4XDTIzMDQyMDAwMTA1OFoXDTI2MDQwNDAw
MTA1OFowGDEWMBQGA1UEAwwNdGVhbTQ0LWNsaWVudDCCASIwDQYJKoZIhvcNAQEB
BQADggEPADCCAQoCggEBAN0AUcTifKa/Gb0UKf5JyqyQosUMyaT7M5W2HdrMJ+nf
1qxBl3dn9Q5Kbr3P1R60BI4dJPOGTZ5d9HCujhmFJ7FssbDRw9ZG7lSt6xrR2TFt
VgrH5aTgeSrwemEBhvBaihIdfBbDLVMivJ2ILquDpC4ex8W/xpW1BVn87am0Q5GE
+5P7OYms9t+A22tEqUsAmNc8grem2RHhkAvAFSRaO5QanP/7AScaHgc+V/4+3/9E
9IL//el7ldHa+pEkAUW3MeHV5PWrhDZscfu4YouDQ+wJHlTw6N2eXDd9ber87rQb
0kZJLrLc6MlXFJeRy/BjQzKSIJaVOSSmAdQaxfMvRcECAwEAAaOBoTCBnjAJBgNV
HRMEAjAAMB0GA1UdDgQWBBRbhInVkVjBmBEZTJN094T+BWoIRTBQBgNVHSMESTBH
gBQV4/pR9kDY6RDVAHB1F2DKJu383KEZpBcwFTETMBEGA1UEAwwKdGVhbTQ0LW5l
dIIUVVnSt0NSzRl2JJ/vBCW2UHZwBQUwEwYDVR0lBAwwCgYIKwYBBQUHAwIwCwYD
VR0PBAQDAgeAMA0GCSqGSIb3DQEBCwUAA4IBAQAyWuVKYefmSVl9P49coPhHVJ/p
iB/bE+V1glBGz75Daj8ABRBNQdh35pn7H6WiMt5e8gaGfUZfJCn/Jn1n/K/EbT3d
aJB/u4RefdZ5fA9Y++9uJ39O7wEX6c1yGMTxdAz6pnTMIICFjwsbuDNTj3kMwNat
wMuABgIytc8jliITRqLOwwvBjhw0OQFFhZfrx8ms/Czd4EL1hPnbcEHPN+pDNwpA
Be6P1GHSs6SPpSClgGzQZL0V90Fqka1b87OdLdSEUkDY8M8SnvmhgpUFA/vo88vh
Q9APYOqXC7aqZVJuBgTi7m9h/PqOcmzPHUsFHi56z9MtwAjon6yVMutgbcUe
-----END CERTIFICATE-----
