Certificate:
    Data:
        Version: 3 (0x2)
        Serial Number:
            2e:1b:b9:f8:a7:6f:11:ea:97:06:95:4d:78:2d:0c:c0
        Signature Algorithm: sha256WithRSAEncryption
        Issuer: CN=team44-net
        Validity
            Not Before: Apr 20 22:54:33 2023 GMT
            Not After : Apr  4 22:54:33 2026 GMT
        Subject: CN=team44-client
        Subject Public Key Info:
            Public Key Algorithm: rsaEncryption
                Public-Key: (2048 bit)
                Modulus:
                    00:b7:3d:82:14:10:94:9d:a7:a5:3d:4a:c6:6b:2c:
                    cd:74:32:a8:13:b0:cd:86:40:71:ce:72:db:1f:39:
                    7e:a9:42:1b:15:61:58:20:d2:a9:99:2e:94:1a:cd:
                    fa:14:ea:72:a7:56:69:95:53:11:5f:cf:7b:a6:37:
                    7b:9f:98:8d:1b:d0:31:27:41:53:82:eb:70:f1:6c:
                    3f:f0:d5:61:91:bf:37:ae:41:9c:0f:3c:87:30:8b:
                    cf:49:dd:ad:b2:31:e8:e5:09:06:4e:b1:e2:96:6e:
                    6c:28:84:84:70:f9:ea:a8:0a:2f:25:cb:a9:6e:70:
                    7c:00:6b:f5:ef:18:d5:41:f5:0c:04:4d:ad:38:fb:
                    49:2d:d6:9d:71:cb:1f:d7:3e:e2:56:75:f5:da:c3:
                    51:60:28:50:e4:24:d9:49:99:93:9e:77:b1:9f:69:
                    63:f2:d3:dd:f5:22:00:50:1d:07:50:3a:78:e8:76:
                    62:db:20:51:68:97:b7:61:7f:88:b9:5d:ff:c3:e2:
                    9b:48:d1:9d:96:fe:e9:d8:cc:ce:b8:c5:e9:4b:d3:
                    1a:c5:75:96:d4:8e:b6:4c:38:a6:6c:8a:73:d1:17:
                    38:e7:ba:44:e1:7d:67:27:fc:bd:8b:34:f5:b8:f3:
                    71:25:21:8f:0e:4b:03:16:71:a0:bf:92:2b:6e:4b:
                    70:9f
                Exponent: 65537 (0x10001)
        X509v3 extensions:
            X509v3 Basic Constraints: 
                CA:FALSE
            X509v3 Subject Key Identifier: 
                34:C7:8F:30:79:5E:17:2F:CA:FE:50:09:8D:01:46:35:39:D4:F9:BE
            X509v3 Authority Key Identifier: 
                keyid:C3:2A:B1:DC:AF:A6:45:C8:A7:D0:92:C2:DB:82:F0:22:44:5D:50:61
                DirName:/CN=team44-net
                serial:3B:63:7A:98:3B:8F:F7:1D:E5:34:58:43:50:F3:1F:94:0E:C5:87:CE
            X509v3 Extended Key Usage: 
                TLS Web Client Authentication
            X509v3 Key Usage: 
                Digital Signature
    Signature Algorithm: sha256WithRSAEncryption
    Signature Value:
        07:07:42:d7:20:6f:26:f3:f9:e8:9e:35:e6:dc:aa:d7:03:f5:
        5e:60:28:42:09:c3:fd:86:2e:c7:92:09:0a:b0:1d:8b:4e:fc:
        50:54:79:17:38:2f:c9:3c:ab:28:b1:51:ad:0a:52:7e:92:4c:
        6c:3c:52:08:53:c9:8d:36:c2:bf:43:c2:13:78:a2:4f:e3:54:
        be:7d:2f:c8:74:88:4f:94:37:7a:ce:16:70:af:83:e4:ff:18:
        67:d5:23:ab:cf:bc:fa:48:4b:9e:30:f2:58:84:38:b2:70:5b:
        5f:5d:f5:3a:7f:4a:3a:ae:1b:7d:c8:ef:1e:49:7d:73:4f:cb:
        e2:c4:08:78:17:85:5c:0c:48:03:27:97:11:ad:19:3f:cb:af:
        12:a6:9e:07:de:36:34:a4:5e:f5:77:e7:f8:39:c7:d6:08:69:
        80:ca:77:ea:4f:74:73:bd:56:df:d0:d1:c1:de:cc:b7:8f:07:
        c8:80:71:51:02:fd:64:6d:1f:f9:06:ab:ff:71:d4:44:dd:63:
        f0:77:b8:72:cf:78:89:ba:d5:64:06:78:39:b3:17:c2:2e:76:
        6a:8f:57:59:35:e8:9c:46:f1:cf:e6:2e:d6:69:39:73:97:e9:
        06:fc:d1:d2:af:00:16:2b:25:0e:1b:5c:cd:69:52:72:10:e5:
        52:d9:c6:43
-----BEGIN CERTIFICATE-----
MIIDWTCCAkGgAwIBAgIQLhu5+KdvEeqXBpVNeC0MwDANBgkqhkiG9w0BAQsFADAV
MRMwEQYDVQQDDAp0ZWFtNDQtbmV0MB4XDTIzMDQyMDIyNTQzM1oXDTI2MDQwNDIy
NTQzM1owGDEWMBQGA1UEAwwNdGVhbTQ0LWNsaWVudDCCASIwDQYJKoZIhvcNAQEB
BQADggEPADCCAQoCggEBALc9ghQQlJ2npT1KxmsszXQyqBOwzYZAcc5y2x85fqlC
GxVhWCDSqZkulBrN+hTqcqdWaZVTEV/Pe6Y3e5+YjRvQMSdBU4LrcPFsP/DVYZG/
N65BnA88hzCLz0ndrbIx6OUJBk6x4pZubCiEhHD56qgKLyXLqW5wfABr9e8Y1UH1
DARNrTj7SS3WnXHLH9c+4lZ19drDUWAoUOQk2UmZk553sZ9pY/LT3fUiAFAdB1A6
eOh2YtsgUWiXt2F/iLld/8Pim0jRnZb+6djMzrjF6UvTGsV1ltSOtkw4pmyKc9EX
OOe6ROF9Zyf8vYs09bjzcSUhjw5LAxZxoL+SK25LcJ8CAwEAAaOBoTCBnjAJBgNV
HRMEAjAAMB0GA1UdDgQWBBQ0x48weV4XL8r+UAmNAUY1OdT5vjBQBgNVHSMESTBH
gBTDKrHcr6ZFyKfQksLbgvAiRF1QYaEZpBcwFTETMBEGA1UEAwwKdGVhbTQ0LW5l
dIIUO2N6mDuP9x3lNFhDUPMflA7Fh84wEwYDVR0lBAwwCgYIKwYBBQUHAwIwCwYD
VR0PBAQDAgeAMA0GCSqGSIb3DQEBCwUAA4IBAQAHB0LXIG8m8/nonjXm3KrXA/Ve
YChCCcP9hi7HkgkKsB2LTvxQVHkXOC/JPKsosVGtClJ+kkxsPFIIU8mNNsK/Q8IT
eKJP41S+fS/IdIhPlDd6zhZwr4Pk/xhn1SOrz7z6SEueMPJYhDiycFtfXfU6f0o6
rht9yO8eSX1zT8vixAh4F4VcDEgDJ5cRrRk/y68Spp4H3jY0pF71d+f4OcfWCGmA
ynfqT3RzvVbf0NHB3sy3jwfIgHFRAv1kbR/5Bqv/cdRE3WPwd7hyz3iJutVkBng5
sxfCLnZqj1dZNeicRvHP5i7WaTlzl+kG/NHSrwAWKyUOG1zNaVJyEOVS2cZD
-----END CERTIFICATE-----
