Certificate:
    Data:
        Version: 3 (0x2)
        Serial Number:
            cd:30:cb:b6:cb:c0:27:31:b5:50:f8:4c:00:c1:77:d4
        Signature Algorithm: sha256WithRSAEncryption
        Issuer: CN=team44-net
        Validity
            Not Before: Apr 20 00:10:59 2023 GMT
            Not After : Apr  4 00:10:59 2026 GMT
        Subject: CN=team44-server
        Subject Public Key Info:
            Public Key Algorithm: rsaEncryption
                Public-Key: (2048 bit)
                Modulus:
                    00:b7:0f:69:6c:b6:10:ad:93:df:cc:d7:2e:34:79:
                    f5:04:30:38:6d:09:7f:1f:4b:84:5e:c6:2a:9d:ef:
                    8e:39:a8:cb:02:f0:c5:7b:f2:3f:1e:e8:6b:fd:03:
                    47:c4:10:e1:0f:06:0e:5b:6f:71:80:8e:0e:3e:4f:
                    53:86:19:05:e5:35:d1:d2:5b:ad:c1:ff:5f:7a:3d:
                    ba:38:56:e3:ec:92:d6:60:b0:4f:03:b1:36:18:1e:
                    5b:9d:ac:b7:34:87:a5:41:79:36:09:ad:aa:bc:c7:
                    06:74:8e:a9:cf:0a:a7:b1:bd:d3:2a:a7:d9:96:12:
                    ff:a6:68:45:5b:b5:37:04:5f:c6:92:f3:12:26:f4:
                    bb:ce:de:b2:6f:ed:9d:b0:0c:08:46:06:6c:1f:2f:
                    1b:d5:c6:00:d8:cd:92:dd:3d:9d:1a:d0:42:ea:0e:
                    a4:3c:a5:b0:2a:3d:da:cc:10:0a:8b:d9:1f:24:f8:
                    07:24:74:ca:16:24:42:d4:0b:ab:8f:0d:c4:60:2c:
                    a4:c1:c2:21:40:49:93:7f:fd:8e:da:69:da:dc:fa:
                    60:42:b1:ec:66:58:2f:a3:28:c5:83:a1:15:f2:5e:
                    b5:ad:4b:df:9a:d0:0d:17:2a:42:9c:bf:47:af:6b:
                    3c:8b:b3:2e:d1:ae:f1:9a:e0:d9:26:77:f2:d2:ba:
                    8a:cb
                Exponent: 65537 (0x10001)
        X509v3 extensions:
            X509v3 Basic Constraints: 
                CA:FALSE
            X509v3 Subject Key Identifier: 
                92:FD:AF:9A:E9:55:ED:B5:7E:A2:C1:12:2F:92:B5:42:DF:D6:06:A5
            X509v3 Authority Key Identifier: 
                keyid:15:E3:FA:51:F6:40:D8:E9:10:D5:00:70:75:17:60:CA:26:ED:FC:DC
                DirName:/CN=team44-net
                serial:55:59:D2:B7:43:52:CD:19:76:24:9F:EF:04:25:B6:50:76:70:05:05
            X509v3 Extended Key Usage: 
                TLS Web Server Authentication
            X509v3 Key Usage: 
                Digital Signature, Key Encipherment
            X509v3 Subject Alternative Name: 
                DNS:team44-server
    Signature Algorithm: sha256WithRSAEncryption
    Signature Value:
        87:ba:77:06:eb:dc:4f:74:80:71:5d:23:8d:3a:da:45:63:97:
        b5:ae:12:b3:26:42:60:c5:a3:cd:77:65:c1:f3:fa:f6:bd:9b:
        57:d9:e0:d3:d7:a0:6e:23:cc:b0:d0:ca:49:de:2d:c1:98:04:
        5d:b6:d9:c6:82:da:10:fb:0c:cd:2c:12:92:a6:1f:0e:20:f2:
        70:a4:7e:d9:61:04:31:4c:6f:8d:11:cf:2c:7b:e4:98:c4:0f:
        5c:d5:69:0b:6f:dc:3e:3a:c7:4d:aa:fb:38:44:2c:4e:f2:ba:
        35:b6:9f:f5:d2:da:1f:be:8e:be:79:b4:64:c4:1e:81:6b:f9:
        82:33:42:cd:d7:8e:1d:0e:19:db:95:0a:61:12:a6:e6:f7:d1:
        fd:bf:fd:b1:51:25:b5:9c:8d:bd:72:28:fa:20:af:76:09:e2:
        bd:0f:96:c7:aa:35:f9:b4:ff:f4:18:79:73:2a:c8:fa:b4:39:
        0b:82:c9:0d:f0:33:86:44:0c:34:88:01:00:7c:c7:e0:fc:b8:
        f1:1c:dc:01:86:d5:00:25:ad:e8:d1:b9:6c:5e:6e:12:0f:65:
        47:cc:4f:c8:ee:13:6c:c3:c4:eb:44:56:54:ba:0d:27:9f:6e:
        ed:60:be:4d:13:41:ff:a5:d7:62:f9:45:83:18:72:ea:59:10:
        c0:2d:ad:c4
-----BEGIN CERTIFICATE-----
MIIDdDCCAlygAwIBAgIRAM0wy7bLwCcxtVD4TADBd9QwDQYJKoZIhvcNAQELBQAw
FTETMBEGA1UEAwwKdGVhbTQ0LW5ldDAeFw0yMzA0MjAwMDEwNTlaFw0yNjA0MDQw
MDEwNTlaMBgxFjAUBgNVBAMMDXRlYW00NC1zZXJ2ZXIwggEiMA0GCSqGSIb3DQEB
AQUAA4IBDwAwggEKAoIBAQC3D2lsthCtk9/M1y40efUEMDhtCX8fS4Rexiqd7445
qMsC8MV78j8e6Gv9A0fEEOEPBg5bb3GAjg4+T1OGGQXlNdHSW63B/196Pbo4VuPs
ktZgsE8DsTYYHludrLc0h6VBeTYJraq8xwZ0jqnPCqexvdMqp9mWEv+maEVbtTcE
X8aS8xIm9LvO3rJv7Z2wDAhGBmwfLxvVxgDYzZLdPZ0a0ELqDqQ8pbAqPdrMEAqL
2R8k+AckdMoWJELUC6uPDcRgLKTBwiFASZN//Y7aadrc+mBCsexmWC+jKMWDoRXy
XrWtS9+a0A0XKkKcv0evazyLsy7RrvGa4Nkmd/LSuorLAgMBAAGjgbswgbgwCQYD
VR0TBAIwADAdBgNVHQ4EFgQUkv2vmulV7bV+osESL5K1Qt/WBqUwUAYDVR0jBEkw
R4AUFeP6UfZA2OkQ1QBwdRdgyibt/NyhGaQXMBUxEzARBgNVBAMMCnRlYW00NC1u
ZXSCFFVZ0rdDUs0ZdiSf7wQltlB2cAUFMBMGA1UdJQQMMAoGCCsGAQUFBwMBMAsG
A1UdDwQEAwIFoDAYBgNVHREEETAPgg10ZWFtNDQtc2VydmVyMA0GCSqGSIb3DQEB
CwUAA4IBAQCHuncG69xPdIBxXSONOtpFY5e1rhKzJkJgxaPNd2XB8/r2vZtX2eDT
16BuI8yw0MpJ3i3BmARdttnGgtoQ+wzNLBKSph8OIPJwpH7ZYQQxTG+NEc8se+SY
xA9c1WkLb9w+OsdNqvs4RCxO8ro1tp/10tofvo6+ebRkxB6Ba/mCM0LN144dDhnb
lQphEqbm99H9v/2xUSW1nI29cij6IK92CeK9D5bHqjX5tP/0GHlzKsj6tDkLgskN
8DOGRAw0iAEAfMfg/LjxHNwBhtUAJa3o0blsXm4SD2VHzE/I7hNsw8TrRFZUug0n
n27tYL5NE0H/pddi+UWDGHLqWRDALa3E
-----END CERTIFICATE-----
