Certificate:
    Data:
        Version: 3 (0x2)
        Serial Number:
            0b:13:5c:97:43:02:76:2a:f8:b0:97:69:80:60:3b:4e
        Signature Algorithm: sha256WithRSAEncryption
        Issuer: CN=team12-net
        Validity
            Not Before: Apr 20 22:53:41 2023 GMT
            Not After : Apr  4 22:53:41 2026 GMT
        Subject: CN=team12-server
        Subject Public Key Info:
            Public Key Algorithm: rsaEncryption
                Public-Key: (2048 bit)
                Modulus:
                    00:ac:c1:40:dc:ab:b0:c1:04:1a:a1:28:1d:f7:55:
                    73:c7:00:32:2d:ae:d1:36:f3:ca:a3:d6:90:94:73:
                    7b:77:d4:be:9f:fa:7e:b9:68:02:e5:eb:69:10:05:
                    35:5c:1b:d4:d7:10:d3:be:b8:15:a8:b9:76:d7:22:
                    50:17:e2:b0:e3:80:61:ec:0e:67:72:8a:22:bf:4d:
                    63:0d:c3:a2:78:b8:84:fb:99:ad:ae:0f:3a:1b:b4:
                    8b:91:d2:54:1d:0b:45:d3:31:8d:90:f0:a4:b0:8e:
                    20:cf:08:79:25:17:c1:7c:f4:d2:84:ec:f7:cf:5a:
                    b6:c1:c2:ad:8f:d0:a5:a3:cb:11:9a:69:6e:cf:60:
                    a9:e4:57:80:d6:8a:39:7d:cd:c5:19:07:53:99:a6:
                    4a:ba:83:89:28:b1:25:ca:6a:6a:06:e8:be:b4:ad:
                    c1:c6:d1:18:fc:c1:cb:65:b0:4f:b4:ed:06:9f:54:
                    3c:9d:ef:29:9c:3d:20:fb:34:b0:15:1e:e1:99:ad:
                    1e:25:9b:36:1d:56:34:33:e9:bb:06:e1:2b:e1:0e:
                    76:2f:37:41:84:87:ab:5c:cc:ee:25:e4:1e:32:c2:
                    3f:df:d6:71:9f:5a:0d:fb:c1:38:33:4c:38:ff:54:
                    57:6a:11:15:bc:16:80:14:77:35:1e:fa:71:a4:f4:
                    15:af
                Exponent: 65537 (0x10001)
        X509v3 extensions:
            X509v3 Basic Constraints: 
                CA:FALSE
            X509v3 Subject Key Identifier: 
                F3:40:D6:D1:0E:F0:56:BD:18:16:A6:B7:5B:7F:30:36:19:FB:F2:5D
            X509v3 Authority Key Identifier: 
                keyid:AF:C1:BD:7E:29:28:0E:BB:E4:74:1B:0E:F6:30:A4:29:7B:75:BB:D0
                DirName:/CN=team12-net
                serial:04:EE:69:13:03:74:88:0A:43:FB:2D:C0:01:76:92:CD:49:80:8B:E9
            X509v3 Extended Key Usage: 
                TLS Web Server Authentication
            X509v3 Key Usage: 
                Digital Signature, Key Encipherment
            X509v3 Subject Alternative Name: 
                DNS:team12-server
    Signature Algorithm: sha256WithRSAEncryption
    Signature Value:
        6b:a9:42:2f:85:b5:d4:59:8f:bf:53:14:b4:12:0e:2e:24:8a:
        85:d0:bb:33:d1:ee:7c:0a:87:77:fe:07:53:7c:a1:24:bc:a1:
        82:7b:6c:99:dc:bf:22:79:15:9c:8f:39:b3:fc:78:b6:33:7b:
        dc:2b:7a:3c:ce:e2:6a:b1:f0:c1:5e:1f:04:3e:50:f0:d3:7a:
        ee:2e:09:51:02:fb:60:d7:c4:d3:c9:9c:ad:e4:f3:d6:b4:7d:
        a5:f4:1f:7c:89:36:9b:39:38:16:98:07:78:c6:5b:82:86:7a:
        74:2e:f5:aa:79:fe:2b:8c:3a:a2:19:79:78:f8:f7:51:a9:1a:
        bb:5d:26:fa:92:94:02:12:b9:e0:02:44:66:e5:96:ab:fb:4e:
        80:73:d5:be:55:24:2d:a1:3b:36:16:86:c6:00:08:b9:05:0d:
        f6:d4:4e:81:8c:3f:4b:8d:07:7c:80:1a:0f:2e:de:e6:e1:4d:
        25:3f:90:df:fd:1d:57:fc:cf:f9:7b:67:23:2b:6c:c3:f2:a5:
        35:da:ca:b9:c9:ba:29:b3:6d:e0:ea:d9:07:21:ab:01:31:e5:
        1f:02:0f:3e:32:60:4c:69:44:41:f0:e3:bc:fa:c9:2a:90:66:
        c2:a2:a1:3d:48:cd:68:36:af:a2:5f:bd:84:e9:78:7b:24:8c:
        9d:77:4b:04
-----BEGIN CERTIFICATE-----
MIIDczCCAlugAwIBAgIQCxNcl0MCdir4sJdpgGA7TjANBgkqhkiG9w0BAQsFADAV
MRMwEQYDVQQDDAp0ZWFtMTItbmV0MB4XDTIzMDQyMDIyNTM0MVoXDTI2MDQwNDIy
NTM0MVowGDEWMBQGA1UEAwwNdGVhbTEyLXNlcnZlcjCCASIwDQYJKoZIhvcNAQEB
BQADggEPADCCAQoCggEBAKzBQNyrsMEEGqEoHfdVc8cAMi2u0TbzyqPWkJRze3fU
vp/6frloAuXraRAFNVwb1NcQ0764Fai5dtciUBfisOOAYewOZ3KKIr9NYw3Doni4
hPuZra4POhu0i5HSVB0LRdMxjZDwpLCOIM8IeSUXwXz00oTs989atsHCrY/QpaPL
EZppbs9gqeRXgNaKOX3NxRkHU5mmSrqDiSixJcpqagbovrStwcbRGPzBy2WwT7Tt
Bp9UPJ3vKZw9IPs0sBUe4ZmtHiWbNh1WNDPpuwbhK+EOdi83QYSHq1zM7iXkHjLC
P9/WcZ9aDfvBODNMOP9UV2oRFbwWgBR3NR76caT0Fa8CAwEAAaOBuzCBuDAJBgNV
HRMEAjAAMB0GA1UdDgQWBBTzQNbRDvBWvRgWprdbfzA2GfvyXTBQBgNVHSMESTBH
gBSvwb1+KSgOu+R0Gw72MKQpe3W70KEZpBcwFTETMBEGA1UEAwwKdGVhbTEyLW5l
dIIUBO5pEwN0iApD+y3AAXaSzUmAi+kwEwYDVR0lBAwwCgYIKwYBBQUHAwEwCwYD
VR0PBAQDAgWgMBgGA1UdEQQRMA+CDXRlYW0xMi1zZXJ2ZXIwDQYJKoZIhvcNAQEL
BQADggEBAGupQi+FtdRZj79TFLQSDi4kioXQuzPR7nwKh3f+B1N8oSS8oYJ7bJnc
vyJ5FZyPObP8eLYze9wrejzO4mqx8MFeHwQ+UPDTeu4uCVEC+2DXxNPJnK3k89a0
faX0H3yJNps5OBaYB3jGW4KGenQu9ap5/iuMOqIZeXj491GpGrtdJvqSlAISueAC
RGbllqv7ToBz1b5VJC2hOzYWhsYACLkFDfbUToGMP0uNB3yAGg8u3ubhTSU/kN/9
HVf8z/l7ZyMrbMPypTXayrnJuimzbeDq2QchqwEx5R8CDz4yYExpREHw47z6ySqQ
ZsKioT1IzWg2r6JfvYTpeHskjJ13SwQ=
-----END CERTIFICATE-----
