Certificate:
    Data:
        Version: 3 (0x2)
        Serial Number:
            93:9c:0c:25:c0:cf:fb:f5:a4:66:0b:8e:3e:36:55:20
        Signature Algorithm: sha256WithRSAEncryption
        Issuer: CN=team12-net
        Validity
            Not Before: Apr 20 22:53:41 2023 GMT
            Not After : Apr  4 22:53:41 2026 GMT
        Subject: CN=team12-client
        Subject Public Key Info:
            Public Key Algorithm: rsaEncryption
                Public-Key: (2048 bit)
                Modulus:
                    00:e5:46:d8:d1:8d:53:e2:fd:cb:77:1f:ea:26:b6:
                    12:db:55:a1:f5:21:e7:e1:e5:b7:ab:57:c4:0e:f8:
                    28:b2:6b:0e:cc:4d:98:37:b8:e1:05:45:ab:3f:37:
                    d1:03:60:be:3c:68:e0:a1:b1:40:d4:8a:02:52:5b:
                    b8:5f:75:a9:c3:54:8a:37:7f:ed:67:5e:64:31:a1:
                    4b:8e:94:bc:da:c4:3f:f2:f2:ef:51:1e:e0:1c:39:
                    87:d0:ff:13:ea:59:2a:73:13:a3:5a:45:98:e2:ff:
                    42:b8:43:11:fe:1f:b2:78:de:b6:e9:a8:6c:29:3d:
                    e8:a4:76:17:75:a1:82:37:d1:a8:ed:b3:23:a8:8e:
                    fc:28:43:8a:5d:aa:bc:9a:30:04:e8:38:06:3a:94:
                    13:fd:c2:40:6f:33:70:9e:1d:21:a4:fe:17:b2:89:
                    da:e8:3a:e6:a1:2e:6c:60:69:da:33:7a:0c:de:39:
                    3a:0f:61:79:dd:f4:20:c3:f9:6a:ab:b1:ba:45:ab:
                    44:7d:db:e8:0e:40:75:1c:8c:11:64:be:69:e6:92:
                    95:69:8e:c2:d7:0e:0f:c4:63:f8:0c:db:f4:7c:2a:
                    e0:13:17:c6:30:f8:e2:90:ed:2a:5b:9b:40:f6:1b:
                    e3:1c:3a:90:23:2b:13:b3:98:01:7f:5c:54:d3:25:
                    67:25
                Exponent: 65537 (0x10001)
        X509v3 extensions:
            X509v3 Basic Constraints: 
                CA:FALSE
            X509v3 Subject Key Identifier: 
                9C:44:82:6B:AF:68:33:B1:3C:A8:2A:D6:31:1B:56:08:6A:1F:E4:61
            X509v3 Authority Key Identifier: 
                keyid:AF:C1:BD:7E:29:28:0E:BB:E4:74:1B:0E:F6:30:A4:29:7B:75:BB:D0
                DirName:/CN=team12-net
                serial:04:EE:69:13:03:74:88:0A:43:FB:2D:C0:01:76:92:CD:49:80:8B:E9
            X509v3 Extended Key Usage: 
                TLS Web Client Authentication
            X509v3 Key Usage: 
                Digital Signature
    Signature Algorithm: sha256WithRSAEncryption
    Signature Value:
        29:db:c4:4f:ce:0a:88:1b:97:cb:93:c4:be:6b:a0:81:f4:d8:
        4f:82:de:3d:85:a1:21:24:7b:a6:aa:11:18:15:4e:6e:15:ec:
        45:db:06:0c:82:1b:97:15:19:cc:a8:b8:63:d6:2a:f1:ba:9e:
        27:6c:22:32:ab:16:5f:3e:d8:6a:b5:32:a7:36:01:90:93:8c:
        be:f3:db:bb:07:05:99:53:dc:6f:7f:37:46:e7:c7:5b:6d:09:
        0d:00:6b:af:52:d6:96:8c:01:6c:95:65:74:61:f3:34:2a:3f:
        c2:37:53:b9:2a:36:c5:d1:17:8a:8f:1b:a9:2a:02:93:86:f0:
        66:1d:60:c0:4a:1f:44:68:97:e9:6e:fe:3f:24:32:a4:a0:f2:
        d1:5e:35:3b:ad:55:7a:8b:77:5c:2f:27:7d:8b:a4:e3:e8:f6:
        37:1a:9e:53:37:37:6d:fd:e6:66:a0:6e:06:7a:d0:4e:a2:5d:
        29:80:bc:da:13:01:e2:92:1a:a5:00:73:9a:e9:91:0d:24:a3:
        39:1c:6e:7a:e4:43:8f:13:b5:1e:b7:59:af:f6:ec:f4:3a:d8:
        7c:eb:8f:6f:e0:cb:71:84:79:89:cb:09:11:8c:99:c2:3b:28:
        9d:c8:ae:4c:24:0a:a0:9d:1c:d9:68:5a:22:56:e3:40:e6:58:
        a4:10:b8:8c
-----BEGIN CERTIFICATE-----
MIIDWjCCAkKgAwIBAgIRAJOcDCXAz/v1pGYLjj42VSAwDQYJKoZIhvcNAQELBQAw
FTETMBEGA1UEAwwKdGVhbTEyLW5ldDAeFw0yMzA0MjAyMjUzNDFaFw0yNjA0MDQy
MjUzNDFaMBgxFjAUBgNVBAMMDXRlYW0xMi1jbGllbnQwggEiMA0GCSqGSIb3DQEB
AQUAA4IBDwAwggEKAoIBAQDlRtjRjVPi/ct3H+omthLbVaH1Iefh5berV8QO+Ciy
aw7MTZg3uOEFRas/N9EDYL48aOChsUDUigJSW7hfdanDVIo3f+1nXmQxoUuOlLza
xD/y8u9RHuAcOYfQ/xPqWSpzE6NaRZji/0K4QxH+H7J43rbpqGwpPeikdhd1oYI3
0ajtsyOojvwoQ4pdqryaMAToOAY6lBP9wkBvM3CeHSGk/heyidroOuahLmxgadoz
egzeOToPYXnd9CDD+WqrsbpFq0R92+gOQHUcjBFkvmnmkpVpjsLXDg/EY/gM2/R8
KuATF8Yw+OKQ7Spbm0D2G+McOpAjKxOzmAF/XFTTJWclAgMBAAGjgaEwgZ4wCQYD
VR0TBAIwADAdBgNVHQ4EFgQUnESCa69oM7E8qCrWMRtWCGof5GEwUAYDVR0jBEkw
R4AUr8G9fikoDrvkdBsO9jCkKXt1u9ChGaQXMBUxEzARBgNVBAMMCnRlYW0xMi1u
ZXSCFATuaRMDdIgKQ/stwAF2ks1JgIvpMBMGA1UdJQQMMAoGCCsGAQUFBwMCMAsG
A1UdDwQEAwIHgDANBgkqhkiG9w0BAQsFAAOCAQEAKdvET84KiBuXy5PEvmuggfTY
T4LePYWhISR7pqoRGBVObhXsRdsGDIIblxUZzKi4Y9Yq8bqeJ2wiMqsWXz7YarUy
pzYBkJOMvvPbuwcFmVPcb383RufHW20JDQBrr1LWlowBbJVldGHzNCo/wjdTuSo2
xdEXio8bqSoCk4bwZh1gwEofRGiX6W7+PyQypKDy0V41O61Veot3XC8nfYuk4+j2
NxqeUzc3bf3mZqBuBnrQTqJdKYC82hMB4pIapQBzmumRDSSjORxueuRDjxO1HrdZ
r/bs9DrYfOuPb+DLcYR5icsJEYyZwjsonciuTCQKoJ0c2WhaIlbjQOZYpBC4jA==
-----END CERTIFICATE-----
