Certificate:
    Data:
        Version: 3 (0x2)
        Serial Number:
            6c:2f:e7:ee:e6:55:42:5d:37:42:ba:85:1e:21:de:c4
        Signature Algorithm: sha256WithRSAEncryption
        Issuer: CN=team11-net
        Validity
            Not Before: Apr 20 22:53:40 2023 GMT
            Not After : Apr  4 22:53:40 2026 GMT
        Subject: CN=team11-server
        Subject Public Key Info:
            Public Key Algorithm: rsaEncryption
                Public-Key: (2048 bit)
                Modulus:
                    00:cd:a9:9e:6b:ab:e8:f3:18:14:44:3c:ed:d6:28:
                    73:4e:5c:df:75:e6:98:b0:69:43:20:8b:0c:86:fe:
                    dd:56:0b:5d:7b:49:83:fa:95:54:ad:0f:33:c8:da:
                    3b:6e:24:3b:1e:32:87:32:9b:02:70:74:28:4b:a3:
                    3f:f7:4c:2f:aa:48:4a:17:ad:21:1a:e0:b1:8e:a1:
                    24:57:26:de:dd:32:51:8d:59:ac:6e:0a:e6:e0:49:
                    b1:95:95:49:be:f1:76:0a:61:90:f7:24:48:ca:19:
                    5e:46:f3:3c:7b:45:8a:df:c0:00:81:ee:28:a2:48:
                    84:11:fd:46:ca:fe:63:2d:9c:2b:48:9c:8b:55:0e:
                    f6:c9:82:9b:93:49:87:b2:66:27:c2:94:e1:7a:98:
                    42:77:25:51:b2:0e:06:26:18:f7:12:cf:fa:5f:e5:
                    d9:36:87:68:f8:71:d0:99:13:c2:03:b4:36:9d:3d:
                    38:fb:c7:a8:b4:6d:b5:0e:fc:ef:92:ff:ed:9e:93:
                    32:2b:27:ec:73:a2:e2:85:2c:4c:04:e9:31:90:22:
                    76:c6:17:7a:f9:43:f9:20:94:61:1e:c4:d3:f3:c6:
                    a7:91:ce:41:47:e6:ed:da:02:ca:a9:e2:92:2e:58:
                    85:68:12:75:1d:66:0f:10:fa:bc:5b:a3:5c:31:31:
                    4b:65
                Exponent: 65537 (0x10001)
        X509v3 extensions:
            X509v3 Basic Constraints: 
                CA:FALSE
            X509v3 Subject Key Identifier: 
                8B:5A:1E:CC:64:24:73:22:7A:D9:B8:DA:EE:35:3D:E9:24:A6:16:B7
            X509v3 Authority Key Identifier: 
                keyid:54:AF:40:0E:67:80:B3:F9:4F:2F:26:5C:44:EC:77:4F:50:22:B2:1B
                DirName:/CN=team11-net
                serial:20:DA:D7:98:99:41:D9:23:3D:10:8B:BF:C5:C3:B3:25:4E:64:D5:94
            X509v3 Extended Key Usage: 
                TLS Web Server Authentication
            X509v3 Key Usage: 
                Digital Signature, Key Encipherment
            X509v3 Subject Alternative Name: 
                DNS:team11-server
    Signature Algorithm: sha256WithRSAEncryption
    Signature Value:
        54:08:c7:ec:db:cf:78:46:f2:1c:79:01:f2:0b:29:bd:8c:80:
        6f:da:bc:b3:81:f8:7b:55:dd:78:e9:74:6b:1c:49:ea:b8:c1:
        52:d8:3f:e7:56:41:cd:2c:d8:91:fb:86:48:8f:b7:fa:13:80:
        56:f0:0a:9e:1a:d6:1a:e2:c3:00:3e:38:5d:1b:3d:69:84:80:
        77:1c:3e:ec:a5:74:f7:a4:96:a1:af:21:52:5e:2b:44:bb:4a:
        01:51:f6:b0:90:37:e7:2a:70:54:90:45:5b:72:a3:4d:6a:fa:
        53:c9:2d:55:c6:c1:ba:a3:96:fb:04:b9:0c:af:ad:66:69:a5:
        de:4b:58:9a:7b:ca:27:a8:bd:96:ca:0e:d7:13:74:2d:df:0f:
        c9:24:ce:d9:d9:d2:06:33:6a:3b:6b:e1:60:4f:45:d7:da:5b:
        ef:30:2d:cf:ad:91:6d:78:14:14:06:df:05:26:5d:3b:7b:d3:
        9a:d4:6e:c2:50:d9:d4:78:a0:ca:6c:5d:d1:84:60:ca:d7:e9:
        47:f6:16:eb:99:62:62:c5:83:98:bf:de:a8:b9:57:96:d0:99:
        08:b5:4f:89:50:9d:db:6e:99:1f:b6:63:14:86:cc:44:43:83:
        b7:0d:b5:50:dd:cd:52:7d:b6:b4:37:6a:ef:58:c5:0d:35:35:
        eb:92:c7:d4
-----BEGIN CERTIFICATE-----
MIIDczCCAlugAwIBAgIQbC/n7uZVQl03QrqFHiHexDANBgkqhkiG9w0BAQsFADAV
MRMwEQYDVQQDDAp0ZWFtMTEtbmV0MB4XDTIzMDQyMDIyNTM0MFoXDTI2MDQwNDIy
NTM0MFowGDEWMBQGA1UEAwwNdGVhbTExLXNlcnZlcjCCASIwDQYJKoZIhvcNAQEB
BQADggEPADCCAQoCggEBAM2pnmur6PMYFEQ87dYoc05c33XmmLBpQyCLDIb+3VYL
XXtJg/qVVK0PM8jaO24kOx4yhzKbAnB0KEujP/dML6pIShetIRrgsY6hJFcm3t0y
UY1ZrG4K5uBJsZWVSb7xdgphkPckSMoZXkbzPHtFit/AAIHuKKJIhBH9Rsr+Yy2c
K0ici1UO9smCm5NJh7JmJ8KU4XqYQnclUbIOBiYY9xLP+l/l2TaHaPhx0JkTwgO0
Np09OPvHqLRttQ7875L/7Z6TMisn7HOi4oUsTATpMZAidsYXevlD+SCUYR7E0/PG
p5HOQUfm7doCyqniki5YhWgSdR1mDxD6vFujXDExS2UCAwEAAaOBuzCBuDAJBgNV
HRMEAjAAMB0GA1UdDgQWBBSLWh7MZCRzInrZuNruNT3pJKYWtzBQBgNVHSMESTBH
gBRUr0AOZ4Cz+U8vJlxE7HdPUCKyG6EZpBcwFTETMBEGA1UEAwwKdGVhbTExLW5l
dIIUINrXmJlB2SM9EIu/xcOzJU5k1ZQwEwYDVR0lBAwwCgYIKwYBBQUHAwEwCwYD
VR0PBAQDAgWgMBgGA1UdEQQRMA+CDXRlYW0xMS1zZXJ2ZXIwDQYJKoZIhvcNAQEL
BQADggEBAFQIx+zbz3hG8hx5AfILKb2MgG/avLOB+HtV3XjpdGscSeq4wVLYP+dW
Qc0s2JH7hkiPt/oTgFbwCp4a1hriwwA+OF0bPWmEgHccPuyldPeklqGvIVJeK0S7
SgFR9rCQN+cqcFSQRVtyo01q+lPJLVXGwbqjlvsEuQyvrWZppd5LWJp7yieovZbK
DtcTdC3fD8kkztnZ0gYzajtr4WBPRdfaW+8wLc+tkW14FBQG3wUmXTt705rUbsJQ
2dR4oMpsXdGEYMrX6Uf2FuuZYmLFg5i/3qi5V5bQmQi1T4lQndtumR+2YxSGzERD
g7cNtVDdzVJ9trQ3au9YxQ01NeuSx9Q=
-----END CERTIFICATE-----
