Certificate:
    Data:
        Version: 3 (0x2)
        Serial Number:
            28:d2:46:70:14:73:71:3c:7b:b6:ec:93:c9:93:6a:02
        Signature Algorithm: sha256WithRSAEncryption
        Issuer: CN=team58-net
        Validity
            Not Before: Apr 20 00:11:18 2023 GMT
            Not After : Apr  4 00:11:18 2026 GMT
        Subject: CN=team58-client
        Subject Public Key Info:
            Public Key Algorithm: rsaEncryption
                Public-Key: (2048 bit)
                Modulus:
                    00:a8:a3:32:59:e9:ae:e1:0c:38:96:69:45:30:50:
                    3a:20:8c:5d:45:ed:b0:78:f6:44:0a:b3:6e:3c:db:
                    fd:53:60:0d:a7:7f:ae:74:50:e2:fd:84:b7:74:2f:
                    bb:0d:c2:05:95:ec:02:8e:d7:9b:1f:07:82:04:e1:
                    d4:56:97:25:14:34:0f:7c:9f:01:0a:7e:f0:62:6d:
                    70:af:60:6a:c3:3b:46:d0:49:eb:21:49:94:34:4a:
                    28:8a:6d:3b:2f:5a:31:bf:19:66:82:93:26:ee:de:
                    d2:75:95:73:02:dc:34:9e:25:28:be:9d:9d:96:7e:
                    7f:29:70:70:8a:d6:d6:de:34:38:62:df:2e:2e:29:
                    cc:0a:1b:1d:ea:58:9b:97:eb:96:e6:77:31:96:8d:
                    e5:9c:e7:33:ff:7f:c4:e2:bc:88:b4:07:df:4d:cc:
                    f8:ab:40:8e:95:4e:d6:dc:ab:ae:0a:fc:12:30:24:
                    7a:19:b3:2e:72:31:af:65:ac:aa:99:62:d4:94:80:
                    b9:b0:af:5a:e8:53:cc:79:89:82:aa:d6:80:43:72:
                    fc:44:0a:20:31:23:63:5b:a0:8f:d9:ac:9c:0e:6d:
                    8a:11:e8:59:1b:34:9e:ca:20:16:91:42:61:51:f5:
                    53:04:3d:82:46:21:9b:03:ec:cb:c6:93:d0:89:19:
                    35:4b
                Exponent: 65537 (0x10001)
        X509v3 extensions:
            X509v3 Basic Constraints: 
                CA:FALSE
            X509v3 Subject Key Identifier: 
                33:40:1B:D0:8F:22:55:58:BE:5C:86:35:70:B1:21:0B:EC:6D:A7:DD
            X509v3 Authority Key Identifier: 
                keyid:63:65:F0:AB:89:50:C9:5F:AB:0E:7E:67:97:E0:8A:AF:1D:41:CB:E4
                DirName:/CN=team58-net
                serial:3C:6A:E8:59:EE:63:A4:3B:EA:10:D2:F0:62:0D:DC:E8:4C:9F:31:14
            X509v3 Extended Key Usage: 
                TLS Web Client Authentication
            X509v3 Key Usage: 
                Digital Signature
    Signature Algorithm: sha256WithRSAEncryption
    Signature Value:
        55:9c:4e:87:06:e1:28:27:f6:4b:6b:39:ab:16:c4:06:9e:dc:
        a0:04:52:a8:da:f7:15:a4:7b:7c:97:b0:23:39:6e:8d:da:c1:
        05:cb:0c:3e:b8:50:53:13:fb:7a:52:36:85:cf:68:f2:ce:30:
        8c:ce:5f:97:97:71:1d:45:c2:6c:b5:9e:89:7b:ad:65:43:a7:
        23:20:9d:de:c8:82:b0:bc:2c:56:e4:ae:f4:ca:6d:29:31:24:
        85:df:e4:11:b2:77:90:4f:52:33:ae:e9:b7:89:04:dc:cb:b8:
        99:f5:68:a3:43:cc:57:13:50:e9:50:96:11:bf:b1:42:70:9c:
        38:02:9d:c0:ad:5b:cf:b0:f5:1d:fc:b2:e2:08:55:cc:d7:db:
        7f:22:9e:a8:aa:52:3c:8b:eb:d0:a1:4b:1c:a7:58:9c:25:2d:
        fd:44:53:29:d1:f1:b4:a4:51:85:b3:cd:af:37:f1:84:bd:50:
        b5:0e:fa:cc:03:be:42:a7:22:2f:60:03:c6:08:c6:26:54:5f:
        b8:a9:c4:0b:ac:2d:7d:95:5b:80:f8:a4:81:9a:fd:80:60:b4:
        c6:18:7a:e1:02:a3:2c:a1:76:1b:a6:36:56:18:c8:22:a3:bd:
        52:b0:99:72:3c:74:6f:73:3a:de:ec:97:64:8e:da:8f:06:73:
        b3:fc:21:f3
-----BEGIN CERTIFICATE-----
MIIDWTCCAkGgAwIBAgIQKNJGcBRzcTx7tuyTyZNqAjANBgkqhkiG9w0BAQsFADAV
MRMwEQYDVQQDDAp0ZWFtNTgtbmV0MB4XDTIzMDQyMDAwMTExOFoXDTI2MDQwNDAw
MTExOFowGDEWMBQGA1UEAwwNdGVhbTU4LWNsaWVudDCCASIwDQYJKoZIhvcNAQEB
BQADggEPADCCAQoCggEBAKijMlnpruEMOJZpRTBQOiCMXUXtsHj2RAqzbjzb/VNg
Dad/rnRQ4v2Et3Qvuw3CBZXsAo7Xmx8HggTh1FaXJRQ0D3yfAQp+8GJtcK9gasM7
RtBJ6yFJlDRKKIptOy9aMb8ZZoKTJu7e0nWVcwLcNJ4lKL6dnZZ+fylwcIrW1t40
OGLfLi4pzAobHepYm5frluZ3MZaN5ZznM/9/xOK8iLQH303M+KtAjpVO1tyrrgr8
EjAkehmzLnIxr2Wsqpli1JSAubCvWuhTzHmJgqrWgENy/EQKIDEjY1ugj9msnA5t
ihHoWRs0nsogFpFCYVH1UwQ9gkYhmwPsy8aT0IkZNUsCAwEAAaOBoTCBnjAJBgNV
HRMEAjAAMB0GA1UdDgQWBBQzQBvQjyJVWL5chjVwsSEL7G2n3TBQBgNVHSMESTBH
gBRjZfCriVDJX6sOfmeX4IqvHUHL5KEZpBcwFTETMBEGA1UEAwwKdGVhbTU4LW5l
dIIUPGroWe5jpDvqENLwYg3c6EyfMRQwEwYDVR0lBAwwCgYIKwYBBQUHAwIwCwYD
VR0PBAQDAgeAMA0GCSqGSIb3DQEBCwUAA4IBAQBVnE6HBuEoJ/ZLazmrFsQGntyg
BFKo2vcVpHt8l7AjOW6N2sEFyww+uFBTE/t6UjaFz2jyzjCMzl+Xl3EdRcJstZ6J
e61lQ6cjIJ3eyIKwvCxW5K70ym0pMSSF3+QRsneQT1Izrum3iQTcy7iZ9WijQ8xX
E1DpUJYRv7FCcJw4Ap3ArVvPsPUd/LLiCFXM19t/Ip6oqlI8i+vQoUscp1icJS39
RFMp0fG0pFGFs82vN/GEvVC1DvrMA75CpyIvYAPGCMYmVF+4qcQLrC19lVuA+KSB
mv2AYLTGGHrhAqMsoXYbpjZWGMgio71SsJlyPHRvczre7JdkjtqPBnOz/CHz
-----END CERTIFICATE-----
