Certificate:
    Data:
        Version: 3 (0x2)
        Serial Number:
            37:71:d7:4a:9f:fd:4d:a8:c4:51:7c:89:d2:fc:67:b3
        Signature Algorithm: sha256WithRSAEncryption
        Issuer: CN=team58-net
        Validity
            Not Before: Apr 20 22:54:58 2023 GMT
            Not After : Apr  4 22:54:58 2026 GMT
        Subject: CN=team58-server
        Subject Public Key Info:
            Public Key Algorithm: rsaEncryption
                Public-Key: (2048 bit)
                Modulus:
                    00:a0:00:c7:6f:fc:1c:d7:d6:30:70:e3:40:56:53:
                    ba:e1:00:a1:01:0f:94:36:a4:92:3c:d2:d6:38:c4:
                    21:b8:d8:a9:9a:b4:6a:e3:68:a5:e1:99:92:fa:58:
                    cf:91:e7:21:62:e6:9a:27:d2:ea:69:d0:5a:01:78:
                    71:42:b9:20:3c:8f:ae:d4:c0:d8:67:5e:5d:77:72:
                    e9:03:f5:26:d6:bf:74:af:3b:b7:c6:4f:ed:bb:4e:
                    e4:96:18:8f:cc:c1:0b:20:04:b7:76:34:e6:45:4b:
                    28:97:18:16:58:73:3b:fd:34:58:61:2b:d6:a6:55:
                    32:4b:bd:ad:75:09:b6:05:79:86:55:0b:f4:a3:44:
                    0d:9d:17:45:c6:bb:69:6b:1e:75:ef:73:fa:b6:e0:
                    b0:8c:8b:96:07:14:5b:05:96:bf:fa:e7:ca:3f:4e:
                    a6:23:08:b9:2b:9c:bc:3a:e7:8c:a6:da:9f:2d:26:
                    01:92:22:b5:17:c5:12:8f:33:93:7f:0f:55:b1:90:
                    9f:fd:82:c2:cc:60:34:81:37:05:c4:5e:29:8d:df:
                    ea:5c:b9:f4:03:21:59:51:9e:f9:f4:83:d4:d0:bf:
                    d5:cc:6f:ac:16:5b:50:70:aa:92:76:bc:6e:6f:04:
                    e0:3a:22:cf:20:6c:a5:6e:51:a6:d7:e8:e6:8d:e4:
                    77:73
                Exponent: 65537 (0x10001)
        X509v3 extensions:
            X509v3 Basic Constraints: 
                CA:FALSE
            X509v3 Subject Key Identifier: 
                70:2E:51:F7:B5:40:92:E5:E1:5E:A9:70:79:C4:85:9F:29:52:A0:A1
            X509v3 Authority Key Identifier: 
                keyid:C6:5A:FE:8E:AA:F4:44:26:B1:06:23:92:31:84:30:BF:B4:D1:C7:AE
                DirName:/CN=team58-net
                serial:4A:96:CB:7C:18:3B:53:07:09:42:E9:71:3C:AC:3E:B7:30:E0:27:BB
            X509v3 Extended Key Usage: 
                TLS Web Server Authentication
            X509v3 Key Usage: 
                Digital Signature, Key Encipherment
            X509v3 Subject Alternative Name: 
                DNS:team58-server
    Signature Algorithm: sha256WithRSAEncryption
    Signature Value:
        57:67:c7:e5:f9:c7:ca:64:4e:b2:6b:2b:72:54:e7:54:6d:28:
        2f:ba:0a:a1:30:95:46:5f:fa:9a:1d:b1:80:26:53:1f:66:fb:
        bc:df:4c:9d:46:67:07:1b:48:69:73:29:8f:f1:80:30:c2:3b:
        68:0e:88:01:ff:c9:8e:d6:98:ca:4e:e1:8d:9e:1a:0c:35:2e:
        b0:4e:71:f1:db:02:e9:83:eb:fd:83:35:58:e9:a7:65:db:51:
        de:a7:17:1d:3b:7c:2a:65:c5:70:30:45:bc:a8:8f:be:60:b4:
        5c:04:4e:04:b1:9c:8d:74:ca:a3:75:44:ea:18:8b:5a:35:a1:
        de:d3:26:43:50:ab:1a:18:26:08:60:21:8f:db:86:17:f3:be:
        d4:f2:89:12:d4:ff:0e:8b:f1:50:fc:4b:a2:68:b3:e5:69:14:
        a6:3d:7b:17:b7:02:72:24:9c:7c:e7:f3:9b:9c:47:f0:1e:32:
        ce:cb:07:d5:6d:f9:1d:2e:a6:5a:06:c4:be:2c:f5:b0:7f:e8:
        f0:67:04:78:59:8a:fd:f5:82:cf:e5:fc:29:1e:ee:ed:f0:7a:
        ae:c6:77:27:02:e5:81:7c:4f:fd:c5:d7:e2:bd:92:47:9d:10:
        94:f4:c6:74:85:86:48:2c:a2:bc:37:3d:fa:d8:5e:2a:6f:6f:
        2b:d4:92:a6
-----BEGIN CERTIFICATE-----
MIIDczCCAlugAwIBAgIQN3HXSp/9TajEUXyJ0vxnszANBgkqhkiG9w0BAQsFADAV
MRMwEQYDVQQDDAp0ZWFtNTgtbmV0MB4XDTIzMDQyMDIyNTQ1OFoXDTI2MDQwNDIy
NTQ1OFowGDEWMBQGA1UEAwwNdGVhbTU4LXNlcnZlcjCCASIwDQYJKoZIhvcNAQEB
BQADggEPADCCAQoCggEBAKAAx2/8HNfWMHDjQFZTuuEAoQEPlDakkjzS1jjEIbjY
qZq0auNopeGZkvpYz5HnIWLmmifS6mnQWgF4cUK5IDyPrtTA2GdeXXdy6QP1Jta/
dK87t8ZP7btO5JYYj8zBCyAEt3Y05kVLKJcYFlhzO/00WGEr1qZVMku9rXUJtgV5
hlUL9KNEDZ0XRca7aWsede9z+rbgsIyLlgcUWwWWv/rnyj9OpiMIuSucvDrnjKba
ny0mAZIitRfFEo8zk38PVbGQn/2CwsxgNIE3BcReKY3f6ly59AMhWVGe+fSD1NC/
1cxvrBZbUHCqkna8bm8E4DoizyBspW5Rptfo5o3kd3MCAwEAAaOBuzCBuDAJBgNV
HRMEAjAAMB0GA1UdDgQWBBRwLlH3tUCS5eFeqXB5xIWfKVKgoTBQBgNVHSMESTBH
gBTGWv6OqvREJrEGI5IxhDC/tNHHrqEZpBcwFTETMBEGA1UEAwwKdGVhbTU4LW5l
dIIUSpbLfBg7UwcJQulxPKw+tzDgJ7swEwYDVR0lBAwwCgYIKwYBBQUHAwEwCwYD
VR0PBAQDAgWgMBgGA1UdEQQRMA+CDXRlYW01OC1zZXJ2ZXIwDQYJKoZIhvcNAQEL
BQADggEBAFdnx+X5x8pkTrJrK3JU51RtKC+6CqEwlUZf+podsYAmUx9m+7zfTJ1G
ZwcbSGlzKY/xgDDCO2gOiAH/yY7WmMpO4Y2eGgw1LrBOcfHbAumD6/2DNVjpp2Xb
Ud6nFx07fCplxXAwRbyoj75gtFwETgSxnI10yqN1ROoYi1o1od7TJkNQqxoYJghg
IY/bhhfzvtTyiRLU/w6L8VD8S6Jos+VpFKY9exe3AnIknHzn85ucR/AeMs7LB9Vt
+R0uploGxL4s9bB/6PBnBHhZiv31gs/l/Cke7u3weq7GdycC5YF8T/3F1+K9kked
EJT0xnSFhkgsorw3PfrYXipvbyvUkqY=
-----END CERTIFICATE-----
