Certificate:
    Data:
        Version: 3 (0x2)
        Serial Number:
            f8:86:85:20:a6:74:c8:b7:47:41:f1:dd:e8:8c:f4:67
        Signature Algorithm: sha256WithRSAEncryption
        Issuer: CN=team58-net
        Validity
            Not Before: Apr 20 22:54:58 2023 GMT
            Not After : Apr  4 22:54:58 2026 GMT
        Subject: CN=team58-client
        Subject Public Key Info:
            Public Key Algorithm: rsaEncryption
                Public-Key: (2048 bit)
                Modulus:
                    00:d5:9a:1c:0e:25:aa:85:6f:c9:1e:51:86:a6:68:
                    5c:a7:a7:db:32:c1:03:20:4a:b1:62:96:8c:54:8a:
                    d2:58:df:a5:37:e0:24:d5:05:3c:17:e6:54:75:bd:
                    98:73:cb:ca:ac:10:0d:dd:2e:e6:b8:16:3b:83:fd:
                    ec:24:8d:70:91:bc:8d:2c:3e:88:89:ab:a9:cf:c3:
                    5b:cc:e8:37:16:26:48:14:9b:16:bf:8e:b0:2c:a5:
                    03:21:17:d6:86:c7:de:db:e2:29:02:d7:6d:dd:55:
                    2f:f4:25:87:77:54:ad:a0:60:72:4e:0a:28:c7:79:
                    9d:bd:cf:4b:50:ba:dd:6b:2e:da:f2:e7:92:46:bb:
                    b8:72:d6:2d:17:92:c1:32:27:cb:b1:e7:f1:e3:b6:
                    72:32:41:98:48:1f:a4:fa:1a:fd:3f:27:ea:de:df:
                    51:27:42:31:12:02:ef:30:c1:35:d8:1b:ee:f1:d1:
                    87:22:64:2d:3b:79:42:73:eb:1b:dd:f4:1d:a0:29:
                    9d:91:2f:81:23:3b:52:96:76:e3:0d:f1:a0:51:29:
                    ed:5f:46:10:df:95:3c:e9:14:53:e9:54:74:e5:7a:
                    e9:77:1b:a3:d7:4f:61:d3:d6:ae:1c:69:b5:0f:9e:
                    57:4c:f8:c3:de:c0:f2:7d:29:a8:aa:3e:04:62:eb:
                    b5:97
                Exponent: 65537 (0x10001)
        X509v3 extensions:
            X509v3 Basic Constraints: 
                CA:FALSE
            X509v3 Subject Key Identifier: 
                46:44:85:4D:05:76:80:DC:6C:0B:3C:34:63:2A:19:0E:87:09:C2:6D
            X509v3 Authority Key Identifier: 
                keyid:C6:5A:FE:8E:AA:F4:44:26:B1:06:23:92:31:84:30:BF:B4:D1:C7:AE
                DirName:/CN=team58-net
                serial:4A:96:CB:7C:18:3B:53:07:09:42:E9:71:3C:AC:3E:B7:30:E0:27:BB
            X509v3 Extended Key Usage: 
                TLS Web Client Authentication
            X509v3 Key Usage: 
                Digital Signature
    Signature Algorithm: sha256WithRSAEncryption
    Signature Value:
        63:17:ba:27:37:a0:2c:dd:70:ec:52:98:a2:4b:d5:72:0f:fe:
        f5:e3:29:7e:d1:98:ae:7f:a5:d4:3e:e4:f4:ed:79:4a:47:4c:
        d2:fd:fb:64:30:e2:bb:5a:96:b7:22:34:c1:92:f0:fc:ad:23:
        6a:85:13:e8:dc:62:29:86:f2:a0:12:3a:84:87:ea:88:7e:fd:
        9a:b7:e2:18:8e:9f:1a:ba:1e:15:c8:8a:97:cb:20:35:a6:b8:
        9f:3a:57:75:73:64:99:55:b6:e5:b2:78:b0:5c:c6:37:bd:d5:
        04:bc:e9:83:e4:6e:f4:cc:58:cc:61:c2:46:c2:ee:b8:3f:95:
        45:8f:4c:94:4c:da:67:e0:d8:a5:cd:03:77:73:69:a7:ea:5a:
        d9:d0:25:e2:f8:a5:21:3a:c1:ba:c1:cb:ab:0c:ec:0d:0f:90:
        57:b0:46:fb:7e:d6:74:00:46:4e:56:9e:43:54:a7:ba:8a:09:
        3f:3d:92:5b:33:3d:c0:8f:b5:4e:a1:3f:f1:86:f9:d4:66:6a:
        3e:fa:48:e3:aa:ca:d4:6f:84:80:e9:b8:14:d0:5a:9e:78:51:
        37:65:3b:57:4c:5c:b7:89:5d:93:15:f9:14:88:6d:e7:ee:04:
        27:88:3b:51:13:42:ea:e8:f7:1b:63:22:7c:8e:4d:81:b9:e1:
        09:4b:ae:f7
-----BEGIN CERTIFICATE-----
MIIDWjCCAkKgAwIBAgIRAPiGhSCmdMi3R0Hx3eiM9GcwDQYJKoZIhvcNAQELBQAw
FTETMBEGA1UEAwwKdGVhbTU4LW5ldDAeFw0yMzA0MjAyMjU0NThaFw0yNjA0MDQy
MjU0NThaMBgxFjAUBgNVBAMMDXRlYW01OC1jbGllbnQwggEiMA0GCSqGSIb3DQEB
AQUAA4IBDwAwggEKAoIBAQDVmhwOJaqFb8keUYamaFynp9sywQMgSrFiloxUitJY
36U34CTVBTwX5lR1vZhzy8qsEA3dLua4FjuD/ewkjXCRvI0sPoiJq6nPw1vM6DcW
JkgUmxa/jrAspQMhF9aGx97b4ikC123dVS/0JYd3VK2gYHJOCijHeZ29z0tQut1r
Ltry55JGu7hy1i0XksEyJ8ux5/HjtnIyQZhIH6T6Gv0/J+re31EnQjESAu8wwTXY
G+7x0YciZC07eUJz6xvd9B2gKZ2RL4EjO1KWduMN8aBRKe1fRhDflTzpFFPpVHTl
eul3G6PXT2HT1q4cabUPnldM+MPewPJ9KaiqPgRi67WXAgMBAAGjgaEwgZ4wCQYD
VR0TBAIwADAdBgNVHQ4EFgQURkSFTQV2gNxsCzw0YyoZDocJwm0wUAYDVR0jBEkw
R4AUxlr+jqr0RCaxBiOSMYQwv7TRx66hGaQXMBUxEzARBgNVBAMMCnRlYW01OC1u
ZXSCFEqWy3wYO1MHCULpcTysPrcw4Ce7MBMGA1UdJQQMMAoGCCsGAQUFBwMCMAsG
A1UdDwQEAwIHgDANBgkqhkiG9w0BAQsFAAOCAQEAYxe6JzegLN1w7FKYokvVcg/+
9eMpftGYrn+l1D7k9O15SkdM0v37ZDDiu1qWtyI0wZLw/K0jaoUT6NxiKYbyoBI6
hIfqiH79mrfiGI6fGroeFciKl8sgNaa4nzpXdXNkmVW25bJ4sFzGN73VBLzpg+Ru
9MxYzGHCRsLuuD+VRY9MlEzaZ+DYpc0Dd3Npp+pa2dAl4vilITrBusHLqwzsDQ+Q
V7BG+37WdABGTlaeQ1SnuooJPz2SWzM9wI+1TqE/8Yb51GZqPvpI46rK1G+EgOm4
FNBannhRN2U7V0xct4ldkxX5FIht5+4EJ4g7URNC6uj3G2MifI5NgbnhCUuu9w==
-----END CERTIFICATE-----
