Certificate:
    Data:
        Version: 3 (0x2)
        Serial Number:
            4b:f4:6b:51:4e:94:ec:33:c3:a8:ea:aa:aa:6e:6e:6d
        Signature Algorithm: sha256WithRSAEncryption
        Issuer: CN=team7-net
        Validity
            Not Before: Apr 20 00:10:03 2023 GMT
            Not After : Apr  4 00:10:03 2026 GMT
        Subject: CN=team7-client
        Subject Public Key Info:
            Public Key Algorithm: rsaEncryption
                Public-Key: (2048 bit)
                Modulus:
                    00:d2:da:fa:eb:29:5f:f1:d9:4f:d1:02:ca:3f:ff:
                    c9:ca:d6:35:7e:9c:ba:d6:6a:5a:ee:01:e4:31:cc:
                    9c:85:61:18:42:14:20:b0:c2:b0:d9:e9:dd:e8:83:
                    c4:03:db:9e:9e:f8:93:96:97:13:08:7f:5f:f3:70:
                    c7:21:bc:a7:e3:98:07:a1:b6:28:75:0d:35:ce:ed:
                    62:ca:01:f6:00:10:d9:06:f5:23:dd:fb:13:5b:6c:
                    db:2c:c3:76:e1:7e:f9:4a:0a:ab:73:29:8d:56:0d:
                    8e:81:ca:78:f6:53:96:16:14:ae:86:ba:e7:3e:06:
                    8c:73:ac:d6:09:4f:ef:46:6a:c3:b3:30:5f:4b:ce:
                    2e:8d:4c:5a:7d:01:b1:77:1f:e7:5a:9b:70:40:eb:
                    05:6f:83:3c:63:86:6d:27:cb:73:a5:56:52:56:8b:
                    0c:05:f0:8c:4e:96:e1:88:28:92:bf:db:98:87:5d:
                    ce:27:db:2e:53:6e:e4:c8:f8:67:16:0d:03:55:78:
                    79:a6:e0:d9:e5:d3:ca:c4:ab:ff:49:36:12:7b:ac:
                    29:1f:81:90:6e:f9:51:1c:eb:dd:ab:62:f6:1d:1d:
                    87:74:34:14:c9:0d:75:8c:3c:d7:b6:c1:e6:59:bd:
                    0d:44:8b:a6:b1:d9:54:33:7c:db:8f:a0:33:c0:98:
                    27:f7
                Exponent: 65537 (0x10001)
        X509v3 extensions:
            X509v3 Basic Constraints: 
                CA:FALSE
            X509v3 Subject Key Identifier: 
                BD:3A:90:96:34:E5:90:6D:34:29:E6:35:5A:F0:8A:69:4D:CE:7B:69
            X509v3 Authority Key Identifier: 
                keyid:13:6A:C2:D9:3D:FB:67:30:A6:D8:B7:BA:5C:E8:DB:67:9D:16:0B:E7
                DirName:/CN=team7-net
                serial:5E:1C:76:68:F6:4F:D5:CA:6C:1C:EA:CD:42:99:46:E4:CF:1D:82:DD
            X509v3 Extended Key Usage: 
                TLS Web Client Authentication
            X509v3 Key Usage: 
                Digital Signature
    Signature Algorithm: sha256WithRSAEncryption
    Signature Value:
        69:69:3b:36:04:58:38:02:8b:5e:f2:4f:f6:ba:46:51:7e:50:
        e2:db:3c:c8:5d:e3:8f:d1:9c:c0:f9:99:a2:1a:55:51:b0:c9:
        0d:21:4c:cc:1c:9e:9a:58:4b:88:17:33:7f:65:ad:1d:57:06:
        86:e1:ef:d1:93:c3:41:12:43:f2:29:49:2c:f6:24:e1:76:1e:
        e3:a1:ab:a2:17:17:81:96:2f:6e:48:52:a1:1d:ae:1e:e2:d4:
        b8:b3:21:c7:06:4c:63:9c:d2:73:0d:bc:5f:86:0d:79:0b:ab:
        55:63:b1:f2:5e:64:2d:52:f7:7b:e3:17:68:06:6b:7b:a1:74:
        05:66:00:95:29:f9:11:46:01:9e:2a:1c:24:2e:79:45:13:70:
        cd:cc:e1:53:20:22:3b:9c:f0:86:c6:c5:76:58:1c:44:1b:6e:
        3b:0e:18:4e:78:77:ea:df:8c:c3:63:4b:56:e6:4a:ad:42:60:
        9a:23:04:2c:43:26:55:49:a3:98:9c:13:50:eb:a3:46:64:33:
        62:ef:72:71:53:8f:c3:5b:f6:c8:9d:26:77:cb:f3:d0:92:90:
        7c:47:1b:c1:53:75:e9:c2:a8:c2:06:ac:95:8d:28:0b:92:cb:
        31:a6:2a:05:d8:d2:83:cf:e7:51:a1:62:a4:84:af:e3:8d:ea:
        9a:e8:d7:fc
-----BEGIN CERTIFICATE-----
MIIDVjCCAj6gAwIBAgIQS/RrUU6U7DPDqOqqqm5ubTANBgkqhkiG9w0BAQsFADAU
MRIwEAYDVQQDDAl0ZWFtNy1uZXQwHhcNMjMwNDIwMDAxMDAzWhcNMjYwNDA0MDAx
MDAzWjAXMRUwEwYDVQQDDAx0ZWFtNy1jbGllbnQwggEiMA0GCSqGSIb3DQEBAQUA
A4IBDwAwggEKAoIBAQDS2vrrKV/x2U/RAso//8nK1jV+nLrWalruAeQxzJyFYRhC
FCCwwrDZ6d3og8QD256e+JOWlxMIf1/zcMchvKfjmAehtih1DTXO7WLKAfYAENkG
9SPd+xNbbNssw3bhfvlKCqtzKY1WDY6Bynj2U5YWFK6Guuc+BoxzrNYJT+9GasOz
MF9Lzi6NTFp9AbF3H+dam3BA6wVvgzxjhm0ny3OlVlJWiwwF8IxOluGIKJK/25iH
Xc4n2y5TbuTI+GcWDQNVeHmm4Nnl08rEq/9JNhJ7rCkfgZBu+VEc692rYvYdHYd0
NBTJDXWMPNe2weZZvQ1Ei6ax2VQzfNuPoDPAmCf3AgMBAAGjgaAwgZ0wCQYDVR0T
BAIwADAdBgNVHQ4EFgQUvTqQljTlkG00KeY1WvCKaU3Oe2kwTwYDVR0jBEgwRoAU
E2rC2T37ZzCm2Le6XOjbZ50WC+ehGKQWMBQxEjAQBgNVBAMMCXRlYW03LW5ldIIU
Xhx2aPZP1cpsHOrNQplG5M8dgt0wEwYDVR0lBAwwCgYIKwYBBQUHAwIwCwYDVR0P
BAQDAgeAMA0GCSqGSIb3DQEBCwUAA4IBAQBpaTs2BFg4Aote8k/2ukZRflDi2zzI
XeOP0ZzA+ZmiGlVRsMkNIUzMHJ6aWEuIFzN/Za0dVwaG4e/Rk8NBEkPyKUks9iTh
dh7joauiFxeBli9uSFKhHa4e4tS4syHHBkxjnNJzDbxfhg15C6tVY7HyXmQtUvd7
4xdoBmt7oXQFZgCVKfkRRgGeKhwkLnlFE3DNzOFTICI7nPCGxsV2WBxEG247DhhO
eHfq34zDY0tW5kqtQmCaIwQsQyZVSaOYnBNQ66NGZDNi73JxU4/DW/bInSZ3y/PQ
kpB8RxvBU3XpwqjCBqyVjSgLkssxpioF2NKDz+dRoWKkhK/jjeqa6Nf8
-----END CERTIFICATE-----
