Certificate:
    Data:
        Version: 3 (0x2)
        Serial Number:
            94:64:17:7a:ca:79:99:85:01:3f:f0:2c:7c:bf:1f:47
        Signature Algorithm: sha256WithRSAEncryption
        Issuer: CN=team17-net
        Validity
            Not Before: Apr 20 22:53:48 2023 GMT
            Not After : Apr  4 22:53:48 2026 GMT
        Subject: CN=team17-server
        Subject Public Key Info:
            Public Key Algorithm: rsaEncryption
                Public-Key: (2048 bit)
                Modulus:
                    00:95:73:30:c9:c8:e4:08:a2:72:d7:01:03:53:3d:
                    3b:73:be:03:35:a2:22:4f:50:18:12:97:15:cd:54:
                    08:ac:99:2e:a0:32:11:19:da:ac:ab:a7:ab:bd:56:
                    59:29:1d:b9:a7:62:29:f0:bb:3e:d1:bd:59:27:88:
                    31:6f:7c:31:d1:98:98:6b:a2:a6:3a:6e:5b:44:95:
                    ec:54:64:53:ed:9d:07:58:17:d3:b7:24:84:57:46:
                    98:d3:ea:a6:b2:7c:e2:ae:1b:a9:ac:74:33:8c:7b:
                    bf:44:b1:d2:4e:17:ac:d4:ba:5b:da:94:35:93:c6:
                    23:76:95:b2:0c:1f:b3:4d:e9:82:2c:3d:87:2a:5c:
                    6c:03:35:5f:f1:cb:01:ce:d1:65:33:36:88:da:d6:
                    06:3a:da:c1:9a:e0:79:33:81:60:e1:6d:9c:6c:cf:
                    18:8c:95:a6:e5:0d:7c:49:d9:72:94:d4:70:8a:37:
                    e5:80:a5:97:5c:7b:04:63:24:ff:56:bb:75:0e:40:
                    67:73:7a:b7:e9:ed:2e:88:79:23:a2:dc:5d:27:49:
                    00:64:7a:73:9a:3f:4b:c7:cd:45:3f:ec:09:90:40:
                    06:d6:52:9c:98:b4:64:5d:76:0e:39:24:36:fd:97:
                    bc:fc:f9:fe:a7:99:9e:a0:cf:37:7f:ca:b0:5f:8c:
                    cd:37
                Exponent: 65537 (0x10001)
        X509v3 extensions:
            X509v3 Basic Constraints: 
                CA:FALSE
            X509v3 Subject Key Identifier: 
                0D:CB:CC:22:0C:51:CF:EB:6C:4A:A7:5F:AD:E7:94:7D:25:F3:DE:DD
            X509v3 Authority Key Identifier: 
                keyid:E7:63:54:B4:64:8C:01:60:92:10:B1:F6:C7:B7:30:A0:ED:EE:68:62
                DirName:/CN=team17-net
                serial:04:ED:DA:04:BA:4D:53:09:66:30:04:5C:A6:0F:59:A3:FF:7B:F2:67
            X509v3 Extended Key Usage: 
                TLS Web Server Authentication
            X509v3 Key Usage: 
                Digital Signature, Key Encipherment
            X509v3 Subject Alternative Name: 
                DNS:team17-server
    Signature Algorithm: sha256WithRSAEncryption
    Signature Value:
        07:ff:3c:c1:95:b7:fd:de:e5:7f:16:f7:f2:65:5a:38:6e:6f:
        41:20:e3:7b:2c:4c:99:96:1d:07:b4:a1:bb:e0:11:47:a8:5c:
        f0:ce:59:08:10:74:69:54:55:33:85:89:79:bf:32:7f:d0:08:
        69:de:33:25:cb:12:29:5a:b4:44:42:a5:89:77:5b:63:fd:66:
        3f:39:e4:bd:cf:41:17:40:0b:5b:85:7c:26:66:cf:b2:8d:12:
        0a:3c:22:d7:9d:2f:de:10:b6:10:82:f6:27:48:c0:d6:46:8b:
        78:43:51:c9:5f:99:74:fc:1a:93:ee:ec:6c:92:2e:57:e5:85:
        36:62:ef:a2:27:09:af:1f:df:be:d4:ab:70:e2:e5:c9:3a:bf:
        10:50:f9:73:ce:af:bf:23:05:98:72:f6:d8:5b:d7:64:65:50:
        4d:27:5f:20:1c:7b:a5:0c:77:69:f6:71:2e:46:64:b3:30:78:
        fd:d4:40:65:0d:c6:87:86:d9:a7:96:4b:e3:c4:82:8e:17:37:
        1d:9c:87:47:96:4a:bf:e8:fa:c5:1b:3f:a8:d6:f2:66:43:aa:
        e1:57:bd:a0:db:40:a3:18:14:e2:a4:28:32:eb:17:9e:e2:90:
        74:4f:9f:e6:65:3f:d1:30:3c:d3:02:6f:69:e1:c0:75:00:f5:
        17:80:90:fd
-----BEGIN CERTIFICATE-----
MIIDdDCCAlygAwIBAgIRAJRkF3rKeZmFAT/wLHy/H0cwDQYJKoZIhvcNAQELBQAw
FTETMBEGA1UEAwwKdGVhbTE3LW5ldDAeFw0yMzA0MjAyMjUzNDhaFw0yNjA0MDQy
MjUzNDhaMBgxFjAUBgNVBAMMDXRlYW0xNy1zZXJ2ZXIwggEiMA0GCSqGSIb3DQEB
AQUAA4IBDwAwggEKAoIBAQCVczDJyOQIonLXAQNTPTtzvgM1oiJPUBgSlxXNVAis
mS6gMhEZ2qyrp6u9VlkpHbmnYinwuz7RvVkniDFvfDHRmJhroqY6bltElexUZFPt
nQdYF9O3JIRXRpjT6qayfOKuG6msdDOMe79EsdJOF6zUulvalDWTxiN2lbIMH7NN
6YIsPYcqXGwDNV/xywHO0WUzNoja1gY62sGa4HkzgWDhbZxszxiMlablDXxJ2XKU
1HCKN+WApZdcewRjJP9Wu3UOQGdzerfp7S6IeSOi3F0nSQBkenOaP0vHzUU/7AmQ
QAbWUpyYtGRddg45JDb9l7z8+f6nmZ6gzzd/yrBfjM03AgMBAAGjgbswgbgwCQYD
VR0TBAIwADAdBgNVHQ4EFgQUDcvMIgxRz+tsSqdfreeUfSXz3t0wUAYDVR0jBEkw
R4AU52NUtGSMAWCSELH2x7cwoO3uaGKhGaQXMBUxEzARBgNVBAMMCnRlYW0xNy1u
ZXSCFATt2gS6TVMJZjAEXKYPWaP/e/JnMBMGA1UdJQQMMAoGCCsGAQUFBwMBMAsG
A1UdDwQEAwIFoDAYBgNVHREEETAPgg10ZWFtMTctc2VydmVyMA0GCSqGSIb3DQEB
CwUAA4IBAQAH/zzBlbf93uV/FvfyZVo4bm9BION7LEyZlh0HtKG74BFHqFzwzlkI
EHRpVFUzhYl5vzJ/0Ahp3jMlyxIpWrREQqWJd1tj/WY/OeS9z0EXQAtbhXwmZs+y
jRIKPCLXnS/eELYQgvYnSMDWRot4Q1HJX5l0/BqT7uxski5X5YU2Yu+iJwmvH9++
1Ktw4uXJOr8QUPlzzq+/IwWYcvbYW9dkZVBNJ18gHHulDHdp9nEuRmSzMHj91EBl
DcaHhtmnlkvjxIKOFzcdnIdHlkq/6PrFGz+o1vJmQ6rhV72g20CjGBTipCgy6xee
4pB0T5/mZT/RMDzTAm9p4cB1APUXgJD9
-----END CERTIFICATE-----
