Certificate:
    Data:
        Version: 3 (0x2)
        Serial Number:
            97:13:30:7d:8c:3f:71:14:2b:53:a9:b7:df:7b:1c:8a
        Signature Algorithm: sha256WithRSAEncryption
        Issuer: CN=team17-net
        Validity
            Not Before: Apr 20 22:53:48 2023 GMT
            Not After : Apr  4 22:53:48 2026 GMT
        Subject: CN=team17-client
        Subject Public Key Info:
            Public Key Algorithm: rsaEncryption
                Public-Key: (2048 bit)
                Modulus:
                    00:e0:27:74:bf:89:92:2d:66:4e:dc:fd:76:ef:6b:
                    9a:c5:59:f6:4d:3c:2e:29:56:98:54:f0:21:9f:73:
                    c7:a0:da:99:c9:db:8d:bd:10:48:e0:62:97:23:97:
                    2c:65:fa:6c:c1:e0:35:07:c5:f3:46:af:0f:9c:33:
                    49:d5:bc:1a:30:a2:7a:1f:33:c7:de:7e:f9:af:b9:
                    b3:b9:0d:f8:0b:d3:b3:a6:4b:fa:86:fa:01:4f:0b:
                    a0:cc:81:a0:ac:2b:c1:01:25:b0:02:9e:7f:4e:7e:
                    3b:7d:cf:16:f9:f8:c9:60:59:28:79:b7:63:29:cd:
                    ed:f4:56:52:05:fe:6f:1b:c5:3a:a9:ef:af:b9:41:
                    44:12:c4:2d:6a:c6:7d:c9:dc:d0:27:81:b0:97:62:
                    c5:4f:d6:8c:44:31:84:bb:95:16:87:c3:ac:ee:e2:
                    b0:07:de:d7:5a:47:70:f0:a4:23:43:81:4b:42:e3:
                    b1:bf:ac:fb:78:ff:a3:ae:78:99:4f:af:b1:9a:6b:
                    4e:ae:2e:b4:b6:e1:5d:20:f8:0e:3a:0b:dd:26:d5:
                    2b:99:8b:05:46:42:db:5f:9a:6d:e0:7f:de:73:b3:
                    b0:ef:58:79:b6:dd:b6:16:d4:61:50:78:3d:aa:70:
                    ed:c1:ca:9c:0d:a9:3e:5b:93:ca:f0:58:44:a3:61:
                    2e:93
                Exponent: 65537 (0x10001)
        X509v3 extensions:
            X509v3 Basic Constraints: 
                CA:FALSE
            X509v3 Subject Key Identifier: 
                A9:55:FE:B9:38:BD:F0:97:DF:6A:72:74:9D:D4:46:8A:0A:78:24:D9
            X509v3 Authority Key Identifier: 
                keyid:E7:63:54:B4:64:8C:01:60:92:10:B1:F6:C7:B7:30:A0:ED:EE:68:62
                DirName:/CN=team17-net
                serial:04:ED:DA:04:BA:4D:53:09:66:30:04:5C:A6:0F:59:A3:FF:7B:F2:67
            X509v3 Extended Key Usage: 
                TLS Web Client Authentication
            X509v3 Key Usage: 
                Digital Signature
    Signature Algorithm: sha256WithRSAEncryption
    Signature Value:
        69:56:8c:7d:93:79:fd:b7:83:d5:8d:6e:8e:0e:7e:03:ba:51:
        d4:92:9e:0c:e9:98:e0:16:31:41:64:06:31:9b:e1:a4:ab:8b:
        ac:e7:33:54:25:19:eb:7a:46:3f:8f:92:ad:cc:94:b0:d1:ec:
        68:36:60:5b:32:e5:43:02:6f:6c:9b:11:d6:9a:b0:09:73:76:
        11:9a:83:12:34:3f:66:fd:82:02:64:82:62:1a:c1:4f:7a:96:
        ff:f4:14:33:cf:de:93:57:da:1b:82:8b:38:b8:10:42:78:d7:
        0d:75:d6:75:fe:b5:ee:fc:a8:1e:57:5d:b6:44:33:4f:47:02:
        bd:e2:95:ae:e5:2d:60:e3:e6:c0:1d:f9:58:c1:73:fa:35:0d:
        fb:94:63:c6:6c:f6:76:45:0d:2e:d1:ee:12:6d:d5:29:8a:75:
        04:94:fa:19:f6:1e:54:62:6a:b1:37:51:d7:9b:32:47:95:4a:
        34:08:75:aa:ad:ad:5c:86:4c:8a:0d:4b:26:d4:9d:2b:bb:08:
        29:3f:33:01:30:10:6b:98:1a:b3:32:8e:23:c9:ac:75:05:f0:
        81:b2:26:82:07:2e:7b:0e:5c:01:6e:e7:49:16:04:44:83:ce:
        ee:23:98:7d:44:f4:92:e6:08:5b:b3:6b:54:ee:4e:f5:2d:bc:
        4e:a5:58:c0
-----BEGIN CERTIFICATE-----
MIIDWjCCAkKgAwIBAgIRAJcTMH2MP3EUK1Opt997HIowDQYJKoZIhvcNAQELBQAw
FTETMBEGA1UEAwwKdGVhbTE3LW5ldDAeFw0yMzA0MjAyMjUzNDhaFw0yNjA0MDQy
MjUzNDhaMBgxFjAUBgNVBAMMDXRlYW0xNy1jbGllbnQwggEiMA0GCSqGSIb3DQEB
AQUAA4IBDwAwggEKAoIBAQDgJ3S/iZItZk7c/Xbva5rFWfZNPC4pVphU8CGfc8eg
2pnJ2429EEjgYpcjlyxl+mzB4DUHxfNGrw+cM0nVvBowonofM8fefvmvubO5DfgL
07OmS/qG+gFPC6DMgaCsK8EBJbACnn9Ofjt9zxb5+MlgWSh5t2Mpze30VlIF/m8b
xTqp76+5QUQSxC1qxn3J3NAngbCXYsVP1oxEMYS7lRaHw6zu4rAH3tdaR3DwpCND
gUtC47G/rPt4/6OueJlPr7Gaa06uLrS24V0g+A46C90m1SuZiwVGQttfmm3gf95z
s7DvWHm23bYW1GFQeD2qcO3BypwNqT5bk8rwWESjYS6TAgMBAAGjgaEwgZ4wCQYD
VR0TBAIwADAdBgNVHQ4EFgQUqVX+uTi98JffanJ0ndRGigp4JNkwUAYDVR0jBEkw
R4AU52NUtGSMAWCSELH2x7cwoO3uaGKhGaQXMBUxEzARBgNVBAMMCnRlYW0xNy1u
ZXSCFATt2gS6TVMJZjAEXKYPWaP/e/JnMBMGA1UdJQQMMAoGCCsGAQUFBwMCMAsG
A1UdDwQEAwIHgDANBgkqhkiG9w0BAQsFAAOCAQEAaVaMfZN5/beD1Y1ujg5+A7pR
1JKeDOmY4BYxQWQGMZvhpKuLrOczVCUZ63pGP4+SrcyUsNHsaDZgWzLlQwJvbJsR
1pqwCXN2EZqDEjQ/Zv2CAmSCYhrBT3qW//QUM8/ek1faG4KLOLgQQnjXDXXWdf61
7vyoHlddtkQzT0cCveKVruUtYOPmwB35WMFz+jUN+5Rjxmz2dkUNLtHuEm3VKYp1
BJT6GfYeVGJqsTdR15syR5VKNAh1qq2tXIZMig1LJtSdK7sIKT8zATAQa5gaszKO
I8msdQXwgbImggcuew5cAW7nSRYERIPO7iOYfUT0kuYIW7NrVO5O9S28TqVYwA==
-----END CERTIFICATE-----
