Certificate:
    Data:
        Version: 3 (0x2)
        Serial Number:
            02:74:e4:e9:1f:e4:7c:dc:f5:4f:14:6c:d9:3b:b0:f3
        Signature Algorithm: sha256WithRSAEncryption
        Issuer: CN=team53-net
        Validity
            Not Before: Apr 20 00:11:11 2023 GMT
            Not After : Apr  4 00:11:11 2026 GMT
        Subject: CN=team53-server
        Subject Public Key Info:
            Public Key Algorithm: rsaEncryption
                Public-Key: (2048 bit)
                Modulus:
                    00:d7:82:7e:42:66:65:75:82:83:5f:3a:48:df:d5:
                    e7:dd:7c:0b:8e:d6:a5:14:be:1d:ef:b3:eb:7d:6a:
                    77:28:c9:73:b3:d2:ff:f7:9f:16:1d:15:d9:f0:8f:
                    97:67:dd:80:86:1f:3f:29:f9:61:42:d7:4b:11:b6:
                    25:aa:4c:bd:dd:21:dc:6f:71:98:6a:66:35:1d:1c:
                    60:f5:ca:5c:92:fb:74:39:4e:b7:df:ab:d9:d0:fb:
                    fb:c8:09:90:c4:9a:7b:62:8a:78:4e:87:25:92:e5:
                    20:93:3a:62:e8:cf:24:36:71:ac:84:bf:a5:6e:e5:
                    d2:c8:a4:7e:76:be:83:8f:60:96:1e:e9:0c:25:5f:
                    32:bf:c3:ea:f5:f3:9f:8c:a5:1c:3e:61:d8:bb:f9:
                    3b:45:d1:e4:28:67:eb:8a:24:11:15:fa:53:56:4b:
                    d6:9d:87:b9:67:77:e9:12:05:34:5e:6a:97:f0:95:
                    eb:30:5b:6a:34:80:15:96:25:07:e2:e7:32:df:26:
                    eb:19:7f:d0:14:83:c9:b0:b5:8d:67:29:06:60:1e:
                    12:bf:24:e9:5f:45:da:54:aa:ae:16:6a:25:dc:48:
                    85:6d:1d:61:44:08:f5:c7:c7:33:8e:87:18:09:0d:
                    92:a7:62:2c:8d:e1:f9:1e:b1:cc:85:7c:bb:53:3b:
                    03:f1
                Exponent: 65537 (0x10001)
        X509v3 extensions:
            X509v3 Basic Constraints: 
                CA:FALSE
            X509v3 Subject Key Identifier: 
                7D:CE:03:4C:DF:63:A4:BA:EB:8A:B7:34:B5:FF:0B:EB:DC:4B:DE:F8
            X509v3 Authority Key Identifier: 
                keyid:6E:E5:1B:BE:E4:21:B7:D7:EE:A5:C6:3A:45:92:D2:49:06:AB:00:1A
                DirName:/CN=team53-net
                serial:62:4B:F9:9F:C1:BB:E7:36:29:A3:90:55:1A:DE:39:C3:FF:A1:58:A3
            X509v3 Extended Key Usage: 
                TLS Web Server Authentication
            X509v3 Key Usage: 
                Digital Signature, Key Encipherment
            X509v3 Subject Alternative Name: 
                DNS:team53-server
    Signature Algorithm: sha256WithRSAEncryption
    Signature Value:
        85:71:dd:83:ac:c8:26:e9:2b:a7:e7:b6:d4:31:c3:fb:98:4c:
        05:75:26:a5:cb:89:4a:58:26:5e:a1:70:98:38:bc:48:6b:de:
        48:7e:ab:61:94:1d:65:f0:19:97:e0:f1:8d:e8:87:c1:08:73:
        94:ef:5d:2b:fb:8b:d9:fc:6b:77:cc:f0:4f:ec:ec:99:af:a3:
        7f:71:d6:4a:57:5c:42:ff:d9:58:cf:28:b2:9a:f1:66:f4:1a:
        13:71:fd:63:a8:9e:44:28:d6:ee:0b:63:df:e7:af:43:f2:7b:
        79:40:e4:59:bc:a7:a5:cf:4c:a2:73:e3:92:65:6e:b4:b8:61:
        e7:83:d7:9a:5f:85:b0:82:28:c2:c3:7b:d7:32:36:80:2a:d7:
        d7:5d:8b:69:75:a7:8a:ac:c1:8e:10:f2:6d:a7:a1:11:61:e0:
        c8:52:09:7e:d2:b8:d8:a8:5a:5b:1a:bf:8f:5b:bc:b0:ca:0d:
        11:c6:64:d0:20:61:36:5d:55:db:53:76:cb:9c:90:48:37:76:
        b7:f4:21:86:e1:6c:94:11:41:71:5b:0d:f0:71:1c:48:4c:4c:
        ac:12:85:5f:1f:cf:01:28:8d:ce:62:82:ce:5b:4c:33:e3:8a:
        03:1a:71:aa:45:44:77:67:e7:82:77:74:22:0c:ad:75:75:89:
        bf:03:4c:91
-----BEGIN CERTIFICATE-----
MIIDczCCAlugAwIBAgIQAnTk6R/kfNz1TxRs2Tuw8zANBgkqhkiG9w0BAQsFADAV
MRMwEQYDVQQDDAp0ZWFtNTMtbmV0MB4XDTIzMDQyMDAwMTExMVoXDTI2MDQwNDAw
MTExMVowGDEWMBQGA1UEAwwNdGVhbTUzLXNlcnZlcjCCASIwDQYJKoZIhvcNAQEB
BQADggEPADCCAQoCggEBANeCfkJmZXWCg186SN/V5918C47WpRS+He+z631qdyjJ
c7PS//efFh0V2fCPl2fdgIYfPyn5YULXSxG2JapMvd0h3G9xmGpmNR0cYPXKXJL7
dDlOt9+r2dD7+8gJkMSae2KKeE6HJZLlIJM6YujPJDZxrIS/pW7l0sikfna+g49g
lh7pDCVfMr/D6vXzn4ylHD5h2Lv5O0XR5Chn64okERX6U1ZL1p2HuWd36RIFNF5q
l/CV6zBbajSAFZYlB+LnMt8m6xl/0BSDybC1jWcpBmAeEr8k6V9F2lSqrhZqJdxI
hW0dYUQI9cfHM46HGAkNkqdiLI3h+R6xzIV8u1M7A/ECAwEAAaOBuzCBuDAJBgNV
HRMEAjAAMB0GA1UdDgQWBBR9zgNM32OkuuuKtzS1/wvr3Eve+DBQBgNVHSMESTBH
gBRu5Ru+5CG31+6lxjpFktJJBqsAGqEZpBcwFTETMBEGA1UEAwwKdGVhbTUzLW5l
dIIUYkv5n8G75zYpo5BVGt45w/+hWKMwEwYDVR0lBAwwCgYIKwYBBQUHAwEwCwYD
VR0PBAQDAgWgMBgGA1UdEQQRMA+CDXRlYW01My1zZXJ2ZXIwDQYJKoZIhvcNAQEL
BQADggEBAIVx3YOsyCbpK6fnttQxw/uYTAV1JqXLiUpYJl6hcJg4vEhr3kh+q2GU
HWXwGZfg8Y3oh8EIc5TvXSv7i9n8a3fM8E/s7Jmvo39x1kpXXEL/2VjPKLKa8Wb0
GhNx/WOonkQo1u4LY9/nr0Pye3lA5Fm8p6XPTKJz45JlbrS4YeeD15pfhbCCKMLD
e9cyNoAq19ddi2l1p4qswY4Q8m2noRFh4MhSCX7SuNioWlsav49bvLDKDRHGZNAg
YTZdVdtTdsuckEg3drf0IYbhbJQRQXFbDfBxHEhMTKwShV8fzwEojc5igs5bTDPj
igMacapFRHdn54J3dCIMrXV1ib8DTJE=
-----END CERTIFICATE-----
