Certificate:
    Data:
        Version: 3 (0x2)
        Serial Number:
            09:8d:16:74:ab:6d:02:0d:d6:3d:09:f3:74:d9:40:0b
        Signature Algorithm: sha256WithRSAEncryption
        Issuer: CN=team53-net
        Validity
            Not Before: Apr 20 22:54:48 2023 GMT
            Not After : Apr  4 22:54:48 2026 GMT
        Subject: CN=team53-client
        Subject Public Key Info:
            Public Key Algorithm: rsaEncryption
                Public-Key: (2048 bit)
                Modulus:
                    00:a8:79:43:03:65:11:ac:52:2b:a4:53:cc:68:5d:
                    a9:84:2c:79:c7:01:15:6c:bb:64:bd:00:2b:9a:bc:
                    2f:bd:1c:8f:da:a2:3a:b1:b7:b2:0c:d5:04:6e:ff:
                    d0:49:f3:6d:9d:df:d0:1f:80:8b:56:b5:20:2c:65:
                    22:4e:f3:eb:7a:f4:1d:47:6a:88:5c:fe:83:1d:8e:
                    aa:b6:81:1d:ae:db:c0:b6:6c:8e:3c:2e:51:76:d6:
                    e6:ad:09:f7:79:5c:75:80:33:d7:c2:7b:21:46:a3:
                    3d:31:25:e9:89:b2:4d:d6:23:53:4b:23:77:47:5f:
                    d8:56:50:c4:37:bb:80:77:26:ec:6d:49:15:ea:7e:
                    05:29:33:bc:4d:b3:69:9a:37:1a:00:87:94:ed:a7:
                    b4:b5:51:35:1a:20:48:3c:f5:c6:01:4b:f4:9b:5c:
                    50:21:23:ee:37:28:73:23:17:00:75:78:aa:9c:4d:
                    19:f5:f0:05:6a:d2:56:34:b6:98:7c:30:79:4c:ca:
                    bd:2d:10:82:d8:0d:d2:a2:30:87:b1:8d:28:f7:69:
                    e3:e0:d6:23:55:51:58:d9:8d:64:c9:0e:cd:56:08:
                    e5:dd:43:b8:37:0b:b1:a6:90:9f:47:bc:1e:0e:1f:
                    0c:3b:da:84:38:10:66:27:7c:6f:a5:43:c7:7a:40:
                    bb:49
                Exponent: 65537 (0x10001)
        X509v3 extensions:
            X509v3 Basic Constraints: 
                CA:FALSE
            X509v3 Subject Key Identifier: 
                57:DD:0F:5C:6D:9B:12:DA:EF:0E:41:02:B7:BF:32:0E:56:B4:C5:44
            X509v3 Authority Key Identifier: 
                keyid:FD:0E:9C:24:A2:35:DF:14:4B:3C:A6:0F:AD:6C:57:F3:B6:A9:F6:FB
                DirName:/CN=team53-net
                serial:28:17:7C:90:6F:25:8D:EC:28:9F:B9:A6:D4:3D:59:D7:ED:F7:05:23
            X509v3 Extended Key Usage: 
                TLS Web Client Authentication
            X509v3 Key Usage: 
                Digital Signature
    Signature Algorithm: sha256WithRSAEncryption
    Signature Value:
        07:f9:26:9a:36:c7:fb:77:91:41:4f:54:f9:71:91:a1:74:17:
        92:c8:90:db:eb:3c:b3:02:76:fa:c0:4e:06:0c:bf:c2:66:95:
        55:a5:73:aa:18:37:00:3f:e2:5f:a7:4b:09:a2:41:5e:9b:6a:
        05:76:f5:e3:1d:70:37:c9:3e:3e:ed:b9:ef:ad:70:c4:7f:89:
        a2:b7:de:33:76:d2:b8:80:87:92:c7:e9:90:32:aa:4c:7b:28:
        57:76:0c:14:2e:ed:20:55:aa:23:ff:8e:5e:a4:ee:bc:fd:92:
        95:9c:c3:3b:98:27:e2:cc:49:ea:70:17:66:08:ac:4d:25:25:
        c9:85:98:73:66:34:9d:ae:cd:cd:27:9f:8a:ac:92:12:59:58:
        35:11:23:34:2c:ed:67:16:29:b7:be:2a:25:f1:f8:a9:51:c6:
        1e:d1:a9:ba:75:e7:78:06:43:b9:73:d0:f2:24:81:28:2b:0b:
        17:7b:f1:c7:a8:6d:ab:80:a0:1f:d5:8e:78:9b:8e:d2:bc:21:
        ff:16:f8:30:6a:ff:77:6e:32:59:57:a5:03:d2:9e:38:97:99:
        70:fc:89:23:24:16:0a:6e:ef:52:c6:a6:0a:66:3d:26:a5:bd:
        60:53:b0:b1:59:2a:88:7b:4d:b4:af:dd:4b:ef:3a:c1:a4:bd:
        95:fe:3c:e1
-----BEGIN CERTIFICATE-----
MIIDWTCCAkGgAwIBAgIQCY0WdKttAg3WPQnzdNlACzANBgkqhkiG9w0BAQsFADAV
MRMwEQYDVQQDDAp0ZWFtNTMtbmV0MB4XDTIzMDQyMDIyNTQ0OFoXDTI2MDQwNDIy
NTQ0OFowGDEWMBQGA1UEAwwNdGVhbTUzLWNsaWVudDCCASIwDQYJKoZIhvcNAQEB
BQADggEPADCCAQoCggEBAKh5QwNlEaxSK6RTzGhdqYQseccBFWy7ZL0AK5q8L70c
j9qiOrG3sgzVBG7/0EnzbZ3f0B+Ai1a1ICxlIk7z63r0HUdqiFz+gx2OqraBHa7b
wLZsjjwuUXbW5q0J93lcdYAz18J7IUajPTEl6YmyTdYjU0sjd0df2FZQxDe7gHcm
7G1JFep+BSkzvE2zaZo3GgCHlO2ntLVRNRogSDz1xgFL9JtcUCEj7jcocyMXAHV4
qpxNGfXwBWrSVjS2mHwweUzKvS0QgtgN0qIwh7GNKPdp4+DWI1VRWNmNZMkOzVYI
5d1DuDcLsaaQn0e8Hg4fDDvahDgQZid8b6VDx3pAu0kCAwEAAaOBoTCBnjAJBgNV
HRMEAjAAMB0GA1UdDgQWBBRX3Q9cbZsS2u8OQQK3vzIOVrTFRDBQBgNVHSMESTBH
gBT9DpwkojXfFEs8pg+tbFfztqn2+6EZpBcwFTETMBEGA1UEAwwKdGVhbTUzLW5l
dIIUKBd8kG8ljewon7mm1D1Z1+33BSMwEwYDVR0lBAwwCgYIKwYBBQUHAwIwCwYD
VR0PBAQDAgeAMA0GCSqGSIb3DQEBCwUAA4IBAQAH+SaaNsf7d5FBT1T5cZGhdBeS
yJDb6zyzAnb6wE4GDL/CZpVVpXOqGDcAP+Jfp0sJokFem2oFdvXjHXA3yT4+7bnv
rXDEf4mit94zdtK4gIeSx+mQMqpMeyhXdgwULu0gVaoj/45epO68/ZKVnMM7mCfi
zEnqcBdmCKxNJSXJhZhzZjSdrs3NJ5+KrJISWVg1ESM0LO1nFim3viol8fipUcYe
0am6ded4BkO5c9DyJIEoKwsXe/HHqG2rgKAf1Y54m47SvCH/Fvgwav93bjJZV6UD
0p44l5lw/IkjJBYKbu9SxqYKZj0mpb1gU7CxWSqIe020r91L7zrBpL2V/jzh
-----END CERTIFICATE-----
