Certificate:
    Data:
        Version: 3 (0x2)
        Serial Number:
            83:bd:54:38:f0:5b:98:b8:5f:51:68:c6:8b:55:6a:c5
        Signature Algorithm: sha256WithRSAEncryption
        Issuer: CN=team53-net
        Validity
            Not Before: Apr 20 00:11:11 2023 GMT
            Not After : Apr  4 00:11:11 2026 GMT
        Subject: CN=team53-client
        Subject Public Key Info:
            Public Key Algorithm: rsaEncryption
                Public-Key: (2048 bit)
                Modulus:
                    00:9e:d9:cc:7a:b1:5b:25:60:13:d6:19:44:2a:02:
                    5b:e4:2a:88:a3:7f:94:70:c0:0c:27:c8:e3:d7:68:
                    ad:97:f8:10:d3:b3:ce:5b:e9:2e:72:e5:fb:e5:c6:
                    da:55:1b:2d:4d:c1:a1:ba:54:e6:ad:ed:5d:f6:c4:
                    04:1d:00:31:c5:18:23:87:e1:0e:6d:d8:53:7d:0f:
                    42:82:0c:0c:b8:a4:7f:dc:d4:8f:75:40:2e:bd:ec:
                    a7:97:30:35:08:3e:fb:a3:46:55:53:c9:ed:b8:b7:
                    42:5b:7c:bf:93:86:4a:72:f2:57:a0:26:77:61:50:
                    a4:b6:fd:f7:ed:5e:11:37:94:ef:36:d5:4e:c8:d9:
                    65:33:06:ca:15:96:d3:e2:0a:b7:48:a7:e0:5c:6c:
                    dc:7d:15:d3:f1:69:34:e1:4d:ef:6b:72:0e:59:db:
                    86:8e:95:21:0e:38:c2:b5:c4:bc:2d:8a:7a:dc:fe:
                    3c:a1:e2:9f:d8:72:1e:91:ea:b1:21:3c:16:22:39:
                    cf:0d:95:c7:14:0e:12:73:91:10:fc:25:5a:07:70:
                    ed:0e:99:83:9e:84:25:eb:f6:80:88:6a:90:d0:33:
                    67:b4:a6:01:de:f4:e7:9d:40:f5:36:ee:d3:89:db:
                    c4:7a:79:0a:dd:5d:5e:e4:e5:55:3d:43:98:9f:d0:
                    ba:3b
                Exponent: 65537 (0x10001)
        X509v3 extensions:
            X509v3 Basic Constraints: 
                CA:FALSE
            X509v3 Subject Key Identifier: 
                28:56:0C:41:B8:AA:1F:8A:ED:23:BB:81:CE:5A:FA:FF:7E:C2:D1:0E
            X509v3 Authority Key Identifier: 
                keyid:6E:E5:1B:BE:E4:21:B7:D7:EE:A5:C6:3A:45:92:D2:49:06:AB:00:1A
                DirName:/CN=team53-net
                serial:62:4B:F9:9F:C1:BB:E7:36:29:A3:90:55:1A:DE:39:C3:FF:A1:58:A3
            X509v3 Extended Key Usage: 
                TLS Web Client Authentication
            X509v3 Key Usage: 
                Digital Signature
    Signature Algorithm: sha256WithRSAEncryption
    Signature Value:
        31:b5:21:58:9f:34:24:8a:ea:09:57:b1:80:bc:9a:d0:b9:20:
        7b:8f:c3:42:62:1f:75:7a:19:6c:83:70:a0:f5:30:1f:dc:71:
        4e:53:07:8f:6d:dd:e4:ad:66:95:00:9d:aa:a2:0f:7e:3a:cb:
        3c:42:b0:02:de:a1:71:c3:41:6e:31:75:39:a0:a5:00:42:04:
        d9:fb:68:61:33:d8:ac:3f:15:9b:98:2c:69:d3:e9:92:9c:29:
        68:0e:43:61:ce:40:52:9c:1a:d4:7e:2e:8c:88:d1:82:ad:a6:
        c7:97:d1:92:e7:12:d2:55:2e:8d:c8:a7:8d:02:88:dd:4d:95:
        c0:d1:de:50:39:9a:7c:64:16:5c:e2:33:73:e2:a1:18:f8:6a:
        07:1a:ef:f0:9f:24:23:23:96:34:d4:97:c7:57:81:04:57:47:
        a4:67:76:16:1f:b3:30:f6:0c:32:08:44:d0:29:f0:fb:be:f2:
        c4:c6:bd:1d:1b:74:99:f3:7e:05:64:d6:97:64:91:de:a8:34:
        43:88:f5:01:1b:22:ab:dd:fb:32:c5:14:3c:c5:aa:d5:62:e3:
        79:9b:4f:4c:68:81:a4:48:27:d2:cb:bd:7c:a7:29:2f:3d:2d:
        40:bf:98:11:36:19:e2:a2:83:b5:0a:c9:95:e5:39:fb:33:ae:
        c1:65:76:7e
-----BEGIN CERTIFICATE-----
MIIDWjCCAkKgAwIBAgIRAIO9VDjwW5i4X1FoxotVasUwDQYJKoZIhvcNAQELBQAw
FTETMBEGA1UEAwwKdGVhbTUzLW5ldDAeFw0yMzA0MjAwMDExMTFaFw0yNjA0MDQw
MDExMTFaMBgxFjAUBgNVBAMMDXRlYW01My1jbGllbnQwggEiMA0GCSqGSIb3DQEB
AQUAA4IBDwAwggEKAoIBAQCe2cx6sVslYBPWGUQqAlvkKoijf5RwwAwnyOPXaK2X
+BDTs85b6S5y5fvlxtpVGy1NwaG6VOat7V32xAQdADHFGCOH4Q5t2FN9D0KCDAy4
pH/c1I91QC697KeXMDUIPvujRlVTye24t0JbfL+Thkpy8legJndhUKS2/fftXhE3
lO821U7I2WUzBsoVltPiCrdIp+BcbNx9FdPxaTThTe9rcg5Z24aOlSEOOMK1xLwt
inrc/jyh4p/Ych6R6rEhPBYiOc8NlccUDhJzkRD8JVoHcO0OmYOehCXr9oCIapDQ
M2e0pgHe9OedQPU27tOJ28R6eQrdXV7k5VU9Q5if0Lo7AgMBAAGjgaEwgZ4wCQYD
VR0TBAIwADAdBgNVHQ4EFgQUKFYMQbiqH4rtI7uBzlr6/37C0Q4wUAYDVR0jBEkw
R4AUbuUbvuQht9fupcY6RZLSSQarABqhGaQXMBUxEzARBgNVBAMMCnRlYW01My1u
ZXSCFGJL+Z/Bu+c2KaOQVRreOcP/oVijMBMGA1UdJQQMMAoGCCsGAQUFBwMCMAsG
A1UdDwQEAwIHgDANBgkqhkiG9w0BAQsFAAOCAQEAMbUhWJ80JIrqCVexgLya0Lkg
e4/DQmIfdXoZbINwoPUwH9xxTlMHj23d5K1mlQCdqqIPfjrLPEKwAt6hccNBbjF1
OaClAEIE2ftoYTPYrD8Vm5gsadPpkpwpaA5DYc5AUpwa1H4ujIjRgq2mx5fRkucS
0lUujcinjQKI3U2VwNHeUDmafGQWXOIzc+KhGPhqBxrv8J8kIyOWNNSXx1eBBFdH
pGd2Fh+zMPYMMghE0Cnw+77yxMa9HRt0mfN+BWTWl2SR3qg0Q4j1ARsiq937MsUU
PMWq1WLjeZtPTGiBpEgn0su9fKcpLz0tQL+YETYZ4qKDtQrJleU5+zOuwWV2fg==
-----END CERTIFICATE-----
