Certificate:
    Data:
        Version: 3 (0x2)
        Serial Number:
            db:3d:fc:16:cf:e1:74:1e:0e:4e:15:44:d3:8c:93:02
        Signature Algorithm: sha256WithRSAEncryption
        Issuer: CN=team53-net
        Validity
            Not Before: Apr 20 22:54:49 2023 GMT
            Not After : Apr  4 22:54:49 2026 GMT
        Subject: CN=team53-server
        Subject Public Key Info:
            Public Key Algorithm: rsaEncryption
                Public-Key: (2048 bit)
                Modulus:
                    00:8b:9d:38:d4:94:6f:c4:86:69:0c:04:48:2d:00:
                    d6:5b:b1:ea:a2:18:ea:86:0a:47:96:03:6e:17:11:
                    05:85:ee:25:7e:93:b9:fd:13:4f:04:c6:bf:67:26:
                    3f:8b:2f:64:65:10:3d:49:8e:63:25:5c:bb:4a:25:
                    53:a7:06:60:1e:bd:e5:d0:a0:87:62:4d:b4:4a:34:
                    bc:03:ba:00:6f:df:cd:36:2a:de:2c:5a:a1:9f:b4:
                    3b:1f:bb:e4:b2:31:ea:3e:dd:80:0b:52:8e:4e:4f:
                    7d:b1:9a:78:58:b6:e5:66:44:d8:28:7b:fc:2f:f9:
                    d3:13:cf:68:c6:47:32:44:3d:c3:80:4a:c4:b8:d5:
                    87:fd:fa:1b:66:28:6b:a7:84:98:08:b6:c7:7f:a9:
                    46:05:58:8c:81:44:d8:82:12:bf:a7:12:38:b0:4e:
                    5f:6a:0d:9a:1c:51:c6:2e:90:04:71:58:da:72:c2:
                    51:87:df:1a:75:06:83:52:e0:9a:51:dd:21:b4:3f:
                    31:82:6d:d3:c1:32:2c:9e:f5:00:91:4c:ac:68:e2:
                    77:eb:b7:c4:7d:76:df:7e:22:2f:70:c8:48:82:85:
                    c0:e2:d9:54:55:23:7d:2e:67:ed:b2:87:bd:fb:8e:
                    f3:7d:d7:38:bd:bc:79:c1:54:30:4e:00:7d:9a:d7:
                    e3:11
                Exponent: 65537 (0x10001)
        X509v3 extensions:
            X509v3 Basic Constraints: 
                CA:FALSE
            X509v3 Subject Key Identifier: 
                F4:83:1D:1B:78:F0:03:A6:A2:67:04:4C:FA:5C:C4:CF:30:00:6A:56
            X509v3 Authority Key Identifier: 
                keyid:FD:0E:9C:24:A2:35:DF:14:4B:3C:A6:0F:AD:6C:57:F3:B6:A9:F6:FB
                DirName:/CN=team53-net
                serial:28:17:7C:90:6F:25:8D:EC:28:9F:B9:A6:D4:3D:59:D7:ED:F7:05:23
            X509v3 Extended Key Usage: 
                TLS Web Server Authentication
            X509v3 Key Usage: 
                Digital Signature, Key Encipherment
            X509v3 Subject Alternative Name: 
                DNS:team53-server
    Signature Algorithm: sha256WithRSAEncryption
    Signature Value:
        4b:ef:c7:3b:4c:b8:1a:86:84:8a:f7:01:47:54:fa:14:1d:02:
        86:f3:9f:ae:d6:6c:be:8b:fa:0a:5b:79:e3:75:d6:11:16:f9:
        5b:1f:04:64:59:66:45:ee:c4:64:a4:6c:35:24:19:bb:fd:be:
        dc:33:67:66:cb:2b:3e:ba:e5:6c:09:1a:8a:6c:45:f4:c6:65:
        82:fe:b3:dd:12:6e:19:2f:d9:5a:f4:33:47:27:49:5d:02:81:
        6c:c7:38:18:c7:a7:ef:25:08:00:2d:2e:57:94:85:73:7f:34:
        92:a9:95:0f:11:05:fd:bf:cb:ad:81:37:f7:af:a8:d9:f0:d5:
        cd:de:cf:38:4b:a5:87:b6:de:1c:c6:09:f1:e9:f6:e3:f3:6c:
        5b:7b:5b:60:f3:96:16:77:71:86:55:c5:51:48:ae:95:bf:ea:
        a7:38:3e:d2:39:60:cc:d0:0b:c6:fa:1a:ce:bf:49:fd:7d:9d:
        af:0a:a5:a9:f8:08:c2:59:ee:89:73:ad:40:cb:64:1e:7d:f7:
        22:1f:66:4f:82:17:7f:4a:51:09:9b:6b:3a:8c:db:eb:40:85:
        41:00:3a:c5:4c:6c:72:d0:84:84:18:7e:8c:3a:d8:cc:6b:c4:
        0d:68:28:c9:d6:d0:87:fa:dd:4d:a1:66:c6:27:07:87:f6:f6:
        0b:da:7f:45
-----BEGIN CERTIFICATE-----
MIIDdDCCAlygAwIBAgIRANs9/BbP4XQeDk4VRNOMkwIwDQYJKoZIhvcNAQELBQAw
FTETMBEGA1UEAwwKdGVhbTUzLW5ldDAeFw0yMzA0MjAyMjU0NDlaFw0yNjA0MDQy
MjU0NDlaMBgxFjAUBgNVBAMMDXRlYW01My1zZXJ2ZXIwggEiMA0GCSqGSIb3DQEB
AQUAA4IBDwAwggEKAoIBAQCLnTjUlG/EhmkMBEgtANZbseqiGOqGCkeWA24XEQWF
7iV+k7n9E08Exr9nJj+LL2RlED1JjmMlXLtKJVOnBmAeveXQoIdiTbRKNLwDugBv
3802Kt4sWqGftDsfu+SyMeo+3YALUo5OT32xmnhYtuVmRNgoe/wv+dMTz2jGRzJE
PcOASsS41Yf9+htmKGunhJgItsd/qUYFWIyBRNiCEr+nEjiwTl9qDZocUcYukARx
WNpywlGH3xp1BoNS4JpR3SG0PzGCbdPBMiye9QCRTKxo4nfrt8R9dt9+Ii9wyEiC
hcDi2VRVI30uZ+2yh737jvN91zi9vHnBVDBOAH2a1+MRAgMBAAGjgbswgbgwCQYD
VR0TBAIwADAdBgNVHQ4EFgQU9IMdG3jwA6aiZwRM+lzEzzAAalYwUAYDVR0jBEkw
R4AU/Q6cJKI13xRLPKYPrWxX87ap9vuhGaQXMBUxEzARBgNVBAMMCnRlYW01My1u
ZXSCFCgXfJBvJY3sKJ+5ptQ9Wdft9wUjMBMGA1UdJQQMMAoGCCsGAQUFBwMBMAsG
A1UdDwQEAwIFoDAYBgNVHREEETAPgg10ZWFtNTMtc2VydmVyMA0GCSqGSIb3DQEB
CwUAA4IBAQBL78c7TLgahoSK9wFHVPoUHQKG85+u1my+i/oKW3njddYRFvlbHwRk
WWZF7sRkpGw1JBm7/b7cM2dmyys+uuVsCRqKbEX0xmWC/rPdEm4ZL9la9DNHJ0ld
AoFsxzgYx6fvJQgALS5XlIVzfzSSqZUPEQX9v8utgTf3r6jZ8NXN3s84S6WHtt4c
xgnx6fbj82xbe1tg85YWd3GGVcVRSK6Vv+qnOD7SOWDM0AvG+hrOv0n9fZ2vCqWp
+AjCWe6Jc61Ay2QeffciH2ZPghd/SlEJm2s6jNvrQIVBADrFTGxy0ISEGH6MOtjM
a8QNaCjJ1tCH+t1NoWbGJweH9vYL2n9F
-----END CERTIFICATE-----
