Certificate:
    Data:
        Version: 3 (0x2)
        Serial Number:
            73:20:5e:ea:6d:b8:1f:4e:e1:fa:e1:9a:ed:5a:b8:9e
        Signature Algorithm: sha256WithRSAEncryption
        Issuer: CN=team7-net
        Validity
            Not Before: Apr 20 22:53:32 2023 GMT
            Not After : Apr  4 22:53:32 2026 GMT
        Subject: CN=team7-server
        Subject Public Key Info:
            Public Key Algorithm: rsaEncryption
                Public-Key: (2048 bit)
                Modulus:
                    00:a8:02:90:fd:7a:00:94:37:51:23:30:14:86:30:
                    01:88:13:32:e5:5a:d4:3c:31:6d:03:c3:12:1a:0c:
                    ed:f0:2a:fd:87:29:6e:5c:14:ce:4d:6c:66:59:74:
                    08:87:c1:87:8b:35:3f:e5:28:87:a4:ef:6b:ab:15:
                    49:c0:28:c6:3e:13:9b:1c:3c:3f:b4:37:39:6a:a2:
                    8b:ce:c6:42:7e:9f:5c:9b:ca:35:38:cc:f9:b0:67:
                    12:90:e8:3f:4f:fb:03:34:7c:2c:c6:0c:c3:1d:a9:
                    9f:b1:a0:50:26:a3:01:53:a7:bd:b6:8a:41:6e:a3:
                    1f:99:c6:96:d9:d0:f4:0d:a9:76:7a:06:7c:86:99:
                    c7:6d:d1:1b:16:18:1e:28:01:73:4d:d1:5e:81:ad:
                    3c:b9:30:65:8c:ef:97:b5:0b:d6:c6:82:36:0b:94:
                    0a:6f:8d:ff:ab:89:38:e4:4b:14:4a:1a:6d:bb:78:
                    7f:98:4d:11:c8:0f:c2:96:f0:03:ab:db:b8:a8:2c:
                    f3:75:6e:60:85:67:b6:bb:e3:32:68:1a:15:18:7a:
                    d7:a7:13:76:35:70:22:f1:4a:7f:ad:f6:9d:bf:e0:
                    9e:17:ca:02:59:02:1f:2a:ea:0a:bd:02:55:9b:66:
                    61:0b:69:06:87:45:eb:4a:44:ed:a6:81:dd:2b:f5:
                    c5:bb
                Exponent: 65537 (0x10001)
        X509v3 extensions:
            X509v3 Basic Constraints: 
                CA:FALSE
            X509v3 Subject Key Identifier: 
                3D:50:A8:74:35:19:26:9A:E2:21:86:96:AD:EA:39:2A:C1:BB:22:D0
            X509v3 Authority Key Identifier: 
                keyid:D8:C9:91:E4:1C:BF:31:D3:8C:D8:37:FA:73:26:99:01:A7:0F:48:D6
                DirName:/CN=team7-net
                serial:76:EE:EA:60:7B:C3:6E:CE:FB:65:C1:F0:CC:A6:BE:67:37:7C:41:44
            X509v3 Extended Key Usage: 
                TLS Web Server Authentication
            X509v3 Key Usage: 
                Digital Signature, Key Encipherment
            X509v3 Subject Alternative Name: 
                DNS:team7-server
    Signature Algorithm: sha256WithRSAEncryption
    Signature Value:
        3e:e1:6f:cb:14:2d:8a:1c:8a:45:12:1c:63:c8:4b:3a:9c:6e:
        96:99:2c:19:aa:b3:12:77:9e:24:d3:59:b4:55:b8:f0:50:54:
        83:e4:cd:7b:03:ed:d3:fb:7a:81:67:f9:d4:01:a1:b1:e9:25:
        b8:d9:bf:a3:aa:c8:1f:11:6e:b1:8a:23:e6:af:39:b1:d0:e9:
        a0:3a:b5:a2:4f:5e:ea:17:bc:5d:9d:38:8f:36:2d:6d:fa:53:
        54:61:55:b9:e1:4c:dc:52:b4:28:5c:7d:a1:08:b4:d9:76:b4:
        19:57:67:9b:10:13:ef:a8:e8:e0:de:96:40:6c:96:a2:a2:d5:
        61:31:0e:23:43:bd:2e:93:6f:da:1a:4c:f1:86:a2:45:bb:21:
        f6:e6:30:ef:72:d2:ae:c4:08:b1:c6:ec:2b:bc:ed:e8:e9:fa:
        be:62:85:4b:5a:26:bf:61:0c:f9:0b:ca:57:3e:1b:15:fc:4b:
        7d:57:73:58:7c:5c:75:3f:6a:a5:c1:2d:11:5d:d5:ad:a6:42:
        b6:89:8f:71:87:24:b4:0b:a5:a3:12:4c:64:1b:f7:4f:c1:a0:
        db:f9:b3:04:6a:0d:96:e9:25:3f:30:6b:f6:03:d9:da:d6:f6:
        db:ed:54:26:db:8a:8a:53:d3:ff:1a:17:92:25:a6:08:4c:10:
        1f:33:22:a3
-----BEGIN CERTIFICATE-----
MIIDbzCCAlegAwIBAgIQcyBe6m24H07h+uGa7Vq4njANBgkqhkiG9w0BAQsFADAU
MRIwEAYDVQQDDAl0ZWFtNy1uZXQwHhcNMjMwNDIwMjI1MzMyWhcNMjYwNDA0MjI1
MzMyWjAXMRUwEwYDVQQDDAx0ZWFtNy1zZXJ2ZXIwggEiMA0GCSqGSIb3DQEBAQUA
A4IBDwAwggEKAoIBAQCoApD9egCUN1EjMBSGMAGIEzLlWtQ8MW0DwxIaDO3wKv2H
KW5cFM5NbGZZdAiHwYeLNT/lKIek72urFUnAKMY+E5scPD+0NzlqoovOxkJ+n1yb
yjU4zPmwZxKQ6D9P+wM0fCzGDMMdqZ+xoFAmowFTp722ikFuox+ZxpbZ0PQNqXZ6
BnyGmcdt0RsWGB4oAXNN0V6BrTy5MGWM75e1C9bGgjYLlApvjf+riTjkSxRKGm27
eH+YTRHID8KW8AOr27ioLPN1bmCFZ7a74zJoGhUYetenE3Y1cCLxSn+t9p2/4J4X
ygJZAh8q6gq9AlWbZmELaQaHRetKRO2mgd0r9cW7AgMBAAGjgbkwgbYwCQYDVR0T
BAIwADAdBgNVHQ4EFgQUPVCodDUZJpriIYaWreo5KsG7ItAwTwYDVR0jBEgwRoAU
2MmR5By/MdOM2Df6cyaZAacPSNahGKQWMBQxEjAQBgNVBAMMCXRlYW03LW5ldIIU
du7qYHvDbs77ZcHwzKa+Zzd8QUQwEwYDVR0lBAwwCgYIKwYBBQUHAwEwCwYDVR0P
BAQDAgWgMBcGA1UdEQQQMA6CDHRlYW03LXNlcnZlcjANBgkqhkiG9w0BAQsFAAOC
AQEAPuFvyxQtihyKRRIcY8hLOpxulpksGaqzEneeJNNZtFW48FBUg+TNewPt0/t6
gWf51AGhsekluNm/o6rIHxFusYoj5q85sdDpoDq1ok9e6he8XZ04jzYtbfpTVGFV
ueFM3FK0KFx9oQi02Xa0GVdnmxAT76jo4N6WQGyWoqLVYTEOI0O9LpNv2hpM8Yai
Rbsh9uYw73LSrsQIscbsK7zt6On6vmKFS1omv2EM+QvKVz4bFfxLfVdzWHxcdT9q
pcEtEV3VraZCtomPcYcktAuloxJMZBv3T8Gg2/mzBGoNluklPzBr9gPZ2tb22+1U
JtuKilPT/xoXkiWmCEwQHzMiow==
-----END CERTIFICATE-----
