Certificate:
    Data:
        Version: 3 (0x2)
        Serial Number:
            b5:7f:1c:a7:f7:3a:0a:d7:09:54:f3:3d:f8:98:27:54
        Signature Algorithm: sha256WithRSAEncryption
        Issuer: CN=team7-net
        Validity
            Not Before: Apr 20 22:53:32 2023 GMT
            Not After : Apr  4 22:53:32 2026 GMT
        Subject: CN=team7-client
        Subject Public Key Info:
            Public Key Algorithm: rsaEncryption
                Public-Key: (2048 bit)
                Modulus:
                    00:b9:90:e6:19:76:59:f9:e5:ce:92:55:dd:18:8c:
                    b5:74:21:72:72:68:ab:cc:e4:a4:c6:bc:fa:7e:f4:
                    05:04:f8:9b:e4:b1:a5:71:ec:ac:e6:b0:ce:4e:94:
                    de:21:38:cd:27:f9:e9:4b:76:b9:e2:12:91:cc:87:
                    51:90:ac:7b:53:b3:af:13:12:57:e6:35:48:48:ab:
                    37:fa:f9:8d:1b:e6:88:d8:34:78:b3:ed:3a:8c:ff:
                    5e:04:ad:d1:22:17:22:74:67:49:68:75:4f:f1:f9:
                    61:56:c0:eb:0c:ec:bf:76:27:52:45:ab:64:82:ec:
                    ff:86:a7:e0:13:51:9c:93:45:5e:ab:8e:a1:88:c8:
                    08:4f:1e:f1:ab:3c:6e:7b:3a:de:ac:a7:74:d2:58:
                    c6:79:92:c9:85:94:b8:1a:dd:d8:fb:82:08:3e:35:
                    7f:b2:fd:ad:fb:90:73:bd:b7:1d:a1:f0:76:4c:53:
                    6b:ad:fd:8e:59:e4:50:dd:b0:ee:6b:27:d8:c8:87:
                    f7:f0:be:b8:8b:f2:fd:7f:1e:b4:f5:94:33:b7:98:
                    6f:6c:82:35:e3:2b:fb:78:63:60:6f:7d:dd:b9:61:
                    2d:c6:d7:97:ad:8a:2b:e5:c5:36:bb:ba:9c:b8:31:
                    fb:c3:70:74:70:bb:84:de:33:ea:89:c6:b6:50:03:
                    66:b9
                Exponent: 65537 (0x10001)
        X509v3 extensions:
            X509v3 Basic Constraints: 
                CA:FALSE
            X509v3 Subject Key Identifier: 
                09:76:49:AB:25:65:BC:98:80:1E:65:25:37:EC:03:C0:EA:81:14:07
            X509v3 Authority Key Identifier: 
                keyid:D8:C9:91:E4:1C:BF:31:D3:8C:D8:37:FA:73:26:99:01:A7:0F:48:D6
                DirName:/CN=team7-net
                serial:76:EE:EA:60:7B:C3:6E:CE:FB:65:C1:F0:CC:A6:BE:67:37:7C:41:44
            X509v3 Extended Key Usage: 
                TLS Web Client Authentication
            X509v3 Key Usage: 
                Digital Signature
    Signature Algorithm: sha256WithRSAEncryption
    Signature Value:
        05:7f:19:cb:44:c9:0d:53:73:98:e9:23:00:10:50:98:91:a6:
        5d:87:23:6b:49:9b:42:49:51:b0:26:bd:25:8f:a9:41:e7:a0:
        1e:3b:d4:ab:35:46:71:28:ea:73:a9:2d:79:9a:1d:f3:b4:fb:
        47:6c:a4:7d:33:b5:ba:85:85:a2:8a:f4:ae:3f:79:1c:af:17:
        94:e7:1b:3d:42:9c:02:90:5d:87:52:38:20:95:00:27:f5:62:
        4a:2a:17:0b:f6:39:ad:d4:d6:0b:cd:ca:0b:f6:eb:d5:32:0e:
        f2:c2:9a:51:eb:9d:09:19:81:e7:de:54:9b:47:07:ac:4d:f3:
        12:9a:fd:b6:ca:53:11:4e:fa:80:85:87:4b:8b:a5:5e:c2:aa:
        92:e2:ce:ae:5f:3f:df:6a:9d:aa:94:2f:00:e7:85:21:27:37:
        30:74:6d:c0:38:c7:19:3d:41:11:f0:e3:13:80:7a:87:36:4e:
        9e:47:b9:c3:8a:2d:5f:66:ff:df:1e:5e:ce:30:30:92:2d:e2:
        b9:72:c3:a1:b2:91:3e:c3:ef:57:78:43:a2:2e:0e:5f:2f:eb:
        89:be:3f:87:80:d4:d8:ff:98:52:11:95:6d:c5:21:76:7f:f0:
        f2:31:f1:43:92:55:df:fa:3d:f2:b9:e6:78:33:1b:66:d1:5e:
        0f:d9:9a:37
-----BEGIN CERTIFICATE-----
MIIDVzCCAj+gAwIBAgIRALV/HKf3OgrXCVTzPfiYJ1QwDQYJKoZIhvcNAQELBQAw
FDESMBAGA1UEAwwJdGVhbTctbmV0MB4XDTIzMDQyMDIyNTMzMloXDTI2MDQwNDIy
NTMzMlowFzEVMBMGA1UEAwwMdGVhbTctY2xpZW50MIIBIjANBgkqhkiG9w0BAQEF
AAOCAQ8AMIIBCgKCAQEAuZDmGXZZ+eXOklXdGIy1dCFycmirzOSkxrz6fvQFBPib
5LGlceys5rDOTpTeITjNJ/npS3a54hKRzIdRkKx7U7OvExJX5jVISKs3+vmNG+aI
2DR4s+06jP9eBK3RIhcidGdJaHVP8flhVsDrDOy/didSRatkguz/hqfgE1Gck0Ve
q46hiMgITx7xqzxuezrerKd00ljGeZLJhZS4Gt3Y+4IIPjV/sv2t+5BzvbcdofB2
TFNrrf2OWeRQ3bDuayfYyIf38L64i/L9fx609ZQzt5hvbII14yv7eGNgb33duWEt
xteXrYor5cU2u7qcuDH7w3B0cLuE3jPqica2UANmuQIDAQABo4GgMIGdMAkGA1Ud
EwQCMAAwHQYDVR0OBBYEFAl2SaslZbyYgB5lJTfsA8DqgRQHME8GA1UdIwRIMEaA
FNjJkeQcvzHTjNg3+nMmmQGnD0jWoRikFjAUMRIwEAYDVQQDDAl0ZWFtNy1uZXSC
FHbu6mB7w27O+2XB8Mymvmc3fEFEMBMGA1UdJQQMMAoGCCsGAQUFBwMCMAsGA1Ud
DwQEAwIHgDANBgkqhkiG9w0BAQsFAAOCAQEABX8Zy0TJDVNzmOkjABBQmJGmXYcj
a0mbQklRsCa9JY+pQeegHjvUqzVGcSjqc6kteZod87T7R2ykfTO1uoWFoor0rj95
HK8XlOcbPUKcApBdh1I4IJUAJ/ViSioXC/Y5rdTWC83KC/br1TIO8sKaUeudCRmB
595Um0cHrE3zEpr9tspTEU76gIWHS4ulXsKqkuLOrl8/32qdqpQvAOeFISc3MHRt
wDjHGT1BEfDjE4B6hzZOnke5w4otX2b/3x5ezjAwki3iuXLDobKRPsPvV3hDoi4O
Xy/rib4/h4DU2P+YUhGVbcUhdn/w8jHxQ5JV3/o98rnmeDMbZtFeD9maNw==
-----END CERTIFICATE-----
