Certificate:
    Data:
        Version: 3 (0x2)
        Serial Number:
            5d:83:e9:9b:2d:0b:72:da:c1:1d:12:0c:11:a1:4a:32
        Signature Algorithm: sha256WithRSAEncryption
        Issuer: CN=team33-net
        Validity
            Not Before: Apr 20 00:10:43 2023 GMT
            Not After : Apr  4 00:10:43 2026 GMT
        Subject: CN=team33-server
        Subject Public Key Info:
            Public Key Algorithm: rsaEncryption
                Public-Key: (2048 bit)
                Modulus:
                    00:b5:fc:28:0f:b4:0f:01:85:cf:ff:90:e3:f5:e4:
                    d8:a2:ab:49:38:b7:44:f2:6a:d2:aa:14:e0:fa:9c:
                    4d:ce:dc:ee:a7:29:58:18:6f:67:cc:cb:eb:1e:ea:
                    d2:b2:b6:cf:4d:d4:3a:f1:17:58:a6:22:5c:74:44:
                    49:b7:2a:23:78:3c:1e:a0:49:7e:fd:4a:69:9b:fe:
                    7e:dd:bd:dc:3d:db:a1:81:9b:21:71:f5:0b:d1:96:
                    ce:dd:10:4b:5c:bf:32:a7:c8:37:5c:ff:0d:69:20:
                    2b:d4:3e:33:ab:46:5a:25:76:a3:5a:6e:76:da:0f:
                    e4:ef:76:9f:75:71:41:0b:11:61:6c:51:34:cb:85:
                    6d:68:b7:a1:88:26:d1:c5:23:c3:5a:fa:f6:bd:8d:
                    45:3c:a9:aa:e0:d4:80:fd:3f:d2:3f:64:72:f0:f6:
                    e1:78:1b:8f:62:f7:ab:1c:b3:a8:d7:ca:f9:2a:6d:
                    81:cb:61:51:09:c0:a0:44:44:18:cb:e9:c0:5f:13:
                    a9:a8:4c:ec:31:48:7c:79:6a:76:54:43:50:6d:6b:
                    ca:30:03:e6:f0:36:50:f5:17:2c:5f:69:8e:86:8b:
                    46:f9:92:09:5b:34:71:87:7a:71:24:78:43:83:25:
                    b7:31:ee:1e:0c:e5:b7:a8:bc:67:49:a1:24:49:79:
                    ff:bf
                Exponent: 65537 (0x10001)
        X509v3 extensions:
            X509v3 Basic Constraints: 
                CA:FALSE
            X509v3 Subject Key Identifier: 
                28:35:D8:C6:1C:BC:29:5A:C4:29:54:A5:8A:F4:E2:D4:25:01:71:72
            X509v3 Authority Key Identifier: 
                keyid:9C:AF:3C:22:EA:93:FB:2D:40:14:7C:05:D1:F7:4A:96:D4:66:54:3C
                DirName:/CN=team33-net
                serial:47:8C:0E:8C:E8:6A:E4:A9:C1:F0:0C:18:C7:D0:44:D1:72:F5:09:6B
            X509v3 Extended Key Usage: 
                TLS Web Server Authentication
            X509v3 Key Usage: 
                Digital Signature, Key Encipherment
            X509v3 Subject Alternative Name: 
                DNS:team33-server
    Signature Algorithm: sha256WithRSAEncryption
    Signature Value:
        29:4b:7e:35:96:31:dd:d2:62:7b:21:68:35:cf:6b:bf:7f:a0:
        c1:bd:de:56:d9:b3:e3:32:fe:c2:10:49:38:6c:65:e9:ef:b6:
        95:17:8b:92:3e:7b:33:73:76:57:90:cb:00:68:07:17:17:d4:
        38:e4:1a:0c:c4:f5:a6:ff:f2:d0:7a:0c:9b:e6:f8:f9:84:dc:
        15:ad:d4:71:53:76:2b:25:c3:1a:e1:b8:c2:5d:33:ad:c6:21:
        8f:b8:65:1f:ae:b2:bf:cb:c2:60:84:c1:57:67:44:a9:6f:00:
        20:d6:78:87:53:c4:77:c8:7c:74:33:a9:e0:85:a8:e1:6f:65:
        3d:5e:79:4c:2a:0b:e7:66:eb:80:a4:c8:54:01:59:85:f2:06:
        98:8a:32:0b:15:07:63:7d:20:21:94:38:ec:47:61:d9:41:55:
        cd:fc:13:43:3d:e2:c5:c9:ff:96:bb:ff:c1:0b:6c:5e:2f:7d:
        45:80:3d:3b:5d:90:28:ca:79:ba:c6:86:e2:51:5f:4d:74:58:
        ad:f2:f2:46:3e:69:47:93:26:c9:b6:9b:f5:c9:0b:61:6f:6e:
        04:ae:3b:e1:09:bd:90:be:9f:d0:a9:e3:1a:6f:77:00:49:87:
        dc:0f:21:7a:4d:0b:75:b6:73:98:01:f4:13:bb:b5:2a:e9:71:
        ae:8e:cb:ab
-----BEGIN CERTIFICATE-----
MIIDczCCAlugAwIBAgIQXYPpmy0LctrBHRIMEaFKMjANBgkqhkiG9w0BAQsFADAV
MRMwEQYDVQQDDAp0ZWFtMzMtbmV0MB4XDTIzMDQyMDAwMTA0M1oXDTI2MDQwNDAw
MTA0M1owGDEWMBQGA1UEAwwNdGVhbTMzLXNlcnZlcjCCASIwDQYJKoZIhvcNAQEB
BQADggEPADCCAQoCggEBALX8KA+0DwGFz/+Q4/Xk2KKrSTi3RPJq0qoU4PqcTc7c
7qcpWBhvZ8zL6x7q0rK2z03UOvEXWKYiXHRESbcqI3g8HqBJfv1KaZv+ft293D3b
oYGbIXH1C9GWzt0QS1y/MqfIN1z/DWkgK9Q+M6tGWiV2o1pudtoP5O92n3VxQQsR
YWxRNMuFbWi3oYgm0cUjw1r69r2NRTypquDUgP0/0j9kcvD24Xgbj2L3qxyzqNfK
+SptgcthUQnAoEREGMvpwF8TqahM7DFIfHlqdlRDUG1ryjAD5vA2UPUXLF9pjoaL
RvmSCVs0cYd6cSR4Q4MltzHuHgzlt6i8Z0mhJEl5/78CAwEAAaOBuzCBuDAJBgNV
HRMEAjAAMB0GA1UdDgQWBBQoNdjGHLwpWsQpVKWK9OLUJQFxcjBQBgNVHSMESTBH
gBScrzwi6pP7LUAUfAXR90qW1GZUPKEZpBcwFTETMBEGA1UEAwwKdGVhbTMzLW5l
dIIUR4wOjOhq5KnB8AwYx9BE0XL1CWswEwYDVR0lBAwwCgYIKwYBBQUHAwEwCwYD
VR0PBAQDAgWgMBgGA1UdEQQRMA+CDXRlYW0zMy1zZXJ2ZXIwDQYJKoZIhvcNAQEL
BQADggEBAClLfjWWMd3SYnshaDXPa79/oMG93lbZs+My/sIQSThsZenvtpUXi5I+
ezNzdleQywBoBxcX1DjkGgzE9ab/8tB6DJvm+PmE3BWt1HFTdislwxrhuMJdM63G
IY+4ZR+usr/LwmCEwVdnRKlvACDWeIdTxHfIfHQzqeCFqOFvZT1eeUwqC+dm64Ck
yFQBWYXyBpiKMgsVB2N9ICGUOOxHYdlBVc38E0M94sXJ/5a7/8ELbF4vfUWAPTtd
kCjKebrGhuJRX010WK3y8kY+aUeTJsm2m/XJC2FvbgSuO+EJvZC+n9Cp4xpvdwBJ
h9wPIXpNC3W2c5gB9BO7tSrpca6Oy6s=
-----END CERTIFICATE-----
